
smr-gemmini/bin/validate/gemmini/atax:     file format elf64-littleriscv


Disassembly of section .text:

00000000000100e8 <register_fini>:
   100e8:	ffff0797          	auipc	a5,0xffff0
   100ec:	f1878793          	addi	a5,a5,-232 # 0 <register_fini-0x100e8>
   100f0:	c799                	beqz	a5,100fe <register_fini+0x16>
   100f2:	00005517          	auipc	a0,0x5
   100f6:	64850513          	addi	a0,a0,1608 # 1573a <__libc_fini_array>
   100fa:	1d20506f          	j	152cc <atexit>
   100fe:	8082                	ret

0000000000010100 <_start>:
   10100:	00012197          	auipc	gp,0x12
   10104:	8f018193          	addi	gp,gp,-1808 # 219f0 <__global_pointer$>
   10108:	8a818513          	addi	a0,gp,-1880 # 21298 <polybench_program_total_flops>
   1010c:	00107617          	auipc	a2,0x107
   10110:	c2460613          	addi	a2,a2,-988 # 116d30 <__BSS_END__>
   10114:	8e09                	sub	a2,a2,a0
   10116:	4581                	li	a1,0
   10118:	46e020ef          	jal	ra,12586 <memset>
   1011c:	00005517          	auipc	a0,0x5
   10120:	1b050513          	addi	a0,a0,432 # 152cc <atexit>
   10124:	c519                	beqz	a0,10132 <_start+0x32>
   10126:	00005517          	auipc	a0,0x5
   1012a:	61450513          	addi	a0,a0,1556 # 1573a <__libc_fini_array>
   1012e:	19e050ef          	jal	ra,152cc <atexit>
   10132:	487010ef          	jal	ra,11db8 <__libc_init_array>
   10136:	4502                	lw	a0,0(sp)
   10138:	002c                	addi	a1,sp,8
   1013a:	4601                	li	a2,0
   1013c:	064000ef          	jal	ra,101a0 <main>
   10140:	3870106f          	j	11cc6 <exit>

0000000000010144 <__do_global_dtors_aux>:
   10144:	8e018793          	addi	a5,gp,-1824 # 212d0 <completed.5527>
   10148:	0007c703          	lbu	a4,0(a5)
   1014c:	eb0d                	bnez	a4,1017e <__do_global_dtors_aux+0x3a>
   1014e:	1141                	addi	sp,sp,-16
   10150:	e022                	sd	s0,0(sp)
   10152:	e406                	sd	ra,8(sp)
   10154:	843e                	mv	s0,a5
   10156:	ffff0797          	auipc	a5,0xffff0
   1015a:	eaa78793          	addi	a5,a5,-342 # 0 <register_fini-0x100e8>
   1015e:	cb89                	beqz	a5,10170 <__do_global_dtors_aux+0x2c>
   10160:	00010517          	auipc	a0,0x10
   10164:	ee850513          	addi	a0,a0,-280 # 20048 <__EH_FRAME_BEGIN__>
   10168:	00000097          	auipc	ra,0x0
   1016c:	000000e7          	jalr	zero # 0 <register_fini-0x100e8>
   10170:	4785                	li	a5,1
   10172:	60a2                	ld	ra,8(sp)
   10174:	00f40023          	sb	a5,0(s0)
   10178:	6402                	ld	s0,0(sp)
   1017a:	0141                	addi	sp,sp,16
   1017c:	8082                	ret
   1017e:	8082                	ret

0000000000010180 <frame_dummy>:
   10180:	ffff0797          	auipc	a5,0xffff0
   10184:	e8078793          	addi	a5,a5,-384 # 0 <register_fini-0x100e8>
   10188:	cb99                	beqz	a5,1019e <frame_dummy+0x1e>
   1018a:	8e818593          	addi	a1,gp,-1816 # 212d8 <object.5532>
   1018e:	00010517          	auipc	a0,0x10
   10192:	eba50513          	addi	a0,a0,-326 # 20048 <__EH_FRAME_BEGIN__>
   10196:	00000317          	auipc	t1,0x0
   1019a:	00000067          	jr	zero # 0 <register_fini-0x100e8>
   1019e:	8082                	ret

00000000000101a0 <main>:
   101a0:	7139                	addi	sp,sp,-64
   101a2:	fc06                	sd	ra,56(sp)
   101a4:	1f400513          	li	a0,500
   101a8:	d22a                	sw	a0,36(sp)
   101aa:	d42a                	sw	a0,40(sp)
   101ac:	000215b7          	lui	a1,0x21
   101b0:	31058593          	addi	a1,a1,784 # 21310 <_QEa>
   101b4:	00116637          	lui	a2,0x116
   101b8:	d4060613          	addi	a2,a2,-704 # 115d40 <_QEx>
   101bc:	1054                	addi	a3,sp,36
   101be:	1038                	addi	a4,sp,40
   101c0:	ec2a                	sd	a0,24(sp)
   101c2:	852e                	mv	a0,a1
   101c4:	e82e                	sd	a1,16(sp)
   101c6:	85b2                	mv	a1,a2
   101c8:	e432                	sd	a2,8(sp)
   101ca:	8636                	mv	a2,a3
   101cc:	86ba                	mv	a3,a4
   101ce:	038000ef          	jal	ra,10206 <_QPinit_array>
   101d2:	368000ef          	jal	ra,1053a <polybench_timer_start_>
   101d6:	6562                	ld	a0,24(sp)
   101d8:	d62a                	sw	a0,44(sp)
   101da:	d82a                	sw	a0,48(sp)
   101dc:	001165b7          	lui	a1,0x116
   101e0:	51058713          	addi	a4,a1,1296 # 116510 <_QEy>
   101e4:	001155b7          	lui	a1,0x115
   101e8:	57058793          	addi	a5,a1,1392 # 115570 <_QEtmp>
   101ec:	1068                	addi	a0,sp,44
   101ee:	180c                	addi	a1,sp,48
   101f0:	6642                	ld	a2,16(sp)
   101f2:	66a2                	ld	a3,8(sp)
   101f4:	19a000ef          	jal	ra,1038e <_QPkernel_atax>
   101f8:	38e000ef          	jal	ra,10586 <polybench_timer_stop_>
   101fc:	398000ef          	jal	ra,10594 <polybench_timer_print_>
   10200:	70e2                	ld	ra,56(sp)
   10202:	6121                	addi	sp,sp,64
   10204:	8082                	ret

0000000000010206 <_QPinit_array>:
   10206:	7159                	addi	sp,sp,-112
   10208:	4298                	lw	a4,0(a3)
   1020a:	4785                	li	a5,1
   1020c:	883a                	mv	a6,a4
   1020e:	f0b6                	sd	a3,96(sp)
   10210:	ecb2                	sd	a2,88(sp)
   10212:	e8ae                	sd	a1,80(sp)
   10214:	e4aa                	sd	a0,72(sp)
   10216:	e0ba                	sd	a4,64(sp)
   10218:	fc3e                	sd	a5,56(sp)
   1021a:	f842                	sd	a6,48(sp)
   1021c:	0040006f          	j	10220 <_QPinit_array+0x1a>
   10220:	7542                	ld	a0,48(sp)
   10222:	75e2                	ld	a1,56(sp)
   10224:	4605                	li	a2,1
   10226:	f42a                	sd	a0,40(sp)
   10228:	f02e                	sd	a1,32(sp)
   1022a:	0ac54963          	blt	a0,a2,102dc <_QPinit_array+0xd6>
   1022e:	0040006f          	j	10232 <_QPinit_array+0x2c>
   10232:	7502                	ld	a0,32(sp)
   10234:	d6aa                	sw	a0,108(sp)
   10236:	fff50593          	addi	a1,a0,-1
   1023a:	d2058053          	fcvt.d.w	ft0,a1
   1023e:	88018593          	addi	a1,gp,-1920 # 21270 <__dso_handle+0x8>
   10242:	0005b087          	fld	ft1,0(a1)
   10246:	12107053          	fmul.d	ft0,ft0,ft1
   1024a:	40107153          	fcvt.s.d	ft2,ft0
   1024e:	0005059b          	sext.w	a1,a0
   10252:	058a                	slli	a1,a1,0x2
   10254:	6646                	ld	a2,80(sp)
   10256:	95b2                	add	a1,a1,a2
   10258:	fe25ae27          	fsw	ft2,-4(a1)
   1025c:	7586                	ld	a1,96(sp)
   1025e:	4194                	lw	a3,0(a1)
   10260:	4705                	li	a4,1
   10262:	ec3a                	sd	a4,24(sp)
   10264:	e836                	sd	a3,16(sp)
   10266:	0040006f          	j	1026a <_QPinit_array+0x64>
   1026a:	6542                	ld	a0,16(sp)
   1026c:	65e2                	ld	a1,24(sp)
   1026e:	4605                	li	a2,1
   10270:	e42a                	sd	a0,8(sp)
   10272:	e02e                	sd	a1,0(sp)
   10274:	04c54863          	blt	a0,a2,102c4 <_QPinit_array+0xbe>
   10278:	0040006f          	j	1027c <_QPinit_array+0x76>
   1027c:	6502                	ld	a0,0(sp)
   1027e:	d4aa                	sw	a0,104(sp)
   10280:	55b6                	lw	a1,108(sp)
   10282:	15fd                	addi	a1,a1,-1
   10284:	02a58633          	mul	a2,a1,a0
   10288:	d2060053          	fcvt.d.w	ft0,a2
   1028c:	6666                	ld	a2,88(sp)
   1028e:	4214                	lw	a3,0(a2)
   10290:	d226f0d3          	fcvt.d.l	ft1,a3
   10294:	1a107053          	fdiv.d	ft0,ft0,ft1
   10298:	40107153          	fcvt.s.d	ft2,ft0
   1029c:	0005069b          	sext.w	a3,a0
   102a0:	6706                	ld	a4,64(sp)
   102a2:	02b705b3          	mul	a1,a4,a1
   102a6:	95b6                	add	a1,a1,a3
   102a8:	058a                	slli	a1,a1,0x2
   102aa:	66a6                	ld	a3,72(sp)
   102ac:	95b6                	add	a1,a1,a3
   102ae:	fe25ae27          	fsw	ft2,-4(a1)
   102b2:	00150593          	addi	a1,a0,1
   102b6:	67a2                	ld	a5,8(sp)
   102b8:	fff78813          	addi	a6,a5,-1
   102bc:	ec2e                	sd	a1,24(sp)
   102be:	e842                	sd	a6,16(sp)
   102c0:	fabff06f          	j	1026a <_QPinit_array+0x64>
   102c4:	6502                	ld	a0,0(sp)
   102c6:	d4aa                	sw	a0,104(sp)
   102c8:	7582                	ld	a1,32(sp)
   102ca:	00158613          	addi	a2,a1,1
   102ce:	76a2                	ld	a3,40(sp)
   102d0:	fff68713          	addi	a4,a3,-1
   102d4:	fc32                	sd	a2,56(sp)
   102d6:	f83a                	sd	a4,48(sp)
   102d8:	f49ff06f          	j	10220 <_QPinit_array+0x1a>
   102dc:	7502                	ld	a0,32(sp)
   102de:	d6aa                	sw	a0,108(sp)
   102e0:	6165                	addi	sp,sp,112
   102e2:	8082                	ret

00000000000102e4 <_QPprint_array>:
   102e4:	7139                	addi	sp,sp,-64
   102e6:	fc06                	sd	ra,56(sp)
   102e8:	418c                	lw	a1,0(a1)
   102ea:	4605                	li	a2,1
   102ec:	f42a                	sd	a0,40(sp)
   102ee:	f032                	sd	a2,32(sp)
   102f0:	ec2e                	sd	a1,24(sp)
   102f2:	0040006f          	j	102f6 <_QPprint_array+0x12>
   102f6:	6562                	ld	a0,24(sp)
   102f8:	7582                	ld	a1,32(sp)
   102fa:	4605                	li	a2,1
   102fc:	e82a                	sd	a0,16(sp)
   102fe:	e42e                	sd	a1,8(sp)
   10300:	08c54063          	blt	a0,a2,10380 <_QPprint_array+0x9c>
   10304:	0040006f          	j	10308 <_QPprint_array+0x24>
   10308:	6522                	ld	a0,8(sp)
   1030a:	da2a                	sw	a0,52(sp)
   1030c:	0005059b          	sext.w	a1,a0
   10310:	058a                	slli	a1,a1,0x2
   10312:	7622                	ld	a2,40(sp)
   10314:	95b2                	add	a1,a1,a2
   10316:	ffc58513          	addi	a0,a1,-4
   1031a:	2f4000ef          	jal	ra,1060e <printf_num_>
   1031e:	5552                	lw	a0,52(sp)
   10320:	fff50593          	addi	a1,a0,-1
   10324:	357d                	addiw	a0,a0,-1
   10326:	03333637          	lui	a2,0x3333
   1032a:	3336061b          	addiw	a2,a2,819
   1032e:	0632                	slli	a2,a2,0xc
   10330:	33360613          	addi	a2,a2,819 # 3333333 <__BSS_END__+0x321c603>
   10334:	0632                	slli	a2,a2,0xc
   10336:	33360613          	addi	a2,a2,819
   1033a:	0636                	slli	a2,a2,0xd
   1033c:	66760613          	addi	a2,a2,1639
   10340:	02c51533          	mulh	a0,a0,a2
   10344:	03f55613          	srli	a2,a0,0x3f
   10348:	810d                	srli	a0,a0,0x3
   1034a:	9532                	add	a0,a0,a2
   1034c:	4651                	li	a2,20
   1034e:	02c50533          	mul	a0,a0,a2
   10352:	40a58533          	sub	a0,a1,a0
   10356:	1502                	slli	a0,a0,0x20
   10358:	9101                	srli	a0,a0,0x20
   1035a:	4581                	li	a1,0
   1035c:	00b51863          	bne	a0,a1,1036c <_QPprint_array+0x88>
   10360:	0040006f          	j	10364 <_QPprint_array+0x80>
   10364:	2a4000ef          	jal	ra,10608 <printf_line_>
   10368:	0040006f          	j	1036c <_QPprint_array+0x88>
   1036c:	6522                	ld	a0,8(sp)
   1036e:	00150593          	addi	a1,a0,1
   10372:	6642                	ld	a2,16(sp)
   10374:	fff60693          	addi	a3,a2,-1
   10378:	f02e                	sd	a1,32(sp)
   1037a:	ec36                	sd	a3,24(sp)
   1037c:	f7bff06f          	j	102f6 <_QPprint_array+0x12>
   10380:	6522                	ld	a0,8(sp)
   10382:	da2a                	sw	a0,52(sp)
   10384:	284000ef          	jal	ra,10608 <printf_line_>
   10388:	70e2                	ld	ra,56(sp)
   1038a:	6121                	addi	sp,sp,64
   1038c:	8082                	ret

000000000001038e <_QPkernel_atax>:
   1038e:	711d                	addi	sp,sp,-96
   10390:	ec86                	sd	ra,88(sp)
   10392:	0005a803          	lw	a6,0(a1)
   10396:	4885                	li	a7,1
   10398:	e4be                	sd	a5,72(sp)
   1039a:	e0ba                	sd	a4,64(sp)
   1039c:	fc36                	sd	a3,56(sp)
   1039e:	f832                	sd	a2,48(sp)
   103a0:	f42e                	sd	a1,40(sp)
   103a2:	f02a                	sd	a0,32(sp)
   103a4:	ec46                	sd	a7,24(sp)
   103a6:	e842                	sd	a6,16(sp)
   103a8:	0040006f          	j	103ac <_QPkernel_atax+0x1e>
   103ac:	6542                	ld	a0,16(sp)
   103ae:	65e2                	ld	a1,24(sp)
   103b0:	4605                	li	a2,1
   103b2:	e42a                	sd	a0,8(sp)
   103b4:	e02e                	sd	a1,0(sp)
   103b6:	02c54763          	blt	a0,a2,103e4 <_QPkernel_atax+0x56>
   103ba:	0040006f          	j	103be <_QPkernel_atax+0x30>
   103be:	6502                	ld	a0,0(sp)
   103c0:	caaa                	sw	a0,84(sp)
   103c2:	0005059b          	sext.w	a1,a0
   103c6:	058a                	slli	a1,a1,0x2
   103c8:	6606                	ld	a2,64(sp)
   103ca:	95b2                	add	a1,a1,a2
   103cc:	4681                	li	a3,0
   103ce:	fed5ae23          	sw	a3,-4(a1)
   103d2:	00150593          	addi	a1,a0,1
   103d6:	66a2                	ld	a3,8(sp)
   103d8:	fff68713          	addi	a4,a3,-1
   103dc:	ec2e                	sd	a1,24(sp)
   103de:	e83a                	sd	a4,16(sp)
   103e0:	fcdff06f          	j	103ac <_QPkernel_atax+0x1e>
   103e4:	6502                	ld	a0,0(sp)
   103e6:	caaa                	sw	a0,84(sp)
   103e8:	7542                	ld	a0,48(sp)
   103ea:	75e2                	ld	a1,56(sp)
   103ec:	6606                	ld	a2,64(sp)
   103ee:	66a6                	ld	a3,72(sp)
   103f0:	7702                	ld	a4,32(sp)
   103f2:	77a2                	ld	a5,40(sp)
   103f4:	00a000ef          	jal	ra,103fe <_QPatax_single>
   103f8:	60e6                	ld	ra,88(sp)
   103fa:	6125                	addi	sp,sp,96
   103fc:	8082                	ret

00000000000103fe <_QPatax_single>:
   103fe:	7175                	addi	sp,sp,-144
   10400:	e506                	sd	ra,136(sp)
   10402:	3f800837          	lui	a6,0x3f800
   10406:	d4c2                	sw	a6,104(sp)
   10408:	4885                	li	a7,1
   1040a:	d6c6                	sw	a7,108(sp)
   1040c:	4281                	li	t0,0
   1040e:	d896                	sw	t0,112(sp)
   10410:	dac6                	sw	a7,116(sp)
   10412:	830a                	mv	t1,sp
   10414:	01133c23          	sd	a7,24(t1) # 101ae <main+0xe>
   10418:	07410393          	addi	t2,sp,116
   1041c:	00733823          	sd	t2,16(t1)
   10420:	00d33423          	sd	a3,8(t1)
   10424:	07010393          	addi	t2,sp,112
   10428:	00733023          	sd	t2,0(t1)
   1042c:	6379                	lui	t1,0x1e
   1042e:	ff830313          	addi	t1,t1,-8 # 1dff8 <_QQcl.54>
   10432:	06810393          	addi	t2,sp,104
   10436:	06c10e13          	addi	t3,sp,108
   1043a:	f0aa                	sd	a0,96(sp)
   1043c:	851a                	mv	a0,t1
   1043e:	ecae                	sd	a1,88(sp)
   10440:	85ba                	mv	a1,a4
   10442:	e8b2                	sd	a2,80(sp)
   10444:	863e                	mv	a2,a5
   10446:	e4b6                	sd	a3,72(sp)
   10448:	869e                	mv	a3,t2
   1044a:	7306                	ld	t1,96(sp)
   1044c:	e0ba                	sd	a4,64(sp)
   1044e:	871a                	mv	a4,t1
   10450:	fc3e                	sd	a5,56(sp)
   10452:	63e6                	ld	t2,88(sp)
   10454:	f842                	sd	a6,48(sp)
   10456:	881e                	mv	a6,t2
   10458:	f446                	sd	a7,40(sp)
   1045a:	88f2                	mv	a7,t3
   1045c:	f016                	sd	t0,32(sp)
   1045e:	3bc010ef          	jal	ra,1181a <sgemv_>
   10462:	7542                	ld	a0,48(sp)
   10464:	dcaa                	sw	a0,120(sp)
   10466:	75a2                	ld	a1,40(sp)
   10468:	deae                	sw	a1,124(sp)
   1046a:	7602                	ld	a2,32(sp)
   1046c:	c132                	sw	a2,128(sp)
   1046e:	c32e                	sw	a1,132(sp)
   10470:	868a                	mv	a3,sp
   10472:	ee8c                	sd	a1,24(a3)
   10474:	0158                	addi	a4,sp,132
   10476:	ea98                	sd	a4,16(a3)
   10478:	6746                	ld	a4,80(sp)
   1047a:	e698                	sd	a4,8(a3)
   1047c:	011c                	addi	a5,sp,128
   1047e:	e29c                	sd	a5,0(a3)
   10480:	66f9                	lui	a3,0x1e
   10482:	ff968513          	addi	a0,a3,-7 # 1dff9 <_QQcl.4E>
   10486:	18b4                	addi	a3,sp,120
   10488:	07c10893          	addi	a7,sp,124
   1048c:	75e2                	ld	a1,56(sp)
   1048e:	6606                	ld	a2,64(sp)
   10490:	7706                	ld	a4,96(sp)
   10492:	77e2                	ld	a5,56(sp)
   10494:	6826                	ld	a6,72(sp)
   10496:	384010ef          	jal	ra,1181a <sgemv_>
   1049a:	60aa                	ld	ra,136(sp)
   1049c:	6149                	addi	sp,sp,144
   1049e:	8082                	ret

00000000000104a0 <polybench_flush_cache.part.0>:
   104a0:	66f9                	lui	a3,0x1e
   104a2:	6679                	lui	a2,0x1e
   104a4:	6579                	lui	a0,0x1e
   104a6:	1141                	addi	sp,sp,-16
   104a8:	00068693          	mv	a3,a3
   104ac:	0a060613          	addi	a2,a2,160 # 1e0a0 <__func__.4057>
   104b0:	06e00593          	li	a1,110
   104b4:	01050513          	addi	a0,a0,16 # 1e010 <_QQcl.4E+0x17>
   104b8:	e406                	sd	ra,8(sp)
   104ba:	730010ef          	jal	ra,11bea <__assert_func>

00000000000104be <polybench_flush_cache>:
   104be:	1141                	addi	sp,sp,-16
   104c0:	45a1                	li	a1,8
   104c2:	6541                	lui	a0,0x10
   104c4:	e406                	sd	ra,8(sp)
   104c6:	770010ef          	jal	ra,11c36 <calloc>
   104ca:	f20007d3          	fmv.d.x	fa5,zero
   104ce:	00080737          	lui	a4,0x80
   104d2:	87aa                	mv	a5,a0
   104d4:	972a                	add	a4,a4,a0
   104d6:	2398                	fld	fa4,0(a5)
   104d8:	07a1                	addi	a5,a5,8
   104da:	02e7f7d3          	fadd.d	fa5,fa5,fa4
   104de:	fef71ce3          	bne	a4,a5,104d6 <polybench_flush_cache+0x18>
   104e2:	000217b7          	lui	a5,0x21
   104e6:	1f07b707          	fld	fa4,496(a5) # 211f0 <__SDATA_BEGIN__>
   104ea:	a2e787d3          	fle.d	a5,fa5,fa4
   104ee:	c789                	beqz	a5,104f8 <polybench_flush_cache+0x3a>
   104f0:	60a2                	ld	ra,8(sp)
   104f2:	0141                	addi	sp,sp,16
   104f4:	25b0106f          	j	11f4e <free>
   104f8:	fa9ff0ef          	jal	ra,104a0 <polybench_flush_cache.part.0>

00000000000104fc <polybench_prepare_instruments_>:
   104fc:	1141                	addi	sp,sp,-16
   104fe:	45a1                	li	a1,8
   10500:	6541                	lui	a0,0x10
   10502:	e406                	sd	ra,8(sp)
   10504:	732010ef          	jal	ra,11c36 <calloc>
   10508:	f20007d3          	fmv.d.x	fa5,zero
   1050c:	00080737          	lui	a4,0x80
   10510:	87aa                	mv	a5,a0
   10512:	972a                	add	a4,a4,a0
   10514:	2398                	fld	fa4,0(a5)
   10516:	07a1                	addi	a5,a5,8
   10518:	02e7f7d3          	fadd.d	fa5,fa5,fa4
   1051c:	fef71ce3          	bne	a4,a5,10514 <polybench_prepare_instruments_+0x18>
   10520:	000217b7          	lui	a5,0x21
   10524:	1f07b707          	fld	fa4,496(a5) # 211f0 <__SDATA_BEGIN__>
   10528:	a2e787d3          	fle.d	a5,fa5,fa4
   1052c:	c789                	beqz	a5,10536 <polybench_prepare_instruments_+0x3a>
   1052e:	60a2                	ld	ra,8(sp)
   10530:	0141                	addi	sp,sp,16
   10532:	21d0106f          	j	11f4e <free>
   10536:	f6bff0ef          	jal	ra,104a0 <polybench_flush_cache.part.0>

000000000001053a <polybench_timer_start_>:
   1053a:	1141                	addi	sp,sp,-16
   1053c:	45a1                	li	a1,8
   1053e:	6541                	lui	a0,0x10
   10540:	e406                	sd	ra,8(sp)
   10542:	6f4010ef          	jal	ra,11c36 <calloc>
   10546:	f20007d3          	fmv.d.x	fa5,zero
   1054a:	00080737          	lui	a4,0x80
   1054e:	87aa                	mv	a5,a0
   10550:	972a                	add	a4,a4,a0
   10552:	2398                	fld	fa4,0(a5)
   10554:	07a1                	addi	a5,a5,8
   10556:	02e7f7d3          	fadd.d	fa5,fa5,fa4
   1055a:	fef71ce3          	bne	a4,a5,10552 <polybench_timer_start_+0x18>
   1055e:	000217b7          	lui	a5,0x21
   10562:	1f07b707          	fld	fa4,496(a5) # 211f0 <__SDATA_BEGIN__>
   10566:	a2e787d3          	fle.d	a5,fa5,fa4
   1056a:	cf81                	beqz	a5,10582 <polybench_timer_start_+0x48>
   1056c:	1e3010ef          	jal	ra,11f4e <free>
   10570:	c0002773          	rdcycle	a4
   10574:	60a2                	ld	ra,8(sp)
   10576:	001177b7          	lui	a5,0x117
   1057a:	d0e7b823          	sd	a4,-752(a5) # 116d10 <polybench_c_start>
   1057e:	0141                	addi	sp,sp,16
   10580:	8082                	ret
   10582:	f1fff0ef          	jal	ra,104a0 <polybench_flush_cache.part.0>

0000000000010586 <polybench_timer_stop_>:
   10586:	c0002773          	rdcycle	a4
   1058a:	001177b7          	lui	a5,0x117
   1058e:	d2e7b023          	sd	a4,-736(a5) # 116d20 <polybench_c_end>
   10592:	8082                	ret

0000000000010594 <polybench_timer_print_>:
   10594:	001177b7          	lui	a5,0x117
   10598:	d207b583          	ld	a1,-736(a5) # 116d20 <polybench_c_end>
   1059c:	001177b7          	lui	a5,0x117
   105a0:	d107b783          	ld	a5,-752(a5) # 116d10 <polybench_c_start>
   105a4:	6579                	lui	a0,0x1e
   105a6:	04050513          	addi	a0,a0,64 # 1e040 <_QQcl.4E+0x47>
   105aa:	8d9d                	sub	a1,a1,a5
   105ac:	0aa0206f          	j	12656 <printf>

00000000000105b0 <polybench_alloc_data>:
   105b0:	02b5063b          	mulw	a2,a0,a1
   105b4:	1101                	addi	sp,sp,-32
   105b6:	02000593          	li	a1,32
   105ba:	0028                	addi	a0,sp,8
   105bc:	ec06                	sd	ra,24(sp)
   105be:	e402                	sd	zero,8(sp)
   105c0:	063010ef          	jal	ra,11e22 <memalign>
   105c4:	6722                	ld	a4,8(sp)
   105c6:	c711                	beqz	a4,105d2 <polybench_alloc_data+0x22>
   105c8:	e509                	bnez	a0,105d2 <polybench_alloc_data+0x22>
   105ca:	60e2                	ld	ra,24(sp)
   105cc:	853a                	mv	a0,a4
   105ce:	6105                	addi	sp,sp,32
   105d0:	8082                	ret
   105d2:	8901b783          	ld	a5,-1904(gp) # 21280 <_impure_ptr>
   105d6:	6579                	lui	a0,0x1e
   105d8:	02c00613          	li	a2,44
   105dc:	6f94                	ld	a3,24(a5)
   105de:	4585                	li	a1,1
   105e0:	04850513          	addi	a0,a0,72 # 1e048 <_QQcl.4E+0x4f>
   105e4:	7c6010ef          	jal	ra,11daa <fwrite>
   105e8:	4505                	li	a0,1
   105ea:	6dc010ef          	jal	ra,11cc6 <exit>

00000000000105ee <check_err_>:
   105ee:	410c                	lw	a1,0(a0)
   105f0:	e191                	bnez	a1,105f4 <check_err_+0x6>
   105f2:	8082                	ret
   105f4:	6579                	lui	a0,0x1e
   105f6:	1141                	addi	sp,sp,-16
   105f8:	07850513          	addi	a0,a0,120 # 1e078 <_QQcl.4E+0x7f>
   105fc:	e406                	sd	ra,8(sp)
   105fe:	058020ef          	jal	ra,12656 <printf>
   10602:	4505                	li	a0,1
   10604:	6c2010ef          	jal	ra,11cc6 <exit>

0000000000010608 <printf_line_>:
   10608:	4529                	li	a0,10
   1060a:	07e0206f          	j	12688 <putchar>

000000000001060e <printf_num_>:
   1060e:	00052787          	flw	fa5,0(a0)
   10612:	6579                	lui	a0,0x1e
   10614:	0b850513          	addi	a0,a0,184 # 1e0b8 <__func__.4057+0x18>
   10618:	420787d3          	fcvt.d.s	fa5,fa5
   1061c:	e20785d3          	fmv.x.d	a1,fa5
   10620:	0360206f          	j	12656 <printf>

0000000000010624 <sp_tiled_matmul_os>:
   10624:	7115                	addi	sp,sp,-224
   10626:	e5ca                	sd	s2,200(sp)
   10628:	893e                	mv	s2,a5
   1062a:	02f807b3          	mul	a5,a6,a5
   1062e:	12014303          	lbu	t1,288(sp)
   10632:	f15e                	sd	s7,160(sp)
   10634:	40000b93          	li	s7,1024
   10638:	e9a6                	sd	s1,208(sp)
   1063a:	01d3131b          	slliw	t1,t1,0x1d
   1063e:	13014483          	lbu	s1,304(sp)
   10642:	f43a                	sd	a4,40(sp)
   10644:	eda2                	sd	s0,216(sp)
   10646:	e1ce                	sd	s3,192(sp)
   10648:	40fb8bb3          	sub	s7,s7,a5
   1064c:	003b9b9b          	slliw	s7,s7,0x3
   10650:	c00007b7          	lui	a5,0xc0000
   10654:	00f36333          	or	t1,t1,a5
   10658:	000b871b          	sext.w	a4,s7
   1065c:	e8ba                	sd	a4,80(sp)
   1065e:	0003071b          	sext.w	a4,t1
   10662:	fd52                	sd	s4,184(sp)
   10664:	f55a                	sd	s6,168(sp)
   10666:	ed62                	sd	s8,152(sp)
   10668:	e966                	sd	s9,144(sp)
   1066a:	e56a                	sd	s10,136(sp)
   1066c:	e16e                	sd	s11,128(sp)
   1066e:	f956                	sd	s5,176(sp)
   10670:	4e09                	li	t3,2
   10672:	ec26                	sd	s1,24(sp)
   10674:	f032                	sd	a2,32(sp)
   10676:	fcb6                	sd	a3,120(sp)
   10678:	f4c6                	sd	a7,104(sp)
   1067a:	f0ba                	sd	a4,96(sp)
   1067c:	8b2e                	mv	s6,a1
   1067e:	e0050cd3          	fmv.x.w	s9,fa0
   10682:	e00589d3          	fmv.x.w	s3,fa1
   10686:	e00607d3          	fmv.x.w	a5,fa2
   1068a:	7a2e                	ld	s4,232(sp)
   1068c:	7dce                	ld	s11,240(sp)
   1068e:	7d6e                	ld	s10,248(sp)
   10690:	6412                	ld	s0,256(sp)
   10692:	13814383          	lbu	t2,312(sp)
   10696:	8c2a                	mv	s8,a0
   10698:	4589                	li	a1,2
   1069a:	010e6363          	bltu	t3,a6,106a0 <sp_tiled_matmul_os+0x7c>
   1069e:	85c2                	mv	a1,a6
   106a0:	4709                	li	a4,2
   106a2:	88ca                	mv	a7,s2
   106a4:	01277363          	bgeu	a4,s2,106aa <sp_tiled_matmul_os+0x86>
   106a8:	4889                	li	a7,2
   106aa:	7702                	ld	a4,32(sp)
   106ac:	c701                	beqz	a4,106b4 <sp_tiled_matmul_os+0x90>
   106ae:	6762                	ld	a4,24(sp)
   106b0:	42070c63          	beqz	a4,10ae8 <sp_tiled_matmul_os+0x4c4>
   106b4:	00080737          	lui	a4,0x80
   106b8:	02099793          	slli	a5,s3,0x20
   106bc:	10170713          	addi	a4,a4,257 # 80101 <__global_pointer$+0x5e711>
   106c0:	8fd9                	or	a5,a5,a4
   106c2:	002d1713          	slli	a4,s10,0x2
   106c6:	00e7b07b          	0xe7b07b
   106ca:	08090763          	beqz	s2,10758 <sp_tiled_matmul_os+0x134>
   106ce:	08080563          	beqz	a6,10758 <sp_tiled_matmul_os+0x134>
   106d2:	42a1                	li	t0,8
   106d4:	6446                	ld	s0,80(sp)
   106d6:	414282b3          	sub	t0,t0,s4
   106da:	4e05                	li	t3,1
   106dc:	0038999b          	slliw	s3,a7,0x3
   106e0:	0039131b          	slliw	t1,s2,0x3
   106e4:	00589a93          	slli	s5,a7,0x5
   106e8:	84da                	mv	s1,s6
   106ea:	005d1f13          	slli	t5,s10,0x5
   106ee:	12c2                	slli	t0,t0,0x30
   106f0:	83ca                	mv	t2,s2
   106f2:	4f81                	li	t6,0
   106f4:	fff80e93          	addi	t4,a6,-1 # 3f7fffff <__BSS_END__+0x3f6e92cf>
   106f8:	1e4e                	slli	t3,t3,0x33
   106fa:	877e                	mv	a4,t6
   106fc:	9fc6                	add	t6,t6,a7
   106fe:	879e                	mv	a5,t2
   10700:	01f96363          	bltu	s2,t6,10706 <sp_tiled_matmul_os+0xe2>
   10704:	87c6                	mv	a5,a7
   10706:	973e                	add	a4,a4,a5
   10708:	4681                	li	a3,0
   1070a:	078e                	slli	a5,a5,0x3
   1070c:	01276363          	bltu	a4,s2,10712 <sp_tiled_matmul_os+0xee>
   10710:	768e                	ld	a3,224(sp)
   10712:	8f95                	sub	a5,a5,a3
   10714:	02079513          	slli	a0,a5,0x20
   10718:	8626                	mv	a2,s1
   1071a:	86a2                	mv	a3,s0
   1071c:	4701                	li	a4,0
   1071e:	02069793          	slli	a5,a3,0x20
   10722:	9381                	srli	a5,a5,0x20
   10724:	8fc9                	or	a5,a5,a0
   10726:	01c7e7b3          	or	a5,a5,t3
   1072a:	01d71863          	bne	a4,t4,1073a <sp_tiled_matmul_os+0x116>
   1072e:	02069793          	slli	a5,a3,0x20
   10732:	9381                	srli	a5,a5,0x20
   10734:	8fc9                	or	a5,a5,a0
   10736:	0057e7b3          	or	a5,a5,t0
   1073a:	04f6307b          	0x4f6307b
   1073e:	0705                	addi	a4,a4,1
   10740:	006686bb          	addw	a3,a3,t1
   10744:	967a                	add	a2,a2,t5
   10746:	fce81ce3          	bne	a6,a4,1071e <sp_tiled_matmul_os+0xfa>
   1074a:	411383b3          	sub	t2,t2,a7
   1074e:	0134043b          	addw	s0,s0,s3
   10752:	94d6                	add	s1,s1,s5
   10754:	fb2fe3e3          	bltu	t6,s2,106fa <sp_tiled_matmul_os+0xd6>
   10758:	00080737          	lui	a4,0x80
   1075c:	020c9793          	slli	a5,s9,0x20
   10760:	10170713          	addi	a4,a4,257 # 80101 <__global_pointer$+0x5e711>
   10764:	8fd9                	or	a5,a5,a4
   10766:	002d9713          	slli	a4,s11,0x2
   1076a:	00e7b07b          	0xe7b07b
   1076e:	77a2                	ld	a5,40(sp)
   10770:	1e078e63          	beqz	a5,1096c <sp_tiled_matmul_os+0x348>
   10774:	06080e63          	beqz	a6,107f0 <sp_tiled_matmul_os+0x1cc>
   10778:	17fd                	addi	a5,a5,-1
   1077a:	f83e                	sd	a5,48(sp)
   1077c:	77a6                	ld	a5,104(sp)
   1077e:	4421                	li	s0,8
   10780:	00359e1b          	slliw	t3,a1,0x3
   10784:	005d9393          	slli	t2,s11,0x5
   10788:	82e2                	mv	t0,s8
   1078a:	00559e93          	slli	t4,a1,0x5
   1078e:	4f81                	li	t6,0
   10790:	4f01                	li	t5,0
   10792:	8c1d                	sub	s0,s0,a5
   10794:	77c2                	ld	a5,48(sp)
   10796:	4321                	li	t1,8
   10798:	01e79363          	bne	a5,t5,1079e <sp_tiled_matmul_os+0x17a>
   1079c:	8322                	mv	t1,s0
   1079e:	003f961b          	slliw	a2,t6,0x3
   107a2:	1342                	slli	t1,t1,0x30
   107a4:	88c2                	mv	a7,a6
   107a6:	8516                	mv	a0,t0
   107a8:	4701                	li	a4,0
   107aa:	a02d                	j	107d4 <sp_tiled_matmul_os+0x1b0>
   107ac:	00359793          	slli	a5,a1,0x3
   107b0:	03077763          	bgeu	a4,a6,107de <sp_tiled_matmul_os+0x1ba>
   107b4:	02061693          	slli	a3,a2,0x20
   107b8:	9281                	srli	a3,a3,0x20
   107ba:	0066e6b3          	or	a3,a3,t1
   107be:	1782                	slli	a5,a5,0x20
   107c0:	8fd5                	or	a5,a5,a3
   107c2:	04f5307b          	0x4f5307b
   107c6:	00ce063b          	addw	a2,t3,a2
   107ca:	9576                	add	a0,a0,t4
   107cc:	40b888b3          	sub	a7,a7,a1
   107d0:	01077a63          	bgeu	a4,a6,107e4 <sp_tiled_matmul_os+0x1c0>
   107d4:	972e                	add	a4,a4,a1
   107d6:	00389793          	slli	a5,a7,0x3
   107da:	fce879e3          	bgeu	a6,a4,107ac <sp_tiled_matmul_os+0x188>
   107de:	414787b3          	sub	a5,a5,s4
   107e2:	bfc9                	j	107b4 <sp_tiled_matmul_os+0x190>
   107e4:	77a2                	ld	a5,40(sp)
   107e6:	0f05                	addi	t5,t5,1
   107e8:	929e                	add	t0,t0,t2
   107ea:	9fc2                	add	t6,t6,a6
   107ec:	fbe794e3          	bne	a5,t5,10794 <sp_tiled_matmul_os+0x170>
   107f0:	16090e63          	beqz	s2,1096c <sp_tiled_matmul_os+0x348>
   107f4:	0038171b          	slliw	a4,a6,0x3
   107f8:	ecba                	sd	a4,88(sp)
   107fa:	7722                	ld	a4,40(sp)
   107fc:	47a1                	li	a5,8
   107fe:	7686                	ld	a3,96(sp)
   10800:	177d                	addi	a4,a4,-1
   10802:	f83a                	sd	a4,48(sp)
   10804:	7726                	ld	a4,104(sp)
   10806:	41478a33          	sub	s4,a5,s4
   1080a:	4a85                	li	s5,1
   1080c:	40e78733          	sub	a4,a5,a4
   10810:	f8ba                	sd	a4,112(sp)
   10812:	c0000737          	lui	a4,0xc0000
   10816:	177d                	addi	a4,a4,-1
   10818:	e0ba                	sd	a4,64(sp)
   1081a:	770e                	ld	a4,224(sp)
   1081c:	417686bb          	subw	a3,a3,s7
   10820:	00011b17          	auipc	s6,0x11
   10824:	9d8b3b03          	ld	s6,-1576(s6) # 211f8 <__SDATA_BEGIN__+0x8>
   10828:	5ffd                	li	t6,-1
   1082a:	8f99                	sub	a5,a5,a4
   1082c:	00391e9b          	slliw	t4,s2,0x3
   10830:	e036                	sd	a3,0(sp)
   10832:	020a1c13          	slli	s8,s4,0x20
   10836:	030a1b93          	slli	s7,s4,0x30
   1083a:	e402                	sd	zero,8(sp)
   1083c:	fc02                	sd	zero,56(sp)
   1083e:	033a9393          	slli	t2,s5,0x33
   10842:	023a9293          	slli	t0,s5,0x23
   10846:	020fdf93          	srli	t6,t6,0x20
   1084a:	845a                	mv	s0,s6
   1084c:	e4be                	sd	a5,72(sp)
   1084e:	77c2                	ld	a5,48(sp)
   10850:	7762                	ld	a4,56(sp)
   10852:	4321                	li	t1,8
   10854:	00e79363          	bne	a5,a4,1085a <sp_tiled_matmul_os+0x236>
   10858:	7346                	ld	t1,112(sp)
   1085a:	69c6                	ld	s3,80(sp)
   1085c:	fff90793          	addi	a5,s2,-1
   10860:	1342                	slli	t1,t1,0x30
   10862:	4481                	li	s1,0
   10864:	e83e                	sd	a5,16(sp)
   10866:	fff80f13          	addi	t5,a6,-1
   1086a:	6782                	ld	a5,0(sp)
   1086c:	01378dbb          	addw	s11,a5,s3
   10870:	06080263          	beqz	a6,108d4 <sp_tiled_matmul_os+0x2b0>
   10874:	67c2                	ld	a5,16(sp)
   10876:	4621                	li	a2,8
   10878:	00979363          	bne	a5,s1,1087e <sp_tiled_matmul_os+0x25a>
   1087c:	6626                	ld	a2,72(sp)
   1087e:	67e2                	ld	a5,24(sp)
   10880:	1602                	slli	a2,a2,0x20
   10882:	12079e63          	bnez	a5,109be <sp_tiled_matmul_os+0x39a>
   10886:	68a2                	ld	a7,8(sp)
   10888:	1d82                	slli	s11,s11,0x20
   1088a:	854e                	mv	a0,s3
   1088c:	4701                	li	a4,0
   1088e:	00c36e33          	or	t3,t1,a2
   10892:	020ddd93          	srli	s11,s11,0x20
   10896:	11e70f63          	beq	a4,t5,109b4 <sp_tiled_matmul_os+0x390>
   1089a:	87fe                	mv	a5,t6
   1089c:	869e                	mv	a3,t2
   1089e:	8d16                	mv	s10,t0
   108a0:	4ca1                	li	s9,8
   108a2:	00fe67b3          	or	a5,t3,a5
   108a6:	0cf4307b          	0xcf4307b
   108aa:	02051793          	slli	a5,a0,0x20
   108ae:	9381                	srli	a5,a5,0x20
   108b0:	8fd1                	or	a5,a5,a2
   108b2:	8fd5                	or	a5,a5,a3
   108b4:	02089693          	slli	a3,a7,0x20
   108b8:	9281                	srli	a3,a3,0x20
   108ba:	00d365b3          	or	a1,t1,a3
   108be:	01a5e5b3          	or	a1,a1,s10
   108c2:	c379                	beqz	a4,10988 <sp_tiled_matmul_os+0x364>
   108c4:	0af5b07b          	0xaf5b07b
   108c8:	0705                	addi	a4,a4,1
   108ca:	00ae853b          	addw	a0,t4,a0
   108ce:	28a1                	addiw	a7,a7,8
   108d0:	fce813e3          	bne	a6,a4,10896 <sp_tiled_matmul_os+0x272>
   108d4:	0485                	addi	s1,s1,1
   108d6:	29a1                	addiw	s3,s3,8
   108d8:	f89919e3          	bne	s2,s1,1086a <sp_tiled_matmul_os+0x246>
   108dc:	6702                	ld	a4,0(sp)
   108de:	66e6                	ld	a3,88(sp)
   108e0:	77e2                	ld	a5,56(sp)
   108e2:	00ee873b          	addw	a4,t4,a4
   108e6:	e03a                	sd	a4,0(sp)
   108e8:	6722                	ld	a4,8(sp)
   108ea:	0785                	addi	a5,a5,1
   108ec:	fc3e                	sd	a5,56(sp)
   108ee:	9f35                	addw	a4,a4,a3
   108f0:	e43a                	sd	a4,8(sp)
   108f2:	7722                	ld	a4,40(sp)
   108f4:	f4f71de3          	bne	a4,a5,1084e <sp_tiled_matmul_os+0x22a>
   108f8:	77e6                	ld	a5,120(sp)
   108fa:	cbad                	beqz	a5,1096c <sp_tiled_matmul_os+0x348>
   108fc:	8ebe                	mv	t4,a5
   108fe:	778e                	ld	a5,224(sp)
   10900:	4fa1                	li	t6,8
   10902:	6f32                	ld	t5,264(sp)
   10904:	40ff8333          	sub	t1,t6,a5
   10908:	77a6                	ld	a5,104(sp)
   1090a:	4505                	li	a0,1
   1090c:	0f16                	slli	t5,t5,0x5
   1090e:	1302                	slli	t1,t1,0x20
   10910:	4e01                	li	t3,0
   10912:	4881                	li	a7,0
   10914:	fff90813          	addi	a6,s2,-1
   10918:	40ff8fb3          	sub	t6,t6,a5
   1091c:	150e                	slli	a0,a0,0x23
   1091e:	77c2                	ld	a5,48(sp)
   10920:	45a1                	li	a1,8
   10922:	01179363          	bne	a5,a7,10928 <sp_tiled_matmul_os+0x304>
   10926:	85fe                	mv	a1,t6
   10928:	7786                	ld	a5,96(sp)
   1092a:	003e169b          	slliw	a3,t3,0x3
   1092e:	15c2                	slli	a1,a1,0x30
   10930:	9ebd                	addw	a3,a3,a5
   10932:	8676                	mv	a2,t4
   10934:	4701                	li	a4,0
   10936:	02069793          	slli	a5,a3,0x20
   1093a:	9381                	srli	a5,a5,0x20
   1093c:	8fcd                	or	a5,a5,a1
   1093e:	8fc9                	or	a5,a5,a0
   10940:	01071863          	bne	a4,a6,10950 <sp_tiled_matmul_os+0x32c>
   10944:	02069793          	slli	a5,a3,0x20
   10948:	9381                	srli	a5,a5,0x20
   1094a:	8fcd                	or	a5,a5,a1
   1094c:	0067e7b3          	or	a5,a5,t1
   10950:	06f6307b          	0x6f6307b
   10954:	0705                	addi	a4,a4,1
   10956:	26a1                	addiw	a3,a3,8
   10958:	02060613          	addi	a2,a2,32
   1095c:	fce91de3          	bne	s2,a4,10936 <sp_tiled_matmul_os+0x312>
   10960:	77a2                	ld	a5,40(sp)
   10962:	0885                	addi	a7,a7,1
   10964:	9efa                	add	t4,t4,t5
   10966:	9e4a                	add	t3,t3,s2
   10968:	fb179be3          	bne	a5,a7,1091e <sp_tiled_matmul_os+0x2fa>
   1096c:	646e                	ld	s0,216(sp)
   1096e:	64ce                	ld	s1,208(sp)
   10970:	692e                	ld	s2,200(sp)
   10972:	698e                	ld	s3,192(sp)
   10974:	7a6a                	ld	s4,184(sp)
   10976:	7aca                	ld	s5,176(sp)
   10978:	7b2a                	ld	s6,168(sp)
   1097a:	7b8a                	ld	s7,160(sp)
   1097c:	6c6a                	ld	s8,152(sp)
   1097e:	6cca                	ld	s9,144(sp)
   10980:	6d2a                	ld	s10,136(sp)
   10982:	6d8a                	ld	s11,128(sp)
   10984:	612d                	addi	sp,sp,224
   10986:	8082                	ret
   10988:	02051793          	slli	a5,a0,0x20
   1098c:	9381                	srli	a5,a5,0x20
   1098e:	020c9713          	slli	a4,s9,0x20
   10992:	00d366b3          	or	a3,t1,a3
   10996:	8fd1                	or	a5,a5,a2
   10998:	1cc2                	slli	s9,s9,0x30
   1099a:	8ed9                	or	a3,a3,a4
   1099c:	0197e7b3          	or	a5,a5,s9
   109a0:	08f6b07b          	0x8f6b07b
   109a4:	00ae853b          	addw	a0,t4,a0
   109a8:	28a1                	addiw	a7,a7,8
   109aa:	f35805e3          	beq	a6,s5,108d4 <sp_tiled_matmul_os+0x2b0>
   109ae:	4705                	li	a4,1
   109b0:	efe715e3          	bne	a4,t5,1089a <sp_tiled_matmul_os+0x276>
   109b4:	87ee                	mv	a5,s11
   109b6:	86de                	mv	a3,s7
   109b8:	8d62                	mv	s10,s8
   109ba:	8cd2                	mv	s9,s4
   109bc:	b5dd                	j	108a2 <sp_tiled_matmul_os+0x27e>
   109be:	7782                	ld	a5,32(sp)
   109c0:	cbc9                	beqz	a5,10a52 <sp_tiled_matmul_os+0x42e>
   109c2:	6786                	ld	a5,64(sp)
   109c4:	68a2                	ld	a7,8(sp)
   109c6:	85ce                	mv	a1,s3
   109c8:	00fdfdb3          	and	s11,s11,a5
   109cc:	020d9d13          	slli	s10,s11,0x20
   109d0:	4701                	li	a4,0
   109d2:	00c36e33          	or	t3,t1,a2
   109d6:	020d5d13          	srli	s10,s10,0x20
   109da:	05e70263          	beq	a4,t5,10a1e <sp_tiled_matmul_os+0x3fa>
   109de:	87fe                	mv	a5,t6
   109e0:	869e                	mv	a3,t2
   109e2:	8d96                	mv	s11,t0
   109e4:	4521                	li	a0,8
   109e6:	00fe67b3          	or	a5,t3,a5
   109ea:	0cfb307b          	0xcfb307b
   109ee:	02059793          	slli	a5,a1,0x20
   109f2:	9381                	srli	a5,a5,0x20
   109f4:	02089c93          	slli	s9,a7,0x20
   109f8:	8fd1                	or	a5,a5,a2
   109fa:	020cdc93          	srli	s9,s9,0x20
   109fe:	8fd5                	or	a5,a5,a3
   10a00:	019366b3          	or	a3,t1,s9
   10a04:	01b6e6b3          	or	a3,a3,s11
   10a08:	c305                	beqz	a4,10a28 <sp_tiled_matmul_os+0x404>
   10a0a:	0af6b07b          	0xaf6b07b
   10a0e:	0705                	addi	a4,a4,1
   10a10:	00be85bb          	addw	a1,t4,a1
   10a14:	28a1                	addiw	a7,a7,8
   10a16:	eae80fe3          	beq	a6,a4,108d4 <sp_tiled_matmul_os+0x2b0>
   10a1a:	fde712e3          	bne	a4,t5,109de <sp_tiled_matmul_os+0x3ba>
   10a1e:	87ea                	mv	a5,s10
   10a20:	86de                	mv	a3,s7
   10a22:	8de2                	mv	s11,s8
   10a24:	8552                	mv	a0,s4
   10a26:	b7c1                	j	109e6 <sp_tiled_matmul_os+0x3c2>
   10a28:	02059713          	slli	a4,a1,0x20
   10a2c:	9301                	srli	a4,a4,0x20
   10a2e:	02051793          	slli	a5,a0,0x20
   10a32:	01936cb3          	or	s9,t1,s9
   10a36:	8f51                	or	a4,a4,a2
   10a38:	1542                	slli	a0,a0,0x30
   10a3a:	0197ecb3          	or	s9,a5,s9
   10a3e:	8d59                	or	a0,a0,a4
   10a40:	08acb07b          	0x8acb07b
   10a44:	00be85bb          	addw	a1,t4,a1
   10a48:	28a1                	addiw	a7,a7,8
   10a4a:	e95805e3          	beq	a6,s5,108d4 <sp_tiled_matmul_os+0x2b0>
   10a4e:	4705                	li	a4,1
   10a50:	b769                	j	109da <sp_tiled_matmul_os+0x3b6>
   10a52:	6522                	ld	a0,8(sp)
   10a54:	1d82                	slli	s11,s11,0x20
   10a56:	85ce                	mv	a1,s3
   10a58:	4701                	li	a4,0
   10a5a:	00c36e33          	or	t3,t1,a2
   10a5e:	020ddd93          	srli	s11,s11,0x20
   10a62:	05e70863          	beq	a4,t5,10ab2 <sp_tiled_matmul_os+0x48e>
   10a66:	87fe                	mv	a5,t6
   10a68:	869e                	mv	a3,t2
   10a6a:	8d16                	mv	s10,t0
   10a6c:	4ca1                	li	s9,8
   10a6e:	00010897          	auipc	a7,0x10
   10a72:	78a88893          	addi	a7,a7,1930 # 211f8 <__SDATA_BEGIN__+0x8>
   10a76:	0008b883          	ld	a7,0(a7)
   10a7a:	00fe67b3          	or	a5,t3,a5
   10a7e:	0cf8b07b          	0xcf8b07b
   10a82:	02059793          	slli	a5,a1,0x20
   10a86:	9381                	srli	a5,a5,0x20
   10a88:	02051893          	slli	a7,a0,0x20
   10a8c:	8fd1                	or	a5,a5,a2
   10a8e:	0208d893          	srli	a7,a7,0x20
   10a92:	8fd5                	or	a5,a5,a3
   10a94:	011366b3          	or	a3,t1,a7
   10a98:	01a6e6b3          	or	a3,a3,s10
   10a9c:	c305                	beqz	a4,10abc <sp_tiled_matmul_os+0x498>
   10a9e:	0af6b07b          	0xaf6b07b
   10aa2:	0705                	addi	a4,a4,1
   10aa4:	00be85bb          	addw	a1,t4,a1
   10aa8:	2521                	addiw	a0,a0,8
   10aaa:	e2e805e3          	beq	a6,a4,108d4 <sp_tiled_matmul_os+0x2b0>
   10aae:	fbe71ce3          	bne	a4,t5,10a66 <sp_tiled_matmul_os+0x442>
   10ab2:	87ee                	mv	a5,s11
   10ab4:	86de                	mv	a3,s7
   10ab6:	8d62                	mv	s10,s8
   10ab8:	8cd2                	mv	s9,s4
   10aba:	bf55                	j	10a6e <sp_tiled_matmul_os+0x44a>
   10abc:	02059793          	slli	a5,a1,0x20
   10ac0:	9381                	srli	a5,a5,0x20
   10ac2:	020c9713          	slli	a4,s9,0x20
   10ac6:	011368b3          	or	a7,t1,a7
   10aca:	8fd1                	or	a5,a5,a2
   10acc:	1cc2                	slli	s9,s9,0x30
   10ace:	00e8e8b3          	or	a7,a7,a4
   10ad2:	0197e7b3          	or	a5,a5,s9
   10ad6:	08f8b07b          	0x8f8b07b
   10ada:	00be85bb          	addw	a1,t4,a1
   10ade:	2521                	addiw	a0,a0,8
   10ae0:	df580ae3          	beq	a6,s5,108d4 <sp_tiled_matmul_os+0x2b0>
   10ae4:	4705                	li	a4,1
   10ae6:	bfb5                	j	10a62 <sp_tiled_matmul_os+0x43e>
   10ae8:	4681                	li	a3,0
   10aea:	0a038363          	beqz	t2,10b90 <sp_tiled_matmul_os+0x56c>
   10aee:	00080737          	lui	a4,0x80
   10af2:	10170713          	addi	a4,a4,257 # 80101 <__global_pointer$+0x5e711>
   10af6:	1782                	slli	a5,a5,0x20
   10af8:	8fd9                	or	a5,a5,a4
   10afa:	00d7b07b          	0xd7b07b
   10afe:	77a2                	ld	a5,40(sp)
   10b00:	ba078ae3          	beqz	a5,106b4 <sp_tiled_matmul_os+0x90>
   10b04:	ba0908e3          	beqz	s2,106b4 <sp_tiled_matmul_os+0x90>
   10b08:	17fd                	addi	a5,a5,-1
   10b0a:	f83e                	sd	a5,48(sp)
   10b0c:	77a6                	ld	a5,104(sp)
   10b0e:	0013b393          	seqz	t2,t2
   10b12:	44a1                	li	s1,8
   10b14:	00389e9b          	slliw	t4,a7,0x3
   10b18:	00589f13          	slli	t5,a7,0x5
   10b1c:	100002b7          	lui	t0,0x10000
   10b20:	4f81                	li	t6,0
   10b22:	8c9d                	sub	s1,s1,a5
   10b24:	407003b3          	neg	t2,t2
   10b28:	77c2                	ld	a5,48(sp)
   10b2a:	4e21                	li	t3,8
   10b2c:	01f79363          	bne	a5,t6,10b32 <sp_tiled_matmul_os+0x50e>
   10b30:	8e26                	mv	t3,s1
   10b32:	007ff633          	and	a2,t6,t2
   10b36:	02860633          	mul	a2,a2,s0
   10b3a:	7782                	ld	a5,32(sp)
   10b3c:	0032951b          	slliw	a0,t0,0x3
   10b40:	1e42                	slli	t3,t3,0x30
   10b42:	834a                	mv	t1,s2
   10b44:	4681                	li	a3,0
   10b46:	0616                	slli	a2,a2,0x5
   10b48:	963e                	add	a2,a2,a5
   10b4a:	a02d                	j	10b74 <sp_tiled_matmul_os+0x550>
   10b4c:	00389713          	slli	a4,a7,0x3
   10b50:	0326f763          	bgeu	a3,s2,10b7e <sp_tiled_matmul_os+0x55a>
   10b54:	02051793          	slli	a5,a0,0x20
   10b58:	9381                	srli	a5,a5,0x20
   10b5a:	01c7e7b3          	or	a5,a5,t3
   10b5e:	1702                	slli	a4,a4,0x20
   10b60:	8f5d                	or	a4,a4,a5
   10b62:	04e6307b          	0x4e6307b
   10b66:	01d5053b          	addw	a0,a0,t4
   10b6a:	967a                	add	a2,a2,t5
   10b6c:	41130333          	sub	t1,t1,a7
   10b70:	0126fa63          	bgeu	a3,s2,10b84 <sp_tiled_matmul_os+0x560>
   10b74:	96c6                	add	a3,a3,a7
   10b76:	00331713          	slli	a4,t1,0x3
   10b7a:	fcd979e3          	bgeu	s2,a3,10b4c <sp_tiled_matmul_os+0x528>
   10b7e:	778e                	ld	a5,224(sp)
   10b80:	8f1d                	sub	a4,a4,a5
   10b82:	bfc9                	j	10b54 <sp_tiled_matmul_os+0x530>
   10b84:	77a2                	ld	a5,40(sp)
   10b86:	0f85                	addi	t6,t6,1
   10b88:	92ca                	add	t0,t0,s2
   10b8a:	f9f79fe3          	bne	a5,t6,10b28 <sp_tiled_matmul_os+0x504>
   10b8e:	b61d                	j	106b4 <sp_tiled_matmul_os+0x90>
   10b90:	00241693          	slli	a3,s0,0x2
   10b94:	bfa9                	j	10aee <sp_tiled_matmul_os+0x4ca>

0000000000010b96 <sp_tiled_matmul_ws>:
   10b96:	6302                	ld	t1,0(sp)
   10b98:	07c2                	slli	a5,a5,0x10
   10b9a:	8fd9                	or	a5,a5,a4
   10b9c:	0342                	slli	t1,t1,0x10
   10b9e:	01136333          	or	t1,t1,a7
   10ba2:	68a2                	ld	a7,8(sp)
   10ba4:	1802                	slli	a6,a6,0x20
   10ba6:	7e02                	ld	t3,32(sp)
   10ba8:	1882                	slli	a7,a7,0x20
   10baa:	05014e83          	lbu	t4,80(sp)
   10bae:	01136333          	or	t1,t1,a7
   10bb2:	0107e7b3          	or	a5,a5,a6
   10bb6:	12f3307b          	0x12f3307b
   10bba:	14b5307b          	0x14b5307b
   10bbe:	4781                	li	a5,0
   10bc0:	000e9363          	bnez	t4,10bc6 <sp_tiled_matmul_ws+0x30>
   10bc4:	87b2                	mv	a5,a2
   10bc6:	16d7b07b          	0x16d7b07b
   10bca:	67c2                	ld	a5,16(sp)
   10bcc:	6762                	ld	a4,24(sp)
   10bce:	18e7b07b          	0x18e7b07b
   10bd2:	05814783          	lbu	a5,88(sp)
   10bd6:	0017b793          	seqz	a5,a5
   10bda:	40f007b3          	neg	a5,a5
   10bde:	00fe7e33          	and	t3,t3,a5
   10be2:	77a2                	ld	a5,40(sp)
   10be4:	1afe307b          	0x1afe307b
   10be8:	06014783          	lbu	a5,96(sp)
   10bec:	04814703          	lbu	a4,72(sp)
   10bf0:	4585                	li	a1,1
   10bf2:	07a2                	slli	a5,a5,0x8
   10bf4:	070a                	slli	a4,a4,0x2
   10bf6:	8fd9                	or	a5,a5,a4
   10bf8:	04014703          	lbu	a4,64(sp)
   10bfc:	0706                	slli	a4,a4,0x1
   10bfe:	8fd9                	or	a5,a5,a4
   10c00:	000e8463          	beqz	t4,10c08 <sp_tiled_matmul_ws+0x72>
   10c04:	00163593          	seqz	a1,a2
   10c08:	03814703          	lbu	a4,56(sp)
   10c0c:	8fcd                	or	a5,a5,a1
   10c0e:	0017169b          	slliw	a3,a4,0x1
   10c12:	03014703          	lbu	a4,48(sp)
   10c16:	8f55                	or	a4,a4,a3
   10c18:	10e7b07b          	0x10e7b07b
   10c1c:	8082                	ret

0000000000010c1e <elem_t_bits_to_elem_t>:
   10c1e:	f0050553          	fmv.w.x	fa0,a0
   10c22:	8082                	ret

0000000000010c24 <elem_t_to_elem_t_bits>:
   10c24:	e0050553          	fmv.x.w	a0,fa0
   10c28:	2501                	sext.w	a0,a0
   10c2a:	8082                	ret

0000000000010c2c <acc_t_bits_to_acc_t>:
   10c2c:	f0050553          	fmv.w.x	fa0,a0
   10c30:	8082                	ret

0000000000010c32 <acc_t_to_acc_t_bits>:
   10c32:	e0050553          	fmv.x.w	a0,fa0
   10c36:	2501                	sext.w	a0,a0
   10c38:	8082                	ret

0000000000010c3a <elem_t_isnan>:
   10c3a:	e00507d3          	fmv.x.w	a5,fa0
   10c3e:	0ff00693          	li	a3,255
   10c42:	4501                	li	a0,0
   10c44:	0177d71b          	srliw	a4,a5,0x17
   10c48:	0ff77713          	zext.b	a4,a4
   10c4c:	2781                	sext.w	a5,a5
   10c4e:	00d70363          	beq	a4,a3,10c54 <elem_t_isnan+0x1a>
   10c52:	8082                	ret
   10c54:	17a2                	slli	a5,a5,0x28
   10c56:	00f03533          	snez	a0,a5
   10c5a:	8082                	ret

0000000000010c5c <acc_t_isnan>:
   10c5c:	e00507d3          	fmv.x.w	a5,fa0
   10c60:	0ff00693          	li	a3,255
   10c64:	4501                	li	a0,0
   10c66:	0177d71b          	srliw	a4,a5,0x17
   10c6a:	0ff77713          	zext.b	a4,a4
   10c6e:	2781                	sext.w	a5,a5
   10c70:	00d70363          	beq	a4,a3,10c76 <acc_t_isnan+0x1a>
   10c74:	8082                	ret
   10c76:	17a2                	slli	a5,a5,0x28
   10c78:	00f03533          	snez	a0,a5
   10c7c:	8082                	ret

0000000000010c7e <rand>:
   10c7e:	88818713          	addi	a4,gp,-1912 # 21278 <x.5219>
   10c82:	4308                	lw	a0,0(a4)
   10c84:	001967b7          	lui	a5,0x196
   10c88:	60d7879b          	addiw	a5,a5,1549
   10c8c:	02f5053b          	mulw	a0,a0,a5
   10c90:	3c6ef7b7          	lui	a5,0x3c6ef
   10c94:	35f7879b          	addiw	a5,a5,863
   10c98:	9d3d                	addw	a0,a0,a5
   10c9a:	c308                	sw	a0,0(a4)
   10c9c:	0185551b          	srliw	a0,a0,0x18
   10ca0:	8082                	ret

0000000000010ca2 <rand_double>:
   10ca2:	88818613          	addi	a2,gp,-1912 # 21278 <x.5219>
   10ca6:	421c                	lw	a5,0(a2)
   10ca8:	001966b7          	lui	a3,0x196
   10cac:	60d6869b          	addiw	a3,a3,1549
   10cb0:	02d787bb          	mulw	a5,a5,a3
   10cb4:	3c6ef5b7          	lui	a1,0x3c6ef
   10cb8:	35f5859b          	addiw	a1,a1,863
   10cbc:	9fad                	addw	a5,a5,a1
   10cbe:	02d7873b          	mulw	a4,a5,a3
   10cc2:	0187d79b          	srliw	a5,a5,0x18
   10cc6:	07f7f793          	andi	a5,a5,127
   10cca:	d20787d3          	fcvt.d.w	fa5,a5
   10cce:	9f2d                	addw	a4,a4,a1
   10cd0:	02d707bb          	mulw	a5,a4,a3
   10cd4:	0187571b          	srliw	a4,a4,0x18
   10cd8:	03f77713          	andi	a4,a4,63
   10cdc:	2705                	addiw	a4,a4,1
   10cde:	d2070553          	fcvt.d.w	fa0,a4
   10ce2:	1aa7f7d3          	fdiv.d	fa5,fa5,fa0
   10ce6:	9fad                	addw	a5,a5,a1
   10ce8:	02d786bb          	mulw	a3,a5,a3
   10cec:	0187d79b          	srliw	a5,a5,0x18
   10cf0:	07f7f793          	andi	a5,a5,127
   10cf4:	d2078553          	fcvt.d.w	fa0,a5
   10cf8:	9ead                	addw	a3,a3,a1
   10cfa:	0186d79b          	srliw	a5,a3,0x18
   10cfe:	03f7f793          	andi	a5,a5,63
   10d02:	2785                	addiw	a5,a5,1
   10d04:	d2078753          	fcvt.d.w	fa4,a5
   10d08:	c214                	sw	a3,0(a2)
   10d0a:	1ae57553          	fdiv.d	fa0,fa0,fa4
   10d0e:	0aa7f553          	fsub.d	fa0,fa5,fa0
   10d12:	8082                	ret

0000000000010d14 <sgemm_>:
   10d14:	dc010113          	addi	sp,sp,-576
   10d18:	22913423          	sd	s1,552(sp)
   10d1c:	f7e6                	sd	s9,488(sp)
   10d1e:	f3ea                	sd	s10,480(sp)
   10d20:	efee                	sd	s11,472(sp)
   10d22:	22113c23          	sd	ra,568(sp)
   10d26:	22813823          	sd	s0,560(sp)
   10d2a:	23213023          	sd	s2,544(sp)
   10d2e:	21313c23          	sd	s3,536(sp)
   10d32:	21413823          	sd	s4,528(sp)
   10d36:	21513423          	sd	s5,520(sp)
   10d3a:	21613023          	sd	s6,512(sp)
   10d3e:	ffde                	sd	s7,504(sp)
   10d40:	fbe2                	sd	s8,496(sp)
   10d42:	a7a2                	fsd	fs0,456(sp)
   10d44:	00054883          	lbu	a7,0(a0)
   10d48:	0007ac83          	lw	s9,0(a5) # 3c6ef000 <__BSS_END__+0x3c5d82d0>
   10d4c:	25013783          	ld	a5,592(sp)
   10d50:	0df8f893          	andi	a7,a7,223
   10d54:	04e00e13          	li	t3,78
   10d58:	f542                	sd	a6,168(sp)
   10d5a:	4204                	lw	s1,0(a2)
   10d5c:	0006a303          	lw	t1,0(a3) # 196000 <__BSS_END__+0x7f2d0>
   10d60:	00072d83          	lw	s11,0(a4)
   10d64:	0007ad03          	lw	s10,0(a5)
   10d68:	03c88463          	beq	a7,t3,10d90 <sgemm_+0x7c>
   10d6c:	05400793          	li	a5,84
   10d70:	12f88963          	beq	a7,a5,10ea2 <sgemm_+0x18e>
   10d74:	04300793          	li	a5,67
   10d78:	12f88563          	beq	a7,a5,10ea2 <sgemm_+0x18e>
   10d7c:	85aa                	mv	a1,a0
   10d7e:	0000d517          	auipc	a0,0xd
   10d82:	34250513          	addi	a0,a0,834 # 1e0c0 <__func__.4057+0x20>
   10d86:	0d1010ef          	jal	ra,12656 <printf>
   10d8a:	4505                	li	a0,1
   10d8c:	73b000ef          	jal	ra,11cc6 <exit>
   10d90:	0005c783          	lbu	a5,0(a1) # 3c6ef000 <__BSS_END__+0x3c5d82d0>
   10d94:	0df7f793          	andi	a5,a5,223
   10d98:	03178b63          	beq	a5,a7,10dce <sgemm_+0xba>
   10d9c:	4705                	li	a4,1
   10d9e:	f8ba                	sd	a4,112(sp)
   10da0:	05400713          	li	a4,84
   10da4:	8fa6                	mv	t6,s1
   10da6:	00010b17          	auipc	s6,0x10
   10daa:	45ab3b03          	ld	s6,1114(s6) # 21200 <__SDATA_BEGIN__+0x10>
   10dae:	10e78c63          	beq	a5,a4,10ec6 <sgemm_+0x1b2>
   10db2:	04300713          	li	a4,67
   10db6:	10e78863          	beq	a5,a4,10ec6 <sgemm_+0x1b2>
   10dba:	85aa                	mv	a1,a0
   10dbc:	0000d517          	auipc	a0,0xd
   10dc0:	32450513          	addi	a0,a0,804 # 1e0e0 <__func__.4057+0x40>
   10dc4:	093010ef          	jal	ra,12656 <printf>
   10dc8:	4505                	li	a0,1
   10dca:	6fd000ef          	jal	ra,11cc6 <exit>
   10dce:	00737893          	andi	a7,t1,7
   10dd2:	011037b3          	snez	a5,a7
   10dd6:	0074f613          	andi	a2,s1,7
   10dda:	007df693          	andi	a3,s11,7
   10dde:	00335893          	srli	a7,t1,0x3
   10de2:	98be                	add	a7,a7,a5
   10de4:	00c03733          	snez	a4,a2
   10de8:	00d037b3          	snez	a5,a3
   10dec:	0034d613          	srli	a2,s1,0x3
   10df0:	003dd693          	srli	a3,s11,0x3
   10df4:	96be                	add	a3,a3,a5
   10df6:	963a                	add	a2,a2,a4
   10df8:	00389813          	slli	a6,a7,0x3
   10dfc:	05700793          	li	a5,87
   10e00:	00361513          	slli	a0,a2,0x3
   10e04:	00369593          	slli	a1,a3,0x3
   10e08:	4a2d                	li	s4,11
   10e0a:	0107e463          	bltu	a5,a6,10e12 <sgemm_+0xfe>
   10e0e:	00385a13          	srli	s4,a6,0x3
   10e12:	05700793          	li	a5,87
   10e16:	4c2d                	li	s8,11
   10e18:	00a7e663          	bltu	a5,a0,10e24 <sgemm_+0x110>
   10e1c:	00361c13          	slli	s8,a2,0x3
   10e20:	003c5c13          	srli	s8,s8,0x3
   10e24:	0b700793          	li	a5,183
   10e28:	4bdd                	li	s7,23
   10e2a:	0cb7f8e3          	bgeu	a5,a1,116fa <sgemm_+0x9e6>
   10e2e:	003b9793          	slli	a5,s7,0x3
   10e32:	001a0f93          	addi	t6,s4,1
   10e36:	001b8293          	addi	t0,s7,1
   10e3a:	6f05                	lui	t5,0x1
   10e3c:	40000393          	li	t2,1024
   10e40:	001c0e13          	addi	t3,s8,1
   10e44:	014e0733          	add	a4,t3,s4
   10e48:	02f70733          	mul	a4,a4,a5
   10e4c:	4401                	li	s0,0
   10e4e:	00ef6d63          	bltu	t5,a4,10e68 <sgemm_+0x154>
   10e52:	034e0733          	mul	a4,t3,s4
   10e56:	070e                	slli	a4,a4,0x3
   10e58:	00e3e863          	bltu	t2,a4,10e68 <sgemm_+0x154>
   10e5c:	003e1713          	slli	a4,t3,0x3
   10e60:	00e56463          	bltu	a0,a4,10e68 <sgemm_+0x154>
   10e64:	8c72                	mv	s8,t3
   10e66:	4405                	li	s0,1
   10e68:	018f8733          	add	a4,t6,s8
   10e6c:	02f70e33          	mul	t3,a4,a5
   10e70:	17cf6863          	bltu	t5,t3,10fe0 <sgemm_+0x2cc>
   10e74:	003f9e13          	slli	t3,t6,0x3
   10e78:	03cc0eb3          	mul	t4,s8,t3
   10e7c:	17d3e263          	bltu	t2,t4,10fe0 <sgemm_+0x2cc>
   10e80:	17c86063          	bltu	a6,t3,10fe0 <sgemm_+0x2cc>
   10e84:	00878e13          	addi	t3,a5,8
   10e88:	03c70733          	mul	a4,a4,t3
   10e8c:	06ef63e3          	bltu	t5,a4,116f2 <sgemm_+0x9de>
   10e90:	07c5e1e3          	bltu	a1,t3,116f2 <sgemm_+0x9de>
   10e94:	8b96                	mv	s7,t0
   10e96:	8a7e                	mv	s4,t6
   10e98:	00329793          	slli	a5,t0,0x3
   10e9c:	0f85                	addi	t6,t6,1
   10e9e:	0285                	addi	t0,t0,1
   10ea0:	b745                	j	10e40 <sgemm_+0x12c>
   10ea2:	0005c783          	lbu	a5,0(a1)
   10ea6:	04e00713          	li	a4,78
   10eaa:	8fee                	mv	t6,s11
   10eac:	0df7f793          	andi	a5,a5,223
   10eb0:	08e78ee3          	beq	a5,a4,1174c <sgemm_+0xa38>
   10eb4:	f882                	sd	zero,112(sp)
   10eb6:	05400713          	li	a4,84
   10eba:	00010b17          	auipc	s6,0x10
   10ebe:	34eb3b03          	ld	s6,846(s6) # 21208 <__SDATA_BEGIN__+0x18>
   10ec2:	eee798e3          	bne	a5,a4,10db2 <sgemm_+0x9e>
   10ec6:	e59a                	sd	t1,200(sp)
   10ec8:	e102                	sd	zero,128(sp)
   10eca:	0074f613          	andi	a2,s1,7
   10ece:	00c037b3          	snez	a5,a2
   10ed2:	00737693          	andi	a3,t1,7
   10ed6:	007df713          	andi	a4,s11,7
   10eda:	0034d613          	srli	a2,s1,0x3
   10ede:	00d035b3          	snez	a1,a3
   10ee2:	963e                	add	a2,a2,a5
   10ee4:	00335693          	srli	a3,t1,0x3
   10ee8:	00e037b3          	snez	a5,a4
   10eec:	003dd713          	srli	a4,s11,0x3
   10ef0:	96ae                	add	a3,a3,a1
   10ef2:	973e                	add	a4,a4,a5
   10ef4:	00361e13          	slli	t3,a2,0x3
   10ef8:	05700793          	li	a5,87
   10efc:	00369893          	slli	a7,a3,0x3
   10f00:	00371593          	slli	a1,a4,0x3
   10f04:	442d                	li	s0,11
   10f06:	01c7e463          	bltu	a5,t3,10f0e <sgemm_+0x1fa>
   10f0a:	003e5413          	srli	s0,t3,0x3
   10f0e:	05700793          	li	a5,87
   10f12:	492d                	li	s2,11
   10f14:	0117e663          	bltu	a5,a7,10f20 <sgemm_+0x20c>
   10f18:	00369913          	slli	s2,a3,0x3
   10f1c:	00395913          	srli	s2,s2,0x3
   10f20:	0b700793          	li	a5,183
   10f24:	42dd                	li	t0,23
   10f26:	00b7e663          	bltu	a5,a1,10f32 <sgemm_+0x21e>
   10f2a:	00371293          	slli	t0,a4,0x3
   10f2e:	0032d293          	srli	t0,t0,0x3
   10f32:	00329793          	slli	a5,t0,0x3
   10f36:	00140e93          	addi	t4,s0,1
   10f3a:	00128813          	addi	a6,t0,1 # 10000001 <__BSS_END__+0xfee92d1>
   10f3e:	6f05                	lui	t5,0x1
   10f40:	40000a13          	li	s4,1024
   10f44:	00190513          	addi	a0,s2,1
   10f48:	008503b3          	add	t2,a0,s0
   10f4c:	02f383b3          	mul	t2,t2,a5
   10f50:	4981                	li	s3,0
   10f52:	007f6d63          	bltu	t5,t2,10f6c <sgemm_+0x258>
   10f56:	028503b3          	mul	t2,a0,s0
   10f5a:	038e                	slli	t2,t2,0x3
   10f5c:	007a6863          	bltu	s4,t2,10f6c <sgemm_+0x258>
   10f60:	00351393          	slli	t2,a0,0x3
   10f64:	0078e463          	bltu	a7,t2,10f6c <sgemm_+0x258>
   10f68:	892a                	mv	s2,a0
   10f6a:	4985                	li	s3,1
   10f6c:	012e8533          	add	a0,t4,s2
   10f70:	02a783b3          	mul	t2,a5,a0
   10f74:	047f6763          	bltu	t5,t2,10fc2 <sgemm_+0x2ae>
   10f78:	003e9393          	slli	t2,t4,0x3
   10f7c:	02790ab3          	mul	s5,s2,t2
   10f80:	055a6163          	bltu	s4,s5,10fc2 <sgemm_+0x2ae>
   10f84:	027e6f63          	bltu	t3,t2,10fc2 <sgemm_+0x2ae>
   10f88:	00878393          	addi	t2,a5,8
   10f8c:	02750533          	mul	a0,a0,t2
   10f90:	74af6b63          	bltu	t5,a0,116e6 <sgemm_+0x9d2>
   10f94:	7475e963          	bltu	a1,t2,116e6 <sgemm_+0x9d2>
   10f98:	8476                	mv	s0,t4
   10f9a:	00190513          	addi	a0,s2,1
   10f9e:	00381793          	slli	a5,a6,0x3
   10fa2:	008503b3          	add	t2,a0,s0
   10fa6:	02f383b3          	mul	t2,t2,a5
   10faa:	82c2                	mv	t0,a6
   10fac:	0e85                	addi	t4,t4,1
   10fae:	0805                	addi	a6,a6,1
   10fb0:	4981                	li	s3,0
   10fb2:	fa7f72e3          	bgeu	t5,t2,10f56 <sgemm_+0x242>
   10fb6:	012e8533          	add	a0,t4,s2
   10fba:	02a783b3          	mul	t2,a5,a0
   10fbe:	fa7f7de3          	bgeu	t5,t2,10f78 <sgemm_+0x264>
   10fc2:	01240533          	add	a0,s0,s2
   10fc6:	00878393          	addi	t2,a5,8
   10fca:	02750ab3          	mul	s5,a0,t2
   10fce:	3f5f6563          	bltu	t5,s5,113b8 <sgemm_+0x6a4>
   10fd2:	3e75e363          	bltu	a1,t2,113b8 <sgemm_+0x6a4>
   10fd6:	82c2                	mv	t0,a6
   10fd8:	00381793          	slli	a5,a6,0x3
   10fdc:	0805                	addi	a6,a6,1
   10fde:	b79d                	j	10f44 <sgemm_+0x230>
   10fe0:	018a0eb3          	add	t4,s4,s8
   10fe4:	00878713          	addi	a4,a5,8
   10fe8:	02ee8e33          	mul	t3,t4,a4
   10fec:	01cf6963          	bltu	t5,t3,10ffe <sgemm_+0x2ea>
   10ff0:	00e5e763          	bltu	a1,a4,10ffe <sgemm_+0x2ea>
   10ff4:	8b96                	mv	s7,t0
   10ff6:	00329793          	slli	a5,t0,0x3
   10ffa:	0285                	addi	t0,t0,1
   10ffc:	b591                	j	10e40 <sgemm_+0x12c>
   10ffe:	e40411e3          	bnez	s0,10e40 <sgemm_+0x12c>
   11002:	780a0163          	beqz	s4,11784 <sgemm_+0xa70>
   11006:	7a0c0a63          	beqz	s8,117ba <sgemm_+0xaa6>
   1100a:	7e0b8363          	beqz	s7,117f0 <sgemm_+0xadc>
   1100e:	003a1413          	slli	s0,s4,0x3
   11012:	78886263          	bltu	a6,s0,11796 <sgemm_+0xa82>
   11016:	003c1713          	slli	a4,s8,0x3
   1101a:	78e56763          	bltu	a0,a4,117a8 <sgemm_+0xa94>
   1101e:	74f5ea63          	bltu	a1,a5,11772 <sgemm_+0xa5e>
   11022:	03db8eb3          	mul	t4,s7,t4
   11026:	6f05                	lui	t5,0x1
   11028:	0e8e                	slli	t4,t4,0x3
   1102a:	7bdf6163          	bltu	t5,t4,117cc <sgemm_+0xab8>
   1102e:	038a0eb3          	mul	t4,s4,s8
   11032:	40000f13          	li	t5,1024
   11036:	0e8e                	slli	t4,t4,0x3
   11038:	7bdf6363          	bltu	t5,t4,117de <sgemm_+0xaca>
   1103c:	6ec1                	lui	t4,0x10
   1103e:	73da7163          	bgeu	s4,t4,11760 <sgemm_+0xa4c>
   11042:	71dc7f63          	bgeu	s8,t4,11760 <sgemm_+0xa4c>
   11046:	71dbfd63          	bgeu	s7,t4,11760 <sgemm_+0xa4c>
   1104a:	02887fb3          	remu	t6,a6,s0
   1104e:	fa52                	sd	s4,304(sp)
   11050:	02e57f33          	remu	t5,a0,a4
   11054:	01f03933          	snez	s2,t6
   11058:	02f5feb3          	remu	t4,a1,a5
   1105c:	01e033b3          	snez	t2,t5
   11060:	02885433          	divu	s0,a6,s0
   11064:	01d032b3          	snez	t0,t4
   11068:	02e55733          	divu	a4,a0,a4
   1106c:	944a                	add	s0,s0,s2
   1106e:	f222                	sd	s0,288(sp)
   11070:	02f5d7b3          	divu	a5,a1,a5
   11074:	971e                	add	a4,a4,t2
   11076:	f63a                	sd	a4,296(sp)
   11078:	9796                	add	a5,a5,t0
   1107a:	843e                	mv	s0,a5
   1107c:	000f8863          	beqz	t6,1108c <sgemm_+0x378>
   11080:	088e                	slli	a7,a7,0x3
   11082:	0038d893          	srli	a7,a7,0x3
   11086:	0348f7b3          	remu	a5,a7,s4
   1108a:	fa3e                	sd	a5,304(sp)
   1108c:	fe62                	sd	s8,312(sp)
   1108e:	000f0763          	beqz	t5,1109c <sgemm_+0x388>
   11092:	060e                	slli	a2,a2,0x3
   11094:	820d                	srli	a2,a2,0x3
   11096:	038677b3          	remu	a5,a2,s8
   1109a:	fe3e                	sd	a5,312(sp)
   1109c:	edde                	sd	s7,216(sp)
   1109e:	000e8763          	beqz	t4,110ac <sgemm_+0x398>
   110a2:	068e                	slli	a3,a3,0x3
   110a4:	828d                	srli	a3,a3,0x3
   110a6:	0376f7b3          	remu	a5,a3,s7
   110aa:	edbe                	sd	a5,216(sp)
   110ac:	406807b3          	sub	a5,a6,t1
   110b0:	fabe                	sd	a5,368(sp)
   110b2:	409507b3          	sub	a5,a0,s1
   110b6:	e6be                	sd	a5,328(sp)
   110b8:	41b587b3          	sub	a5,a1,s11
   110bc:	f1be                	sd	a5,224(sp)
   110be:	25813783          	ld	a5,600(sp)
   110c2:	0017b793          	seqz	a5,a5
   110c6:	fcbe                	sd	a5,120(sp)
   110c8:	25813783          	ld	a5,600(sp)
   110cc:	e2be                	sd	a5,320(sp)
   110ce:	62078c63          	beqz	a5,11706 <sgemm_+0x9f2>
   110d2:	4785                	li	a5,1
   110d4:	00010717          	auipc	a4,0x10
   110d8:	13473703          	ld	a4,308(a4) # 21208 <__SDATA_BEGIN__+0x18>
   110dc:	17c2                	slli	a5,a5,0x30
   110de:	00f7307b          	0xf7307b
   110e2:	478d                	li	a5,3
   110e4:	4701                	li	a4,0
   110e6:	00e7b07b          	0xe7b07b
   110ea:	07f00713          	li	a4,127
   110ee:	02049793          	slli	a5,s1,0x20
   110f2:	175e                	slli	a4,a4,0x37
   110f4:	83f9                	srli	a5,a5,0x1e
   110f6:	8fd9                	or	a5,a5,a4
   110f8:	4709                	li	a4,2
   110fa:	00f7307b          	0xf7307b
   110fe:	000806b7          	lui	a3,0x80
   11102:	10168793          	addi	a5,a3,257 # 80101 <__global_pointer$+0x5e711>
   11106:	020c9713          	slli	a4,s9,0x20
   1110a:	8f5d                	or	a4,a4,a5
   1110c:	002d9793          	slli	a5,s11,0x2
   11110:	00f7307b          	0xf7307b
   11114:	00010797          	auipc	a5,0x10
   11118:	1047b783          	ld	a5,260(a5) # 21218 <__SDATA_BEGIN__+0x28>
   1111c:	00249713          	slli	a4,s1,0x2
   11120:	00e7b07b          	0xe7b07b
   11124:	020d1793          	slli	a5,s10,0x20
   11128:	11168693          	addi	a3,a3,273
   1112c:	8fd5                	or	a5,a5,a3
   1112e:	00e7b07b          	0xe7b07b
   11132:	7792                	ld	a5,288(sp)
   11134:	24078763          	beqz	a5,11382 <sgemm_+0x66e>
   11138:	03448733          	mul	a4,s1,s4
   1113c:	eeba                	sd	a4,344(sp)
   1113e:	034d8733          	mul	a4,s11,s4
   11142:	eaba                	sd	a4,336(sp)
   11144:	7732                	ld	a4,296(sp)
   11146:	22070e63          	beqz	a4,11382 <sgemm_+0x66e>
   1114a:	8aa2                	mv	s5,s0
   1114c:	22040b63          	beqz	s0,11382 <sgemm_+0x66e>
   11150:	17fd                	addi	a5,a5,-1
   11152:	f5be                	sd	a5,232(sp)
   11154:	037487b3          	mul	a5,s1,s7
   11158:	177d                	addi	a4,a4,-1
   1115a:	005b9693          	slli	a3,s7,0x5
   1115e:	f9ba                	sd	a4,240(sp)
   11160:	fde2                	sd	s8,248(sp)
   11162:	fff40913          	addi	s2,s0,-1
   11166:	ed36                	sd	a3,152(sp)
   11168:	f902                	sd	zero,176(sp)
   1116a:	e502                	sd	zero,136(sp)
   1116c:	e102                	sd	zero,128(sp)
   1116e:	f2be                	sd	a5,352(sp)
   11170:	0796                	slli	a5,a5,0x5
   11172:	00010717          	auipc	a4,0x10
   11176:	0e672407          	flw	fs0,230(a4) # 21258 <mask+0x8>
   1117a:	e93e                	sd	a5,144(sp)
   1117c:	f16e                	sd	s11,160(sp)
   1117e:	8c26                	mv	s8,s1
   11180:	f6d2                	sd	s4,360(sp)
   11182:	fd5e                	sd	s7,184(sp)
   11184:	678a                	ld	a5,128(sp)
   11186:	772e                	ld	a4,232(sp)
   11188:	7dd2                	ld	s11,304(sp)
   1118a:	00e7f363          	bgeu	a5,a4,11190 <sgemm_+0x47c>
   1118e:	7db6                	ld	s11,360(sp)
   11190:	678a                	ld	a5,128(sp)
   11192:	772e                	ld	a4,232(sp)
   11194:	4481                	li	s1,0
   11196:	00e79363          	bne	a5,a4,1119c <sgemm_+0x488>
   1119a:	74d6                	ld	s1,368(sp)
   1119c:	672a                	ld	a4,136(sp)
   1119e:	77ca                	ld	a5,176(sp)
   111a0:	4b01                	li	s6,0
   111a2:	00571693          	slli	a3,a4,0x5
   111a6:	6716                	ld	a4,320(sp)
   111a8:	0796                	slli	a5,a5,0x5
   111aa:	4401                	li	s0,0
   111ac:	973e                	add	a4,a4,a5
   111ae:	e63a                	sd	a4,264(sp)
   111b0:	25813703          	ld	a4,600(sp)
   111b4:	8bea                	mv	s7,s10
   111b6:	f8da                	sd	s6,112(sp)
   111b8:	97ba                	add	a5,a5,a4
   111ba:	24013703          	ld	a4,576(sp)
   111be:	ea3e                	sd	a5,272(sp)
   111c0:	00d707b3          	add	a5,a4,a3
   111c4:	e23e                	sd	a5,256(sp)
   111c6:	87a6                	mv	a5,s1
   111c8:	84e6                	mv	s1,s9
   111ca:	8cbe                	mv	s9,a5
   111cc:	77c6                	ld	a5,112(sp)
   111ce:	7d72                	ld	s10,312(sp)
   111d0:	00579593          	slli	a1,a5,0x5
   111d4:	67b2                	ld	a5,264(sp)
   111d6:	97ae                	add	a5,a5,a1
   111d8:	e1be                	sd	a5,192(sp)
   111da:	67d2                	ld	a5,272(sp)
   111dc:	97ae                	add	a5,a5,a1
   111de:	e5be                	sd	a5,200(sp)
   111e0:	77ce                	ld	a5,240(sp)
   111e2:	00f47363          	bgeu	s0,a5,111e8 <sgemm_+0x4d4>
   111e6:	7d6e                	ld	s10,248(sp)
   111e8:	77ce                	ld	a5,240(sp)
   111ea:	4a01                	li	s4,0
   111ec:	00f41363          	bne	s0,a5,111f2 <sgemm_+0x4de>
   111f0:	6a36                	ld	s4,328(sp)
   111f2:	4981                	li	s3,0
   111f4:	08090163          	beqz	s2,11276 <sgemm_+0x562>
   111f8:	8f56                	mv	t5,s5
   111fa:	01597363          	bgeu	s2,s5,11200 <sgemm_+0x4ec>
   111fe:	8f4a                	mv	t5,s2
   11200:	77aa                	ld	a5,168(sp)
   11202:	6512                	ld	a0,256(sp)
   11204:	8b56                	mv	s6,s5
   11206:	95be                	add	a1,a1,a5
   11208:	8aa2                	mv	s5,s0
   1120a:	4981                	li	s3,0
   1120c:	847a                	mv	s0,t5
   1120e:	4e098f63          	beqz	s3,1170c <sgemm_+0x9f8>
   11212:	4601                	li	a2,0
   11214:	4f391d63          	bne	s2,s3,1170e <sgemm_+0x9fa>
   11218:	4785                	li	a5,1
   1121a:	f0be                	sd	a5,96(sp)
   1121c:	77e6                	ld	a5,120(sp)
   1121e:	f00b8653          	fmv.w.x	fa2,s7
   11222:	208405d3          	fmv.s	fa1,fs0
   11226:	e8be                	sd	a5,80(sp)
   11228:	778a                	ld	a5,160(sp)
   1122a:	f0048553          	fmv.w.x	fa0,s1
   1122e:	786a                	ld	a6,184(sp)
   11230:	e83e                	sd	a5,16(sp)
   11232:	778e                	ld	a5,224(sp)
   11234:	66ae                	ld	a3,200(sp)
   11236:	ee2e                	sd	a1,280(sp)
   11238:	e43e                	sd	a5,8(sp)
   1123a:	e9aa                	sd	a0,208(sp)
   1123c:	ec82                	sd	zero,88(sp)
   1123e:	e482                	sd	zero,72(sp)
   11240:	e082                	sd	zero,64(sp)
   11242:	fc02                	sd	zero,56(sp)
   11244:	f802                	sd	zero,48(sp)
   11246:	f462                	sd	s8,40(sp)
   11248:	f062                	sd	s8,32(sp)
   1124a:	ec62                	sd	s8,24(sp)
   1124c:	e052                	sd	s4,0(sp)
   1124e:	88e6                	mv	a7,s9
   11250:	87ea                	mv	a5,s10
   11252:	876e                	mv	a4,s11
   11254:	4601                	li	a2,0
   11256:	00190993          	addi	s3,s2,1
   1125a:	93dff0ef          	jal	ra,10b96 <sp_tiled_matmul_ws>
   1125e:	67ea                	ld	a5,152(sp)
   11260:	654e                	ld	a0,208(sp)
   11262:	65f2                	ld	a1,280(sp)
   11264:	953e                	add	a0,a0,a5
   11266:	67ca                	ld	a5,144(sp)
   11268:	95be                	add	a1,a1,a5
   1126a:	fa89e2e3          	bltu	s3,s0,1120e <sgemm_+0x4fa>
   1126e:	8456                	mv	s0,s5
   11270:	8ada                	mv	s5,s6
   11272:	0f59f063          	bgeu	s3,s5,11352 <sgemm_+0x63e>
   11276:	77ea                	ld	a5,184(sp)
   11278:	e9a2                	sd	s0,208(sp)
   1127a:	8b52                	mv	s6,s4
   1127c:	03378533          	mul	a0,a5,s3
   11280:	7796                	ld	a5,352(sp)
   11282:	846a                	mv	s0,s10
   11284:	033785b3          	mul	a1,a5,s3
   11288:	67aa                	ld	a5,136(sp)
   1128a:	953e                	add	a0,a0,a5
   1128c:	24013783          	ld	a5,576(sp)
   11290:	0516                	slli	a0,a0,0x5
   11292:	953e                	add	a0,a0,a5
   11294:	77c6                	ld	a5,112(sp)
   11296:	8d2a                	mv	s10,a0
   11298:	95be                	add	a1,a1,a5
   1129a:	77aa                	ld	a5,168(sp)
   1129c:	0596                	slli	a1,a1,0x5
   1129e:	95be                	add	a1,a1,a5
   112a0:	8a2e                	mv	s4,a1
   112a2:	a0b9                	j	112f0 <sgemm_+0x5dc>
   112a4:	4785                	li	a5,1
   112a6:	f0be                	sd	a5,96(sp)
   112a8:	77e6                	ld	a5,120(sp)
   112aa:	f00b8653          	fmv.w.x	fa2,s7
   112ae:	208405d3          	fmv.s	fa1,fs0
   112b2:	e8be                	sd	a5,80(sp)
   112b4:	778a                	ld	a5,160(sp)
   112b6:	f0048553          	fmv.w.x	fa0,s1
   112ba:	686e                	ld	a6,216(sp)
   112bc:	85d2                	mv	a1,s4
   112be:	856a                	mv	a0,s10
   112c0:	e83e                	sd	a5,16(sp)
   112c2:	ec82                	sd	zero,88(sp)
   112c4:	87a2                	mv	a5,s0
   112c6:	e482                	sd	zero,72(sp)
   112c8:	e082                	sd	zero,64(sp)
   112ca:	fc02                	sd	zero,56(sp)
   112cc:	f802                	sd	zero,48(sp)
   112ce:	f462                	sd	s8,40(sp)
   112d0:	f062                	sd	s8,32(sp)
   112d2:	ec62                	sd	s8,24(sp)
   112d4:	e402                	sd	zero,8(sp)
   112d6:	e05a                	sd	s6,0(sp)
   112d8:	88e6                	mv	a7,s9
   112da:	876e                	mv	a4,s11
   112dc:	4681                	li	a3,0
   112de:	8b9ff0ef          	jal	ra,10b96 <sp_tiled_matmul_ws>
   112e2:	67ea                	ld	a5,152(sp)
   112e4:	0985                	addi	s3,s3,1
   112e6:	9d3e                	add	s10,s10,a5
   112e8:	67ca                	ld	a5,144(sp)
   112ea:	9a3e                	add	s4,s4,a5
   112ec:	0759f263          	bgeu	s3,s5,11350 <sgemm_+0x63c>
   112f0:	678e                	ld	a5,192(sp)
   112f2:	0019b613          	seqz	a2,s3
   112f6:	40c00633          	neg	a2,a2
   112fa:	8e7d                	and	a2,a2,a5
   112fc:	fb3914e3          	bne	s2,s3,112a4 <sgemm_+0x590>
   11300:	4785                	li	a5,1
   11302:	f0be                	sd	a5,96(sp)
   11304:	77e6                	ld	a5,120(sp)
   11306:	f00b8653          	fmv.w.x	fa2,s7
   1130a:	208405d3          	fmv.s	fa1,fs0
   1130e:	e8be                	sd	a5,80(sp)
   11310:	778a                	ld	a5,160(sp)
   11312:	f0048553          	fmv.w.x	fa0,s1
   11316:	686e                	ld	a6,216(sp)
   11318:	e83e                	sd	a5,16(sp)
   1131a:	778e                	ld	a5,224(sp)
   1131c:	66ae                	ld	a3,200(sp)
   1131e:	85d2                	mv	a1,s4
   11320:	856a                	mv	a0,s10
   11322:	e43e                	sd	a5,8(sp)
   11324:	ec82                	sd	zero,88(sp)
   11326:	87a2                	mv	a5,s0
   11328:	e482                	sd	zero,72(sp)
   1132a:	e082                	sd	zero,64(sp)
   1132c:	fc02                	sd	zero,56(sp)
   1132e:	f802                	sd	zero,48(sp)
   11330:	f462                	sd	s8,40(sp)
   11332:	f062                	sd	s8,32(sp)
   11334:	ec62                	sd	s8,24(sp)
   11336:	e05a                	sd	s6,0(sp)
   11338:	88e6                	mv	a7,s9
   1133a:	876e                	mv	a4,s11
   1133c:	85bff0ef          	jal	ra,10b96 <sp_tiled_matmul_ws>
   11340:	67ea                	ld	a5,152(sp)
   11342:	00190993          	addi	s3,s2,1
   11346:	9d3e                	add	s10,s10,a5
   11348:	67ca                	ld	a5,144(sp)
   1134a:	9a3e                	add	s4,s4,a5
   1134c:	fb59e2e3          	bltu	s3,s5,112f0 <sgemm_+0x5dc>
   11350:	644e                	ld	s0,208(sp)
   11352:	77c6                	ld	a5,112(sp)
   11354:	776e                	ld	a4,248(sp)
   11356:	0405                	addi	s0,s0,1
   11358:	97ba                	add	a5,a5,a4
   1135a:	f8be                	sd	a5,112(sp)
   1135c:	77b2                	ld	a5,296(sp)
   1135e:	e68797e3          	bne	a5,s0,111cc <sgemm_+0x4b8>
   11362:	672a                	ld	a4,136(sp)
   11364:	66d6                	ld	a3,336(sp)
   11366:	678a                	ld	a5,128(sp)
   11368:	8ca6                	mv	s9,s1
   1136a:	9736                	add	a4,a4,a3
   1136c:	e53a                	sd	a4,136(sp)
   1136e:	66f6                	ld	a3,344(sp)
   11370:	774a                	ld	a4,176(sp)
   11372:	0785                	addi	a5,a5,1
   11374:	e13e                	sd	a5,128(sp)
   11376:	9736                	add	a4,a4,a3
   11378:	f93a                	sd	a4,176(sp)
   1137a:	7712                	ld	a4,288(sp)
   1137c:	8d5e                	mv	s10,s7
   1137e:	e0f713e3          	bne	a4,a5,11184 <sgemm_+0x470>
   11382:	0ff0000f          	fence
   11386:	23813083          	ld	ra,568(sp)
   1138a:	23013403          	ld	s0,560(sp)
   1138e:	22813483          	ld	s1,552(sp)
   11392:	22013903          	ld	s2,544(sp)
   11396:	21813983          	ld	s3,536(sp)
   1139a:	21013a03          	ld	s4,528(sp)
   1139e:	20813a83          	ld	s5,520(sp)
   113a2:	20013b03          	ld	s6,512(sp)
   113a6:	7bfe                	ld	s7,504(sp)
   113a8:	7c5e                	ld	s8,496(sp)
   113aa:	7cbe                	ld	s9,488(sp)
   113ac:	7d1e                	ld	s10,480(sp)
   113ae:	6dfe                	ld	s11,472(sp)
   113b0:	243e                	fld	fs0,456(sp)
   113b2:	24010113          	addi	sp,sp,576
   113b6:	8082                	ret
   113b8:	b80996e3          	bnez	s3,10f44 <sgemm_+0x230>
   113bc:	3c040463          	beqz	s0,11784 <sgemm_+0xa70>
   113c0:	3e090d63          	beqz	s2,117ba <sgemm_+0xaa6>
   113c4:	42028663          	beqz	t0,117f0 <sgemm_+0xadc>
   113c8:	00341993          	slli	s3,s0,0x3
   113cc:	3d3e6563          	bltu	t3,s3,11796 <sgemm_+0xa82>
   113d0:	00391813          	slli	a6,s2,0x3
   113d4:	3d08ea63          	bltu	a7,a6,117a8 <sgemm_+0xa94>
   113d8:	38f5ed63          	bltu	a1,a5,11772 <sgemm_+0xa5e>
   113dc:	02a28533          	mul	a0,t0,a0
   113e0:	6e85                	lui	t4,0x1
   113e2:	050e                	slli	a0,a0,0x3
   113e4:	3eaee463          	bltu	t4,a0,117cc <sgemm_+0xab8>
   113e8:	03240533          	mul	a0,s0,s2
   113ec:	40000e93          	li	t4,1024
   113f0:	050e                	slli	a0,a0,0x3
   113f2:	3eaee663          	bltu	t4,a0,117de <sgemm_+0xaca>
   113f6:	6541                	lui	a0,0x10
   113f8:	36a47463          	bgeu	s0,a0,11760 <sgemm_+0xa4c>
   113fc:	36a97263          	bgeu	s2,a0,11760 <sgemm_+0xa4c>
   11400:	36a2f063          	bgeu	t0,a0,11760 <sgemm_+0xa4c>
   11404:	00010517          	auipc	a0,0x10
   11408:	e1c53503          	ld	a0,-484(a0) # 21220 <__SDATA_BEGIN__+0x30>
   1140c:	fb2a                	sd	a0,432(sp)
   1140e:	00555537          	lui	a0,0x555
   11412:	04350513          	addi	a0,a0,67 # 555043 <__BSS_END__+0x43e313>
   11416:	1aa12c23          	sw	a0,440(sp)
   1141a:	7546                	ld	a0,112(sp)
   1141c:	c501                	beqz	a0,11424 <sgemm_+0x710>
   1141e:	650a                	ld	a0,128(sp)
   11420:	3e051163          	bnez	a0,11802 <sgemm_+0xaee>
   11424:	033e73b3          	remu	t2,t3,s3
   11428:	fd22                	sd	s0,184(sp)
   1142a:	0308ff33          	remu	t5,a7,a6
   1142e:	00703ab3          	snez	s5,t2
   11432:	02f5feb3          	remu	t4,a1,a5
   11436:	01e03a33          	snez	s4,t5
   1143a:	033e5533          	divu	a0,t3,s3
   1143e:	01d039b3          	snez	s3,t4
   11442:	0308d833          	divu	a6,a7,a6
   11446:	9556                	add	a0,a0,s5
   11448:	e52a                	sd	a0,136(sp)
   1144a:	02f5d7b3          	divu	a5,a1,a5
   1144e:	01480533          	add	a0,a6,s4
   11452:	f12a                	sd	a0,160(sp)
   11454:	97ce                	add	a5,a5,s3
   11456:	f93e                	sd	a5,176(sp)
   11458:	00038763          	beqz	t2,11466 <sgemm_+0x752>
   1145c:	060e                	slli	a2,a2,0x3
   1145e:	820d                	srli	a2,a2,0x3
   11460:	028677b3          	remu	a5,a2,s0
   11464:	fd3e                	sd	a5,184(sp)
   11466:	e1ca                	sd	s2,192(sp)
   11468:	000f0763          	beqz	t5,11476 <sgemm_+0x762>
   1146c:	068e                	slli	a3,a3,0x3
   1146e:	828d                	srli	a3,a3,0x3
   11470:	0326f7b3          	remu	a5,a3,s2
   11474:	e1be                	sd	a5,192(sp)
   11476:	fc96                	sd	t0,120(sp)
   11478:	000e8763          	beqz	t4,11486 <sgemm_+0x772>
   1147c:	070e                	slli	a4,a4,0x3
   1147e:	830d                	srli	a4,a4,0x3
   11480:	025777b3          	remu	a5,a4,t0
   11484:	fcbe                	sd	a5,120(sp)
   11486:	409e07b3          	sub	a5,t3,s1
   1148a:	e6be                	sd	a5,328(sp)
   1148c:	406887b3          	sub	a5,a7,t1
   11490:	eabe                	sd	a5,336(sp)
   11492:	41b587b3          	sub	a5,a1,s11
   11496:	eebe                	sd	a5,344(sp)
   11498:	25813783          	ld	a5,600(sp)
   1149c:	0017b793          	seqz	a5,a5
   114a0:	f2be                	sd	a5,352(sp)
   114a2:	25813783          	ld	a5,600(sp)
   114a6:	e9be                	sd	a5,208(sp)
   114a8:	24078263          	beqz	a5,116ec <sgemm_+0x9d8>
   114ac:	4785                	li	a5,1
   114ae:	17c2                	slli	a5,a5,0x30
   114b0:	00fb307b          	0xfb307b
   114b4:	478d                	li	a5,3
   114b6:	4701                	li	a4,0
   114b8:	00e7b07b          	0xe7b07b
   114bc:	07f00713          	li	a4,127
   114c0:	02031793          	slli	a5,t1,0x20
   114c4:	175e                	slli	a4,a4,0x37
   114c6:	83f9                	srli	a5,a5,0x1e
   114c8:	8fd9                	or	a5,a5,a4
   114ca:	4709                	li	a4,2
   114cc:	00f7307b          	0xf7307b
   114d0:	00010717          	auipc	a4,0x10
   114d4:	d5873703          	ld	a4,-680(a4) # 21228 <__SDATA_BEGIN__+0x38>
   114d8:	002f9793          	slli	a5,t6,0x2
   114dc:	00f7307b          	0xf7307b
   114e0:	662e                	ld	a2,200(sp)
   114e2:	000806b7          	lui	a3,0x80
   114e6:	10968793          	addi	a5,a3,265 # 80109 <__global_pointer$+0x5e719>
   114ea:	020c9713          	slli	a4,s9,0x20
   114ee:	8f5d                	or	a4,a4,a5
   114f0:	00261793          	slli	a5,a2,0x2
   114f4:	00f7307b          	0xf7307b
   114f8:	020d1793          	slli	a5,s10,0x20
   114fc:	11168693          	addi	a3,a3,273
   11500:	8fd5                	or	a5,a5,a3
   11502:	00231713          	slli	a4,t1,0x2
   11506:	00e7b07b          	0xe7b07b
   1150a:	67aa                	ld	a5,136(sp)
   1150c:	e6078be3          	beqz	a5,11382 <sgemm_+0x66e>
   11510:	02830733          	mul	a4,t1,s0
   11514:	f6ba                	sd	a4,360(sp)
   11516:	028f8733          	mul	a4,t6,s0
   1151a:	feba                	sd	a4,376(sp)
   1151c:	03260733          	mul	a4,a2,s2
   11520:	faba                	sd	a4,368(sp)
   11522:	770a                	ld	a4,160(sp)
   11524:	e4070fe3          	beqz	a4,11382 <sgemm_+0x66e>
   11528:	76ca                	ld	a3,176(sp)
   1152a:	e4068ce3          	beqz	a3,11382 <sgemm_+0x66e>
   1152e:	17fd                	addi	a5,a5,-1
   11530:	177d                	addi	a4,a4,-1
   11532:	e93e                	sd	a5,144(sp)
   11534:	025f87b3          	mul	a5,t6,t0
   11538:	ed3a                	sd	a4,152(sp)
   1153a:	00529593          	slli	a1,t0,0x5
   1153e:	4f01                	li	t5,0
   11540:	4e81                	li	t4,0
   11542:	eb2e                	sd	a1,400(sp)
   11544:	4e01                	li	t3,0
   11546:	4581                	li	a1,0
   11548:	16fd                	addi	a3,a3,-1
   1154a:	f37e                	sd	t6,416(sp)
   1154c:	02560733          	mul	a4,a2,t0
   11550:	0796                	slli	a5,a5,0x5
   11552:	e33e                	sd	a5,384(sp)
   11554:	87ca                	mv	a5,s2
   11556:	f716                	sd	t0,424(sp)
   11558:	8b76                	mv	s6,t4
   1155a:	897a                	mv	s2,t5
   1155c:	8ea2                	mv	t4,s0
   1155e:	00010517          	auipc	a0,0x10
   11562:	cfa52407          	flw	fs0,-774(a0) # 21258 <mask+0x8>
   11566:	ef36                	sd	a3,408(sp)
   11568:	0716                	slli	a4,a4,0x5
   1156a:	e73a                	sd	a4,392(sp)
   1156c:	83ea                	mv	t2,s10
   1156e:	8fe6                	mv	t6,s9
   11570:	82ae                	mv	t0,a1
   11572:	8472                	mv	s0,t3
   11574:	8f3e                	mv	t5,a5
   11576:	67ca                	ld	a5,144(sp)
   11578:	7d6a                	ld	s10,184(sp)
   1157a:	00fb7363          	bgeu	s6,a5,11580 <sgemm_+0x86c>
   1157e:	8d76                	mv	s10,t4
   11580:	67ca                	ld	a5,144(sp)
   11582:	4881                	li	a7,0
   11584:	00fb1363          	bne	s6,a5,1158a <sgemm_+0x876>
   11588:	68b6                	ld	a7,328(sp)
   1158a:	664e                	ld	a2,208(sp)
   1158c:	00529793          	slli	a5,t0,0x5
   11590:	00591693          	slli	a3,s2,0x5
   11594:	963e                	add	a2,a2,a5
   11596:	f5b2                	sd	a2,232(sp)
   11598:	25813603          	ld	a2,600(sp)
   1159c:	00541713          	slli	a4,s0,0x5
   115a0:	4c01                	li	s8,0
   115a2:	97b2                	add	a5,a5,a2
   115a4:	fdbe                	sd	a5,248(sp)
   115a6:	87b6                	mv	a5,a3
   115a8:	76aa                	ld	a3,168(sp)
   115aa:	4b81                	li	s7,0
   115ac:	4981                	li	s3,0
   115ae:	97b6                	add	a5,a5,a3
   115b0:	f1be                	sd	a5,224(sp)
   115b2:	00d707b3          	add	a5,a4,a3
   115b6:	edbe                	sd	a5,216(sp)
   115b8:	87fa                	mv	a5,t5
   115ba:	8e22                	mv	t3,s0
   115bc:	8f4a                	mv	t5,s2
   115be:	876a                	mv	a4,s10
   115c0:	891a                	mv	s2,t1
   115c2:	835a                	mv	t1,s6
   115c4:	8b3e                	mv	s6,a5
   115c6:	77ae                	ld	a5,232(sp)
   115c8:	005c1493          	slli	s1,s8,0x5
   115cc:	6d0e                	ld	s10,192(sp)
   115ce:	00f48633          	add	a2,s1,a5
   115d2:	77ee                	ld	a5,248(sp)
   115d4:	97a6                	add	a5,a5,s1
   115d6:	f9be                	sd	a5,240(sp)
   115d8:	67ea                	ld	a5,152(sp)
   115da:	00f9f363          	bgeu	s3,a5,115e0 <sgemm_+0x8cc>
   115de:	8d5a                	mv	s10,s6
   115e0:	67ea                	ld	a5,152(sp)
   115e2:	4401                	li	s0,0
   115e4:	00f99363          	bne	s3,a5,115ea <sgemm_+0x8d6>
   115e8:	6456                	ld	s0,336(sp)
   115ea:	24013783          	ld	a5,576(sp)
   115ee:	005b9a93          	slli	s5,s7,0x5
   115f2:	e25a                	sd	s6,256(sp)
   115f4:	e662                	sd	s8,264(sp)
   115f6:	ea5e                	sd	s7,272(sp)
   115f8:	8c4e                	mv	s8,s3
   115fa:	8b22                	mv	s6,s0
   115fc:	89ea                	mv	s3,s10
   115fe:	7d8e                	ld	s11,224(sp)
   11600:	6cee                	ld	s9,216(sp)
   11602:	9abe                	add	s5,s5,a5
   11604:	94be                	add	s1,s1,a5
   11606:	4a01                	li	s4,0
   11608:	8bf6                	mv	s7,t4
   1160a:	8d1e                	mv	s10,t2
   1160c:	847e                	mv	s0,t6
   1160e:	a059                	j	11694 <sgemm_+0x980>
   11610:	0cfa7763          	bgeu	s4,a5,116de <sgemm_+0x9ca>
   11614:	783a                	ld	a6,424(sp)
   11616:	4681                	li	a3,0
   11618:	4781                	li	a5,0
   1161a:	75c6                	ld	a1,112(sp)
   1161c:	8566                	mv	a0,s9
   1161e:	c191                	beqz	a1,11622 <sgemm_+0x90e>
   11620:	856e                	mv	a0,s11
   11622:	6e8a                	ld	t4,128(sp)
   11624:	85a6                	mv	a1,s1
   11626:	000e8363          	beqz	t4,1162c <sgemm_+0x918>
   1162a:	85d6                	mv	a1,s5
   1162c:	f61a                	sd	t1,296(sp)
   1162e:	4305                	li	t1,1
   11630:	f09a                	sd	t1,96(sp)
   11632:	7316                	ld	t1,352(sp)
   11634:	f00d0653          	fmv.w.x	fa2,s10
   11638:	f00405d3          	fmv.w.x	fa1,s0
   1163c:	e89a                	sd	t1,80(sp)
   1163e:	630a                	ld	t1,128(sp)
   11640:	20840553          	fmv.s	fa0,fs0
   11644:	e43e                	sd	a5,8(sp)
   11646:	fc1a                	sd	t1,56(sp)
   11648:	7346                	ld	t1,112(sp)
   1164a:	87ce                	mv	a5,s3
   1164c:	f44a                	sd	s2,40(sp)
   1164e:	f81a                	sd	t1,48(sp)
   11650:	632e                	ld	t1,200(sp)
   11652:	f04a                	sd	s2,32(sp)
   11654:	e05a                	sd	s6,0(sp)
   11656:	ec1a                	sd	t1,24(sp)
   11658:	731a                	ld	t1,416(sp)
   1165a:	e2fa                	sd	t5,320(sp)
   1165c:	fe72                	sd	t3,312(sp)
   1165e:	e81a                	sd	t1,16(sp)
   11660:	fa16                	sd	t0,304(sp)
   11662:	f246                	sd	a7,288(sp)
   11664:	ee3a                	sd	a4,280(sp)
   11666:	ec82                	sd	zero,88(sp)
   11668:	e482                	sd	zero,72(sp)
   1166a:	e082                	sd	zero,64(sp)
   1166c:	d2aff0ef          	jal	ra,10b96 <sp_tiled_matmul_ws>
   11670:	67da                	ld	a5,400(sp)
   11672:	673a                	ld	a4,392(sp)
   11674:	0a05                	addi	s4,s4,1
   11676:	9abe                	add	s5,s5,a5
   11678:	94ba                	add	s1,s1,a4
   1167a:	9cbe                	add	s9,s9,a5
   1167c:	671a                	ld	a4,384(sp)
   1167e:	77ca                	ld	a5,176(sp)
   11680:	7892                	ld	a7,288(sp)
   11682:	9dba                	add	s11,s11,a4
   11684:	7332                	ld	t1,296(sp)
   11686:	6772                	ld	a4,280(sp)
   11688:	72d2                	ld	t0,304(sp)
   1168a:	7e72                	ld	t3,312(sp)
   1168c:	6f16                	ld	t5,320(sp)
   1168e:	4601                	li	a2,0
   11690:	01478963          	beq	a5,s4,116a2 <sgemm_+0x98e>
   11694:	67fa                	ld	a5,408(sp)
   11696:	f6fa1de3          	bne	s4,a5,11610 <sgemm_+0x8fc>
   1169a:	7866                	ld	a6,120(sp)
   1169c:	76ce                	ld	a3,240(sp)
   1169e:	67f6                	ld	a5,344(sp)
   116a0:	bfad                	j	1161a <sgemm_+0x906>
   116a2:	77d6                	ld	a5,368(sp)
   116a4:	8ede                	mv	t4,s7
   116a6:	6bd2                	ld	s7,272(sp)
   116a8:	89e2                	mv	s3,s8
   116aa:	6b12                	ld	s6,256(sp)
   116ac:	6c32                	ld	s8,264(sp)
   116ae:	9bbe                	add	s7,s7,a5
   116b0:	778a                	ld	a5,160(sp)
   116b2:	0985                	addi	s3,s3,1
   116b4:	8fa2                	mv	t6,s0
   116b6:	83ea                	mv	t2,s10
   116b8:	9c5a                	add	s8,s8,s6
   116ba:	f13796e3          	bne	a5,s3,115c6 <sgemm_+0x8b2>
   116be:	87da                	mv	a5,s6
   116c0:	8b1a                	mv	s6,t1
   116c2:	834a                	mv	t1,s2
   116c4:	897a                	mv	s2,t5
   116c6:	8f3e                	mv	t5,a5
   116c8:	77f6                	ld	a5,376(sp)
   116ca:	0b05                	addi	s6,s6,1
   116cc:	9976                	add	s2,s2,t4
   116ce:	00fe0433          	add	s0,t3,a5
   116d2:	77b6                	ld	a5,360(sp)
   116d4:	92be                	add	t0,t0,a5
   116d6:	67aa                	ld	a5,136(sp)
   116d8:	e9679fe3          	bne	a5,s6,11576 <sgemm_+0x862>
   116dc:	b15d                	j	11382 <sgemm_+0x66e>
   116de:	7866                	ld	a6,120(sp)
   116e0:	4681                	li	a3,0
   116e2:	4781                	li	a5,0
   116e4:	bf1d                	j	1161a <sgemm_+0x906>
   116e6:	8476                	mv	s0,t4
   116e8:	0e85                	addi	t4,t4,1
   116ea:	b8a9                	j	10f44 <sgemm_+0x230>
   116ec:	4785                	li	a5,1
   116ee:	e9be                	sd	a5,208(sp)
   116f0:	bb75                	j	114ac <sgemm_+0x798>
   116f2:	8a7e                	mv	s4,t6
   116f4:	0f85                	addi	t6,t6,1
   116f6:	f4aff06f          	j	10e40 <sgemm_+0x12c>
   116fa:	00369b93          	slli	s7,a3,0x3
   116fe:	003bdb93          	srli	s7,s7,0x3
   11702:	f2cff06f          	j	10e2e <sgemm_+0x11a>
   11706:	4785                	li	a5,1
   11708:	e2be                	sd	a5,320(sp)
   1170a:	b2e1                	j	110d2 <sgemm_+0x3be>
   1170c:	660e                	ld	a2,192(sp)
   1170e:	4785                	li	a5,1
   11710:	f0be                	sd	a5,96(sp)
   11712:	77e6                	ld	a5,120(sp)
   11714:	f00b8653          	fmv.w.x	fa2,s7
   11718:	208405d3          	fmv.s	fa1,fs0
   1171c:	e8be                	sd	a5,80(sp)
   1171e:	778a                	ld	a5,160(sp)
   11720:	f0048553          	fmv.w.x	fa0,s1
   11724:	786a                	ld	a6,184(sp)
   11726:	e83e                	sd	a5,16(sp)
   11728:	ee2e                	sd	a1,280(sp)
   1172a:	e9aa                	sd	a0,208(sp)
   1172c:	ec82                	sd	zero,88(sp)
   1172e:	e482                	sd	zero,72(sp)
   11730:	e082                	sd	zero,64(sp)
   11732:	fc02                	sd	zero,56(sp)
   11734:	f802                	sd	zero,48(sp)
   11736:	f462                	sd	s8,40(sp)
   11738:	f062                	sd	s8,32(sp)
   1173a:	ec62                	sd	s8,24(sp)
   1173c:	e402                	sd	zero,8(sp)
   1173e:	e052                	sd	s4,0(sp)
   11740:	88e6                	mv	a7,s9
   11742:	87ea                	mv	a5,s10
   11744:	876e                	mv	a4,s11
   11746:	4681                	li	a3,0
   11748:	0985                	addi	s3,s3,1
   1174a:	be01                	j	1125a <sgemm_+0x546>
   1174c:	4785                	li	a5,1
   1174e:	e5ee                	sd	s11,200(sp)
   11750:	00010b17          	auipc	s6,0x10
   11754:	ac0b3b03          	ld	s6,-1344(s6) # 21210 <__SDATA_BEGIN__+0x20>
   11758:	f882                	sd	zero,112(sp)
   1175a:	e13e                	sd	a5,128(sp)
   1175c:	f6eff06f          	j	10eca <sgemm_+0x1b6>
   11760:	0000d517          	auipc	a0,0xd
   11764:	b0050513          	addi	a0,a0,-1280 # 1e260 <__func__.4057+0x1c0>
   11768:	6ef000ef          	jal	ra,12656 <printf>
   1176c:	4505                	li	a0,1
   1176e:	558000ef          	jal	ra,11cc6 <exit>
   11772:	0000d517          	auipc	a0,0xd
   11776:	a4650513          	addi	a0,a0,-1466 # 1e1b8 <__func__.4057+0x118>
   1177a:	6dd000ef          	jal	ra,12656 <printf>
   1177e:	4505                	li	a0,1
   11780:	546000ef          	jal	ra,11cc6 <exit>
   11784:	0000d517          	auipc	a0,0xd
   11788:	97c50513          	addi	a0,a0,-1668 # 1e100 <__func__.4057+0x60>
   1178c:	6cb000ef          	jal	ra,12656 <printf>
   11790:	4505                	li	a0,1
   11792:	534000ef          	jal	ra,11cc6 <exit>
   11796:	0000d517          	auipc	a0,0xd
   1179a:	9b250513          	addi	a0,a0,-1614 # 1e148 <__func__.4057+0xa8>
   1179e:	6b9000ef          	jal	ra,12656 <printf>
   117a2:	4505                	li	a0,1
   117a4:	522000ef          	jal	ra,11cc6 <exit>
   117a8:	0000d517          	auipc	a0,0xd
   117ac:	9d850513          	addi	a0,a0,-1576 # 1e180 <__func__.4057+0xe0>
   117b0:	6a7000ef          	jal	ra,12656 <printf>
   117b4:	4505                	li	a0,1
   117b6:	510000ef          	jal	ra,11cc6 <exit>
   117ba:	0000d517          	auipc	a0,0xd
   117be:	95e50513          	addi	a0,a0,-1698 # 1e118 <__func__.4057+0x78>
   117c2:	695000ef          	jal	ra,12656 <printf>
   117c6:	4505                	li	a0,1
   117c8:	4fe000ef          	jal	ra,11cc6 <exit>
   117cc:	0000d517          	auipc	a0,0xd
   117d0:	a2450513          	addi	a0,a0,-1500 # 1e1f0 <__func__.4057+0x150>
   117d4:	683000ef          	jal	ra,12656 <printf>
   117d8:	4505                	li	a0,1
   117da:	4ec000ef          	jal	ra,11cc6 <exit>
   117de:	0000d517          	auipc	a0,0xd
   117e2:	a5250513          	addi	a0,a0,-1454 # 1e230 <__func__.4057+0x190>
   117e6:	671000ef          	jal	ra,12656 <printf>
   117ea:	4505                	li	a0,1
   117ec:	4da000ef          	jal	ra,11cc6 <exit>
   117f0:	0000d517          	auipc	a0,0xd
   117f4:	94050513          	addi	a0,a0,-1728 # 1e130 <__func__.4057+0x90>
   117f8:	65f000ef          	jal	ra,12656 <printf>
   117fc:	4505                	li	a0,1
   117fe:	4c8000ef          	jal	ra,11cc6 <exit>
   11802:	4685                	li	a3,1
   11804:	4605                	li	a2,1
   11806:	1b4c                	addi	a1,sp,436
   11808:	0000d517          	auipc	a0,0xd
   1180c:	ac050513          	addi	a0,a0,-1344 # 1e2c8 <__func__.4057+0x228>
   11810:	647000ef          	jal	ra,12656 <printf>
   11814:	4505                	li	a0,1
   11816:	4b0000ef          	jal	ra,11cc6 <exit>

000000000001181a <sgemv_>:
   1181a:	7165                	addi	sp,sp,-400
   1181c:	fe66                	sd	s9,312(sp)
   1181e:	e706                	sd	ra,392(sp)
   11820:	e322                	sd	s0,384(sp)
   11822:	fea6                	sd	s1,376(sp)
   11824:	faca                	sd	s2,368(sp)
   11826:	f6ce                	sd	s3,360(sp)
   11828:	f2d2                	sd	s4,352(sp)
   1182a:	eed6                	sd	s5,344(sp)
   1182c:	eada                	sd	s6,336(sp)
   1182e:	e6de                	sd	s7,328(sp)
   11830:	e2e2                	sd	s8,320(sp)
   11832:	fa6a                	sd	s10,304(sp)
   11834:	f66e                	sd	s11,296(sp)
   11836:	ae22                	fsd	fs0,280(sp)
   11838:	00054783          	lbu	a5,0(a0)
   1183c:	0006a383          	lw	t2,0(a3)
   11840:	66da                	ld	a3,400(sp)
   11842:	0df7f793          	andi	a5,a5,223
   11846:	04e00893          	li	a7,78
   1184a:	f142                	sd	a6,160(sp)
   1184c:	0005ae83          	lw	t4,0(a1)
   11850:	00062e03          	lw	t3,0(a2)
   11854:	0006a303          	lw	t1,0(a3)
   11858:	8cba                	mv	s9,a4
   1185a:	2f178263          	beq	a5,a7,11b3e <sgemv_+0x324>
   1185e:	05400713          	li	a4,84
   11862:	02e78063          	beq	a5,a4,11882 <sgemv_+0x68>
   11866:	04300713          	li	a4,67
   1186a:	00e78c63          	beq	a5,a4,11882 <sgemv_+0x68>
   1186e:	85aa                	mv	a1,a0
   11870:	0000d517          	auipc	a0,0xd
   11874:	85050513          	addi	a0,a0,-1968 # 1e0c0 <__func__.4057+0x20>
   11878:	5df000ef          	jal	ra,12656 <printf>
   1187c:	4505                	li	a0,1
   1187e:	448000ef          	jal	ra,11cc6 <exit>
   11882:	8d72                	mv	s10,t3
   11884:	00010897          	auipc	a7,0x10
   11888:	9848b883          	ld	a7,-1660(a7) # 21208 <__SDATA_BEGIN__+0x18>
   1188c:	e102                	sd	zero,128(sp)
   1188e:	f00007d3          	fmv.w.x	fa5,zero
   11892:	f0030753          	fmv.w.x	fa4,t1
   11896:	007ef613          	andi	a2,t4,7
   1189a:	00c037b3          	snez	a5,a2
   1189e:	a0f726d3          	feq.s	a3,fa4,fa5
   118a2:	007e7713          	andi	a4,t3,7
   118a6:	65fa                	ld	a1,408(sp)
   118a8:	003ed613          	srli	a2,t4,0x3
   118ac:	963e                	add	a2,a2,a5
   118ae:	00e037b3          	snez	a5,a4
   118b2:	003e5713          	srli	a4,t3,0x3
   118b6:	973e                	add	a4,a4,a5
   118b8:	16fd                	addi	a3,a3,-1
   118ba:	00361813          	slli	a6,a2,0x3
   118be:	05700793          	li	a5,87
   118c2:	8eed                	and	a3,a3,a1
   118c4:	00371513          	slli	a0,a4,0x3
   118c8:	44ad                	li	s1,11
   118ca:	0107e463          	bltu	a5,a6,118d2 <sgemv_+0xb8>
   118ce:	00385493          	srli	s1,a6,0x3
   118d2:	0b700793          	li	a5,183
   118d6:	445d                	li	s0,23
   118d8:	00a7e563          	bltu	a5,a0,118e2 <sgemv_+0xc8>
   118dc:	00371413          	slli	s0,a4,0x3
   118e0:	800d                	srli	s0,s0,0x3
   118e2:	00248593          	addi	a1,s1,2
   118e6:	00341913          	slli	s2,s0,0x3
   118ea:	00148793          	addi	a5,s1,1
   118ee:	00140f93          	addi	t6,s0,1
   118f2:	6285                	lui	t0,0x1
   118f4:	40000993          	li	s3,1024
   118f8:	03258f33          	mul	t5,a1,s2
   118fc:	03e2e563          	bltu	t0,t5,11926 <sgemv_+0x10c>
   11900:	00379f13          	slli	t5,a5,0x3
   11904:	03e9e163          	bltu	s3,t5,11926 <sgemv_+0x10c>
   11908:	01e86f63          	bltu	a6,t5,11926 <sgemv_+0x10c>
   1190c:	03f585b3          	mul	a1,a1,t6
   11910:	058e                	slli	a1,a1,0x3
   11912:	2ab2ff63          	bgeu	t0,a1,11bd0 <sgemv_+0x3b6>
   11916:	00278593          	addi	a1,a5,2
   1191a:	03258f33          	mul	t5,a1,s2
   1191e:	84be                	mv	s1,a5
   11920:	0785                	addi	a5,a5,1
   11922:	fde2ffe3          	bgeu	t0,t5,11900 <sgemv_+0xe6>
   11926:	02ff8f33          	mul	t5,t6,a5
   1192a:	0f0e                	slli	t5,t5,0x3
   1192c:	01e2e663          	bltu	t0,t5,11938 <sgemv_+0x11e>
   11930:	00890f13          	addi	t5,s2,8
   11934:	1fe57063          	bgeu	a0,t5,11b14 <sgemv_+0x2fa>
   11938:	22048663          	beqz	s1,11b64 <sgemv_+0x34a>
   1193c:	22040d63          	beqz	s0,11b76 <sgemv_+0x35c>
   11940:	00349993          	slli	s3,s1,0x3
   11944:	25386263          	bltu	a6,s3,11b88 <sgemv_+0x36e>
   11948:	25256963          	bltu	a0,s2,11b9a <sgemv_+0x380>
   1194c:	02f407b3          	mul	a5,s0,a5
   11950:	6585                	lui	a1,0x1
   11952:	078e                	slli	a5,a5,0x3
   11954:	24f5ec63          	bltu	a1,a5,11bac <sgemv_+0x392>
   11958:	40000793          	li	a5,1024
   1195c:	2737e163          	bltu	a5,s3,11bbe <sgemv_+0x3a4>
   11960:	67c1                	lui	a5,0x10
   11962:	1ef4f863          	bgeu	s1,a5,11b52 <sgemv_+0x338>
   11966:	1ef47663          	bgeu	s0,a5,11b52 <sgemv_+0x338>
   1196a:	033875b3          	remu	a1,a6,s3
   1196e:	e926                	sd	s1,144(sp)
   11970:	032577b3          	remu	a5,a0,s2
   11974:	00b03fb3          	snez	t6,a1
   11978:	033859b3          	divu	s3,a6,s3
   1197c:	00f03f33          	snez	t5,a5
   11980:	03255933          	divu	s2,a0,s2
   11984:	99fe                	add	s3,s3,t6
   11986:	997a                	add	s2,s2,t5
   11988:	c591                	beqz	a1,11994 <sgemv_+0x17a>
   1198a:	060e                	slli	a2,a2,0x3
   1198c:	820d                	srli	a2,a2,0x3
   1198e:	02967633          	remu	a2,a2,s1
   11992:	e932                	sd	a2,144(sp)
   11994:	e522                	sd	s0,136(sp)
   11996:	c791                	beqz	a5,119a2 <sgemv_+0x188>
   11998:	070e                	slli	a4,a4,0x3
   1199a:	830d                	srli	a4,a4,0x3
   1199c:	028777b3          	remu	a5,a4,s0
   119a0:	e53e                	sd	a5,136(sp)
   119a2:	41d807b3          	sub	a5,a6,t4
   119a6:	fcbe                	sd	a5,120(sp)
   119a8:	41c507b3          	sub	a5,a0,t3
   119ac:	f5be                	sd	a5,232(sp)
   119ae:	0016b793          	seqz	a5,a3
   119b2:	f9be                	sd	a5,240(sp)
   119b4:	82b6                	mv	t0,a3
   119b6:	18068c63          	beqz	a3,11b4e <sgemv_+0x334>
   119ba:	4785                	li	a5,1
   119bc:	17c2                	slli	a5,a5,0x30
   119be:	00f8b07b          	0xf8b07b
   119c2:	478d                	li	a5,3
   119c4:	4701                	li	a4,0
   119c6:	00e7b07b          	0xe7b07b
   119ca:	07f00793          	li	a5,127
   119ce:	17de                	slli	a5,a5,0x37
   119d0:	4709                	li	a4,2
   119d2:	0791                	addi	a5,a5,4
   119d4:	00f7307b          	0xf7307b
   119d8:	00010717          	auipc	a4,0x10
   119dc:	85073703          	ld	a4,-1968(a4) # 21228 <__SDATA_BEGIN__+0x38>
   119e0:	002d1793          	slli	a5,s10,0x2
   119e4:	00f7307b          	0xf7307b
   119e8:	000806b7          	lui	a3,0x80
   119ec:	02039713          	slli	a4,t2,0x20
   119f0:	10968793          	addi	a5,a3,265 # 80109 <__global_pointer$+0x5e719>
   119f4:	8f5d                	or	a4,a4,a5
   119f6:	4611                	li	a2,4
   119f8:	00c7307b          	0xc7307b
   119fc:	02031793          	slli	a5,t1,0x20
   11a00:	11168693          	addi	a3,a3,273
   11a04:	8fd5                	or	a5,a5,a3
   11a06:	00c7b07b          	0xc7b07b
   11a0a:	0e098363          	beqz	s3,11af0 <sgemv_+0x2d6>
   11a0e:	029d07b3          	mul	a5,s10,s1
   11a12:	fdbe                	sd	a5,248(sp)
   11a14:	0c090e63          	beqz	s2,11af0 <sgemv_+0x2d6>
   11a18:	00541793          	slli	a5,s0,0x5
   11a1c:	e23e                	sd	a5,256(sp)
   11a1e:	00010797          	auipc	a5,0x10
   11a22:	83a7a407          	flw	fs0,-1990(a5) # 21258 <mask+0x8>
   11a26:	028d07b3          	mul	a5,s10,s0
   11a2a:	4f81                	li	t6,0
   11a2c:	4f01                	li	t5,0
   11a2e:	4b81                	li	s7,0
   11a30:	fff98e93          	addi	t4,s3,-1
   11a34:	fff90e13          	addi	t3,s2,-1
   11a38:	0796                	slli	a5,a5,0x5
   11a3a:	e63e                	sd	a5,264(sp)
   11a3c:	67fa                	ld	a5,408(sp)
   11a3e:	005f1a93          	slli	s5,t5,0x5
   11a42:	674a                	ld	a4,144(sp)
   11a44:	97d6                	add	a5,a5,s5
   11a46:	ed3e                	sd	a5,152(sp)
   11a48:	01528633          	add	a2,t0,s5
   11a4c:	01dbf363          	bgeu	s7,t4,11a52 <sgemv_+0x238>
   11a50:	8726                	mv	a4,s1
   11a52:	7d8a                	ld	s11,160(sp)
   11a54:	005f9a13          	slli	s4,t6,0x5
   11a58:	9ae6                	add	s5,s5,s9
   11a5a:	9a66                	add	s4,s4,s9
   11a5c:	4b01                	li	s6,0
   11a5e:	4c05                	li	s8,1
   11a60:	0b6e0f63          	beq	t3,s6,11b1e <sgemv_+0x304>
   11a64:	4681                	li	a3,0
   11a66:	0bcb7d63          	bgeu	s6,t3,11b20 <sgemv_+0x306>
   11a6a:	0ddb8363          	beq	s7,t4,11b30 <sgemv_+0x316>
   11a6e:	8822                	mv	a6,s0
   11a70:	4681                	li	a3,0
   11a72:	4881                	li	a7,0
   11a74:	4781                	li	a5,0
   11a76:	658a                	ld	a1,128(sp)
   11a78:	8552                	mv	a0,s4
   11a7a:	c191                	beqz	a1,11a7e <sgemv_+0x264>
   11a7c:	8556                	mv	a0,s5
   11a7e:	f0030653          	fmv.w.x	fa2,t1
   11a82:	fd1a                	sd	t1,184(sp)
   11a84:	734e                	ld	t1,240(sp)
   11a86:	f00385d3          	fmv.w.x	fa1,t2
   11a8a:	20840553          	fmv.s	fa0,fs0
   11a8e:	e89a                	sd	t1,80(sp)
   11a90:	630a                	ld	t1,128(sp)
   11a92:	e43e                	sd	a5,8(sp)
   11a94:	479d                	li	a5,7
   11a96:	85ee                	mv	a1,s11
   11a98:	f81a                	sd	t1,48(sp)
   11a9a:	e03e                	sd	a5,0(sp)
   11a9c:	e0e2                	sd	s8,64(sp)
   11a9e:	4785                	li	a5,1
   11aa0:	fc02                	sd	zero,56(sp)
   11aa2:	f462                	sd	s8,40(sp)
   11aa4:	f062                	sd	s8,32(sp)
   11aa6:	ec62                	sd	s8,24(sp)
   11aa8:	e86a                	sd	s10,16(sp)
   11aaa:	f1f2                	sd	t3,224(sp)
   11aac:	edf6                	sd	t4,216(sp)
   11aae:	e996                	sd	t0,208(sp)
   11ab0:	e5fa                	sd	t5,200(sp)
   11ab2:	e1fe                	sd	t6,192(sp)
   11ab4:	f91e                	sd	t2,176(sp)
   11ab6:	f53a                	sd	a4,168(sp)
   11ab8:	f0e2                	sd	s8,96(sp)
   11aba:	ec82                	sd	zero,88(sp)
   11abc:	e482                	sd	zero,72(sp)
   11abe:	8d8ff0ef          	jal	ra,10b96 <sp_tiled_matmul_ws>
   11ac2:	67b2                	ld	a5,264(sp)
   11ac4:	0b05                	addi	s6,s6,1
   11ac6:	772a                	ld	a4,168(sp)
   11ac8:	9abe                	add	s5,s5,a5
   11aca:	6792                	ld	a5,256(sp)
   11acc:	73ca                	ld	t2,176(sp)
   11ace:	736a                	ld	t1,184(sp)
   11ad0:	6f8e                	ld	t6,192(sp)
   11ad2:	6f2e                	ld	t5,200(sp)
   11ad4:	62ce                	ld	t0,208(sp)
   11ad6:	6eee                	ld	t4,216(sp)
   11ad8:	7e0e                	ld	t3,224(sp)
   11ada:	9a3e                	add	s4,s4,a5
   11adc:	9dbe                	add	s11,s11,a5
   11ade:	4601                	li	a2,0
   11ae0:	f96910e3          	bne	s2,s6,11a60 <sgemv_+0x246>
   11ae4:	77ee                	ld	a5,248(sp)
   11ae6:	0b85                	addi	s7,s7,1
   11ae8:	9f26                	add	t5,t5,s1
   11aea:	9fbe                	add	t6,t6,a5
   11aec:	f57998e3          	bne	s3,s7,11a3c <sgemv_+0x222>
   11af0:	0ff0000f          	fence
   11af4:	60ba                	ld	ra,392(sp)
   11af6:	641a                	ld	s0,384(sp)
   11af8:	74f6                	ld	s1,376(sp)
   11afa:	7956                	ld	s2,368(sp)
   11afc:	79b6                	ld	s3,360(sp)
   11afe:	7a16                	ld	s4,352(sp)
   11b00:	6af6                	ld	s5,344(sp)
   11b02:	6b56                	ld	s6,336(sp)
   11b04:	6bb6                	ld	s7,328(sp)
   11b06:	6c16                	ld	s8,320(sp)
   11b08:	7cf2                	ld	s9,312(sp)
   11b0a:	7d52                	ld	s10,304(sp)
   11b0c:	7db2                	ld	s11,296(sp)
   11b0e:	2472                	fld	fs0,280(sp)
   11b10:	6159                	addi	sp,sp,400
   11b12:	8082                	ret
   11b14:	847e                	mv	s0,t6
   11b16:	003f9913          	slli	s2,t6,0x3
   11b1a:	0f85                	addi	t6,t6,1
   11b1c:	bbf1                	j	118f8 <sgemv_+0xde>
   11b1e:	66ea                	ld	a3,152(sp)
   11b20:	4881                	li	a7,0
   11b22:	01db8c63          	beq	s7,t4,11b3a <sgemv_+0x320>
   11b26:	682a                	ld	a6,136(sp)
   11b28:	f56e16e3          	bne	t3,s6,11a74 <sgemv_+0x25a>
   11b2c:	77ae                	ld	a5,232(sp)
   11b2e:	b7a1                	j	11a76 <sgemv_+0x25c>
   11b30:	78e6                	ld	a7,120(sp)
   11b32:	8822                	mv	a6,s0
   11b34:	4681                	li	a3,0
   11b36:	4781                	li	a5,0
   11b38:	bf3d                	j	11a76 <sgemv_+0x25c>
   11b3a:	78e6                	ld	a7,120(sp)
   11b3c:	b7ed                	j	11b26 <sgemv_+0x30c>
   11b3e:	4785                	li	a5,1
   11b40:	8d76                	mv	s10,t4
   11b42:	0000f897          	auipc	a7,0xf
   11b46:	6be8b883          	ld	a7,1726(a7) # 21200 <__SDATA_BEGIN__+0x10>
   11b4a:	e13e                	sd	a5,128(sp)
   11b4c:	b389                	j	1188e <sgemv_+0x74>
   11b4e:	4285                	li	t0,1
   11b50:	b5ad                	j	119ba <sgemv_+0x1a0>
   11b52:	0000c517          	auipc	a0,0xc
   11b56:	70e50513          	addi	a0,a0,1806 # 1e260 <__func__.4057+0x1c0>
   11b5a:	2fd000ef          	jal	ra,12656 <printf>
   11b5e:	4505                	li	a0,1
   11b60:	166000ef          	jal	ra,11cc6 <exit>
   11b64:	0000c517          	auipc	a0,0xc
   11b68:	59c50513          	addi	a0,a0,1436 # 1e100 <__func__.4057+0x60>
   11b6c:	2eb000ef          	jal	ra,12656 <printf>
   11b70:	4505                	li	a0,1
   11b72:	154000ef          	jal	ra,11cc6 <exit>
   11b76:	0000c517          	auipc	a0,0xc
   11b7a:	5ba50513          	addi	a0,a0,1466 # 1e130 <__func__.4057+0x90>
   11b7e:	2d9000ef          	jal	ra,12656 <printf>
   11b82:	4505                	li	a0,1
   11b84:	142000ef          	jal	ra,11cc6 <exit>
   11b88:	0000c517          	auipc	a0,0xc
   11b8c:	5c050513          	addi	a0,a0,1472 # 1e148 <__func__.4057+0xa8>
   11b90:	2c7000ef          	jal	ra,12656 <printf>
   11b94:	4505                	li	a0,1
   11b96:	130000ef          	jal	ra,11cc6 <exit>
   11b9a:	0000c517          	auipc	a0,0xc
   11b9e:	61e50513          	addi	a0,a0,1566 # 1e1b8 <__func__.4057+0x118>
   11ba2:	2b5000ef          	jal	ra,12656 <printf>
   11ba6:	4505                	li	a0,1
   11ba8:	11e000ef          	jal	ra,11cc6 <exit>
   11bac:	0000c517          	auipc	a0,0xc
   11bb0:	64450513          	addi	a0,a0,1604 # 1e1f0 <__func__.4057+0x150>
   11bb4:	2a3000ef          	jal	ra,12656 <printf>
   11bb8:	4505                	li	a0,1
   11bba:	10c000ef          	jal	ra,11cc6 <exit>
   11bbe:	0000c517          	auipc	a0,0xc
   11bc2:	67250513          	addi	a0,a0,1650 # 1e230 <__func__.4057+0x190>
   11bc6:	291000ef          	jal	ra,12656 <printf>
   11bca:	4505                	li	a0,1
   11bcc:	0fa000ef          	jal	ra,11cc6 <exit>
   11bd0:	00890593          	addi	a1,s2,8
   11bd4:	d4b561e3          	bltu	a0,a1,11916 <sgemv_+0xfc>
   11bd8:	847e                	mv	s0,t6
   11bda:	84be                	mv	s1,a5
   11bdc:	00278593          	addi	a1,a5,2
   11be0:	003f9913          	slli	s2,t6,0x3
   11be4:	0785                	addi	a5,a5,1
   11be6:	0f85                	addi	t6,t6,1
   11be8:	bb01                	j	118f8 <sgemv_+0xde>

0000000000011bea <__assert_func>:
   11bea:	1141                	addi	sp,sp,-16
   11bec:	87b6                	mv	a5,a3
   11bee:	8901b703          	ld	a4,-1904(gp) # 21280 <_impure_ptr>
   11bf2:	8832                	mv	a6,a2
   11bf4:	e406                	sd	ra,8(sp)
   11bf6:	01873883          	ld	a7,24(a4)
   11bfa:	863e                	mv	a2,a5
   11bfc:	86aa                	mv	a3,a0
   11bfe:	872e                	mv	a4,a1
   11c00:	0000c797          	auipc	a5,0xc
   11c04:	70878793          	addi	a5,a5,1800 # 1e308 <__func__.4057+0x268>
   11c08:	00080b63          	beqz	a6,11c1e <__assert_func+0x34>
   11c0c:	0000c597          	auipc	a1,0xc
   11c10:	70c58593          	addi	a1,a1,1804 # 1e318 <__func__.4057+0x278>
   11c14:	8546                	mv	a0,a7
   11c16:	0ee000ef          	jal	ra,11d04 <fiprintf>
   11c1a:	6a2030ef          	jal	ra,152bc <abort>
   11c1e:	0000c797          	auipc	a5,0xc
   11c22:	73a78793          	addi	a5,a5,1850 # 1e358 <__func__.4057+0x2b8>
   11c26:	883e                	mv	a6,a5
   11c28:	b7d5                	j	11c0c <__assert_func+0x22>

0000000000011c2a <__assert>:
   11c2a:	1141                	addi	sp,sp,-16
   11c2c:	86b2                	mv	a3,a2
   11c2e:	4601                	li	a2,0
   11c30:	e406                	sd	ra,8(sp)
   11c32:	fb9ff0ef          	jal	ra,11bea <__assert_func>

0000000000011c36 <calloc>:
   11c36:	862e                	mv	a2,a1
   11c38:	85aa                	mv	a1,a0
   11c3a:	8901b503          	ld	a0,-1904(gp) # 21280 <_impure_ptr>
   11c3e:	a009                	j	11c40 <_calloc_r>

0000000000011c40 <_calloc_r>:
   11c40:	02c585b3          	mul	a1,a1,a2
   11c44:	1141                	addi	sp,sp,-16
   11c46:	e022                	sd	s0,0(sp)
   11c48:	e406                	sd	ra,8(sp)
   11c4a:	30e000ef          	jal	ra,11f58 <_malloc_r>
   11c4e:	842a                	mv	s0,a0
   11c50:	c505                	beqz	a0,11c78 <_calloc_r+0x38>
   11c52:	ff853603          	ld	a2,-8(a0)
   11c56:	04800713          	li	a4,72
   11c5a:	9a71                	andi	a2,a2,-4
   11c5c:	1661                	addi	a2,a2,-8
   11c5e:	04c76963          	bltu	a4,a2,11cb0 <_calloc_r+0x70>
   11c62:	02700693          	li	a3,39
   11c66:	87aa                	mv	a5,a0
   11c68:	00c6ed63          	bltu	a3,a2,11c82 <_calloc_r+0x42>
   11c6c:	0007b023          	sd	zero,0(a5)
   11c70:	0007b423          	sd	zero,8(a5)
   11c74:	0007b823          	sd	zero,16(a5)
   11c78:	60a2                	ld	ra,8(sp)
   11c7a:	8522                	mv	a0,s0
   11c7c:	6402                	ld	s0,0(sp)
   11c7e:	0141                	addi	sp,sp,16
   11c80:	8082                	ret
   11c82:	00053023          	sd	zero,0(a0)
   11c86:	00053423          	sd	zero,8(a0)
   11c8a:	03700793          	li	a5,55
   11c8e:	02c7f963          	bgeu	a5,a2,11cc0 <_calloc_r+0x80>
   11c92:	00053823          	sd	zero,16(a0)
   11c96:	00053c23          	sd	zero,24(a0)
   11c9a:	02050793          	addi	a5,a0,32
   11c9e:	fce617e3          	bne	a2,a4,11c6c <_calloc_r+0x2c>
   11ca2:	02053023          	sd	zero,32(a0)
   11ca6:	03050793          	addi	a5,a0,48
   11caa:	02053423          	sd	zero,40(a0)
   11cae:	bf7d                	j	11c6c <_calloc_r+0x2c>
   11cb0:	4581                	li	a1,0
   11cb2:	0d5000ef          	jal	ra,12586 <memset>
   11cb6:	60a2                	ld	ra,8(sp)
   11cb8:	8522                	mv	a0,s0
   11cba:	6402                	ld	s0,0(sp)
   11cbc:	0141                	addi	sp,sp,16
   11cbe:	8082                	ret
   11cc0:	01050793          	addi	a5,a0,16
   11cc4:	b765                	j	11c6c <_calloc_r+0x2c>

0000000000011cc6 <exit>:
   11cc6:	1141                	addi	sp,sp,-16
   11cc8:	4581                	li	a1,0
   11cca:	e022                	sd	s0,0(sp)
   11ccc:	e406                	sd	ra,8(sp)
   11cce:	842a                	mv	s0,a0
   11cd0:	52a030ef          	jal	ra,151fa <__call_exitprocs>
   11cd4:	8701b503          	ld	a0,-1936(gp) # 21260 <_global_impure_ptr>
   11cd8:	6d3c                	ld	a5,88(a0)
   11cda:	c391                	beqz	a5,11cde <exit+0x18>
   11cdc:	9782                	jalr	a5
   11cde:	8522                	mv	a0,s0
   11ce0:	4f30a0ef          	jal	ra,1c9d2 <_exit>

0000000000011ce4 <_fiprintf_r>:
   11ce4:	715d                	addi	sp,sp,-80
   11ce6:	02810313          	addi	t1,sp,40
   11cea:	f436                	sd	a3,40(sp)
   11cec:	869a                	mv	a3,t1
   11cee:	ec06                	sd	ra,24(sp)
   11cf0:	f83a                	sd	a4,48(sp)
   11cf2:	fc3e                	sd	a5,56(sp)
   11cf4:	e0c2                	sd	a6,64(sp)
   11cf6:	e4c6                	sd	a7,72(sp)
   11cf8:	e41a                	sd	t1,8(sp)
   11cfa:	287000ef          	jal	ra,12780 <_vfiprintf_r>
   11cfe:	60e2                	ld	ra,24(sp)
   11d00:	6161                	addi	sp,sp,80
   11d02:	8082                	ret

0000000000011d04 <fiprintf>:
   11d04:	715d                	addi	sp,sp,-80
   11d06:	02010313          	addi	t1,sp,32
   11d0a:	f032                	sd	a2,32(sp)
   11d0c:	f436                	sd	a3,40(sp)
   11d0e:	862e                	mv	a2,a1
   11d10:	869a                	mv	a3,t1
   11d12:	85aa                	mv	a1,a0
   11d14:	8901b503          	ld	a0,-1904(gp) # 21280 <_impure_ptr>
   11d18:	ec06                	sd	ra,24(sp)
   11d1a:	f83a                	sd	a4,48(sp)
   11d1c:	fc3e                	sd	a5,56(sp)
   11d1e:	e0c2                	sd	a6,64(sp)
   11d20:	e4c6                	sd	a7,72(sp)
   11d22:	e41a                	sd	t1,8(sp)
   11d24:	25d000ef          	jal	ra,12780 <_vfiprintf_r>
   11d28:	60e2                	ld	ra,24(sp)
   11d2a:	6161                	addi	sp,sp,80
   11d2c:	8082                	ret

0000000000011d2e <_fwrite_r>:
   11d2e:	7159                	addi	sp,sp,-112
   11d30:	e8ca                	sd	s2,80(sp)
   11d32:	02c68933          	mul	s2,a3,a2
   11d36:	083c                	addi	a5,sp,24
   11d38:	f43e                	sd	a5,40(sp)
   11d3a:	4785                	li	a5,1
   11d3c:	f0a2                	sd	s0,96(sp)
   11d3e:	eca6                	sd	s1,88(sp)
   11d40:	e4ce                	sd	s3,72(sp)
   11d42:	ec2e                	sd	a1,24(sp)
   11d44:	f486                	sd	ra,104(sp)
   11d46:	d83e                	sw	a5,48(sp)
   11d48:	f04a                	sd	s2,32(sp)
   11d4a:	fc4a                	sd	s2,56(sp)
   11d4c:	89b2                	mv	s3,a2
   11d4e:	8436                	mv	s0,a3
   11d50:	84aa                	mv	s1,a0
   11d52:	85ba                	mv	a1,a4
   11d54:	c119                	beqz	a0,11d5a <_fwrite_r+0x2c>
   11d56:	493c                	lw	a5,80(a0)
   11d58:	c7a1                	beqz	a5,11da0 <_fwrite_r+0x72>
   11d5a:	01059783          	lh	a5,16(a1)
   11d5e:	03279713          	slli	a4,a5,0x32
   11d62:	00074d63          	bltz	a4,11d7c <_fwrite_r+0x4e>
   11d66:	0ac5a703          	lw	a4,172(a1)
   11d6a:	6689                	lui	a3,0x2
   11d6c:	8fd5                	or	a5,a5,a3
   11d6e:	76f9                	lui	a3,0xffffe
   11d70:	16fd                	addi	a3,a3,-1
   11d72:	8f75                	and	a4,a4,a3
   11d74:	00f59823          	sh	a5,16(a1)
   11d78:	0ae5a623          	sw	a4,172(a1)
   11d7c:	1030                	addi	a2,sp,40
   11d7e:	8526                	mv	a0,s1
   11d80:	657030ef          	jal	ra,15bd6 <__sfvwrite_r>
   11d84:	c511                	beqz	a0,11d90 <_fwrite_r+0x62>
   11d86:	7462                	ld	s0,56(sp)
   11d88:	40890433          	sub	s0,s2,s0
   11d8c:	03345433          	divu	s0,s0,s3
   11d90:	70a6                	ld	ra,104(sp)
   11d92:	8522                	mv	a0,s0
   11d94:	7406                	ld	s0,96(sp)
   11d96:	64e6                	ld	s1,88(sp)
   11d98:	6946                	ld	s2,80(sp)
   11d9a:	69a6                	ld	s3,72(sp)
   11d9c:	6165                	addi	sp,sp,112
   11d9e:	8082                	ret
   11da0:	e43a                	sd	a4,8(sp)
   11da2:	169030ef          	jal	ra,1570a <__sinit>
   11da6:	65a2                	ld	a1,8(sp)
   11da8:	bf4d                	j	11d5a <_fwrite_r+0x2c>

0000000000011daa <fwrite>:
   11daa:	8736                	mv	a4,a3
   11dac:	86b2                	mv	a3,a2
   11dae:	862e                	mv	a2,a1
   11db0:	85aa                	mv	a1,a0
   11db2:	8901b503          	ld	a0,-1904(gp) # 21280 <_impure_ptr>
   11db6:	bfa5                	j	11d2e <_fwrite_r>

0000000000011db8 <__libc_init_array>:
   11db8:	1101                	addi	sp,sp,-32
   11dba:	e822                	sd	s0,16(sp)
   11dbc:	e04a                	sd	s2,0(sp)
   11dbe:	0000e417          	auipc	s0,0xe
   11dc2:	31640413          	addi	s0,s0,790 # 200d4 <__preinit_array_end>
   11dc6:	0000e917          	auipc	s2,0xe
   11dca:	30e90913          	addi	s2,s2,782 # 200d4 <__preinit_array_end>
   11dce:	40890933          	sub	s2,s2,s0
   11dd2:	ec06                	sd	ra,24(sp)
   11dd4:	e426                	sd	s1,8(sp)
   11dd6:	40395913          	srai	s2,s2,0x3
   11dda:	00090963          	beqz	s2,11dec <__libc_init_array+0x34>
   11dde:	4481                	li	s1,0
   11de0:	601c                	ld	a5,0(s0)
   11de2:	0485                	addi	s1,s1,1
   11de4:	0421                	addi	s0,s0,8
   11de6:	9782                	jalr	a5
   11de8:	fe991ce3          	bne	s2,s1,11de0 <__libc_init_array+0x28>
   11dec:	0000e417          	auipc	s0,0xe
   11df0:	2ec40413          	addi	s0,s0,748 # 200d8 <__init_array_start>
   11df4:	0000e917          	auipc	s2,0xe
   11df8:	2f490913          	addi	s2,s2,756 # 200e8 <__do_global_dtors_aux_fini_array_entry>
   11dfc:	40890933          	sub	s2,s2,s0
   11e00:	40395913          	srai	s2,s2,0x3
   11e04:	00090963          	beqz	s2,11e16 <__libc_init_array+0x5e>
   11e08:	4481                	li	s1,0
   11e0a:	601c                	ld	a5,0(s0)
   11e0c:	0485                	addi	s1,s1,1
   11e0e:	0421                	addi	s0,s0,8
   11e10:	9782                	jalr	a5
   11e12:	fe991ce3          	bne	s2,s1,11e0a <__libc_init_array+0x52>
   11e16:	60e2                	ld	ra,24(sp)
   11e18:	6442                	ld	s0,16(sp)
   11e1a:	64a2                	ld	s1,8(sp)
   11e1c:	6902                	ld	s2,0(sp)
   11e1e:	6105                	addi	sp,sp,32
   11e20:	8082                	ret

0000000000011e22 <memalign>:
   11e22:	862e                	mv	a2,a1
   11e24:	85aa                	mv	a1,a0
   11e26:	8901b503          	ld	a0,-1904(gp) # 21280 <_impure_ptr>
   11e2a:	a009                	j	11e2c <_memalign_r>

0000000000011e2c <_memalign_r>:
   11e2c:	47c1                	li	a5,16
   11e2e:	0eb7f463          	bgeu	a5,a1,11f16 <_memalign_r+0xea>
   11e32:	7179                	addi	sp,sp,-48
   11e34:	f022                	sd	s0,32(sp)
   11e36:	e84a                	sd	s2,16(sp)
   11e38:	e052                	sd	s4,0(sp)
   11e3a:	f406                	sd	ra,40(sp)
   11e3c:	ec26                	sd	s1,24(sp)
   11e3e:	e44e                	sd	s3,8(sp)
   11e40:	01760913          	addi	s2,a2,23
   11e44:	02e00793          	li	a5,46
   11e48:	842e                	mv	s0,a1
   11e4a:	8a2a                	mv	s4,a0
   11e4c:	0b27f463          	bgeu	a5,s2,11ef4 <_memalign_r+0xc8>
   11e50:	800007b7          	lui	a5,0x80000
   11e54:	ff097913          	andi	s2,s2,-16
   11e58:	fff7c793          	not	a5,a5
   11e5c:	0b27e063          	bltu	a5,s2,11efc <_memalign_r+0xd0>
   11e60:	08c96e63          	bltu	s2,a2,11efc <_memalign_r+0xd0>
   11e64:	02000793          	li	a5,32
   11e68:	00f47463          	bgeu	s0,a5,11e70 <_memalign_r+0x44>
   11e6c:	02000413          	li	s0,32
   11e70:	02040593          	addi	a1,s0,32
   11e74:	95ca                	add	a1,a1,s2
   11e76:	8552                	mv	a0,s4
   11e78:	0e0000ef          	jal	ra,11f58 <_malloc_r>
   11e7c:	84aa                	mv	s1,a0
   11e7e:	c159                	beqz	a0,11f04 <_memalign_r+0xd8>
   11e80:	8552                	mv	a0,s4
   11e82:	7ae000ef          	jal	ra,12630 <__malloc_lock>
   11e86:	0284f7b3          	remu	a5,s1,s0
   11e8a:	ff048993          	addi	s3,s1,-16
   11e8e:	c7b9                	beqz	a5,11edc <_memalign_r+0xb0>
   11e90:	fff40793          	addi	a5,s0,-1
   11e94:	40800733          	neg	a4,s0
   11e98:	97a6                	add	a5,a5,s1
   11e9a:	8ff9                	and	a5,a5,a4
   11e9c:	17c1                	addi	a5,a5,-16
   11e9e:	41378733          	sub	a4,a5,s3
   11ea2:	46fd                	li	a3,31
   11ea4:	06e6db63          	bge	a3,a4,11f1a <_memalign_r+0xee>
   11ea8:	89be                	mv	s3,a5
   11eaa:	ff84b783          	ld	a5,-8(s1)
   11eae:	85a6                	mv	a1,s1
   11eb0:	8552                	mv	a0,s4
   11eb2:	9bf1                	andi	a5,a5,-4
   11eb4:	8f99                	sub	a5,a5,a4
   11eb6:	0017e693          	ori	a3,a5,1
   11eba:	00d9b423          	sd	a3,8(s3)
   11ebe:	97ce                	add	a5,a5,s3
   11ec0:	6794                	ld	a3,8(a5)
   11ec2:	0016e693          	ori	a3,a3,1
   11ec6:	e794                	sd	a3,8(a5)
   11ec8:	ff84b783          	ld	a5,-8(s1)
   11ecc:	8b85                	andi	a5,a5,1
   11ece:	8fd9                	or	a5,a5,a4
   11ed0:	fef4bc23          	sd	a5,-8(s1)
   11ed4:	2b3030ef          	jal	ra,15986 <_free_r>
   11ed8:	01098493          	addi	s1,s3,16
   11edc:	0089b783          	ld	a5,8(s3)
   11ee0:	477d                	li	a4,31
   11ee2:	9bf1                	andi	a5,a5,-4
   11ee4:	412787b3          	sub	a5,a5,s2
   11ee8:	02f74e63          	blt	a4,a5,11f24 <_memalign_r+0xf8>
   11eec:	8552                	mv	a0,s4
   11eee:	744000ef          	jal	ra,12632 <__malloc_unlock>
   11ef2:	a809                	j	11f04 <_memalign_r+0xd8>
   11ef4:	02000913          	li	s2,32
   11ef8:	f6c976e3          	bgeu	s2,a2,11e64 <_memalign_r+0x38>
   11efc:	47b1                	li	a5,12
   11efe:	00fa2023          	sw	a5,0(s4)
   11f02:	4481                	li	s1,0
   11f04:	70a2                	ld	ra,40(sp)
   11f06:	7402                	ld	s0,32(sp)
   11f08:	6942                	ld	s2,16(sp)
   11f0a:	69a2                	ld	s3,8(sp)
   11f0c:	6a02                	ld	s4,0(sp)
   11f0e:	8526                	mv	a0,s1
   11f10:	64e2                	ld	s1,24(sp)
   11f12:	6145                	addi	sp,sp,48
   11f14:	8082                	ret
   11f16:	85b2                	mv	a1,a2
   11f18:	a081                	j	11f58 <_malloc_r>
   11f1a:	943e                	add	s0,s0,a5
   11f1c:	41340733          	sub	a4,s0,s3
   11f20:	89a2                	mv	s3,s0
   11f22:	b761                	j	11eaa <_memalign_r+0x7e>
   11f24:	012985b3          	add	a1,s3,s2
   11f28:	0017e793          	ori	a5,a5,1
   11f2c:	e59c                	sd	a5,8(a1)
   11f2e:	0089b783          	ld	a5,8(s3)
   11f32:	05c1                	addi	a1,a1,16
   11f34:	8552                	mv	a0,s4
   11f36:	8b85                	andi	a5,a5,1
   11f38:	0127e933          	or	s2,a5,s2
   11f3c:	0129b423          	sd	s2,8(s3)
   11f40:	247030ef          	jal	ra,15986 <_free_r>
   11f44:	b765                	j	11eec <_memalign_r+0xc0>

0000000000011f46 <malloc>:
   11f46:	85aa                	mv	a1,a0
   11f48:	8901b503          	ld	a0,-1904(gp) # 21280 <_impure_ptr>
   11f4c:	a031                	j	11f58 <_malloc_r>

0000000000011f4e <free>:
   11f4e:	85aa                	mv	a1,a0
   11f50:	8901b503          	ld	a0,-1904(gp) # 21280 <_impure_ptr>
   11f54:	2330306f          	j	15986 <_free_r>

0000000000011f58 <_malloc_r>:
   11f58:	711d                	addi	sp,sp,-96
   11f5a:	e4a6                	sd	s1,72(sp)
   11f5c:	e0ca                	sd	s2,64(sp)
   11f5e:	ec86                	sd	ra,88(sp)
   11f60:	e8a2                	sd	s0,80(sp)
   11f62:	fc4e                	sd	s3,56(sp)
   11f64:	f852                	sd	s4,48(sp)
   11f66:	f456                	sd	s5,40(sp)
   11f68:	f05a                	sd	s6,32(sp)
   11f6a:	ec5e                	sd	s7,24(sp)
   11f6c:	e862                	sd	s8,16(sp)
   11f6e:	e466                	sd	s9,8(sp)
   11f70:	01758493          	addi	s1,a1,23
   11f74:	02e00793          	li	a5,46
   11f78:	892a                	mv	s2,a0
   11f7a:	0497e863          	bltu	a5,s1,11fca <_malloc_r+0x72>
   11f7e:	02000793          	li	a5,32
   11f82:	1eb7e863          	bltu	a5,a1,12172 <_malloc_r+0x21a>
   11f86:	6aa000ef          	jal	ra,12630 <__malloc_lock>
   11f8a:	02000493          	li	s1,32
   11f8e:	4611                	li	a2,4
   11f90:	05000793          	li	a5,80
   11f94:	0000f997          	auipc	s3,0xf
   11f98:	8a498993          	addi	s3,s3,-1884 # 20838 <__malloc_av_>
   11f9c:	97ce                	add	a5,a5,s3
   11f9e:	6780                	ld	s0,8(a5)
   11fa0:	ff078713          	addi	a4,a5,-16 # ffffffff7ffffff0 <__BSS_END__+0xffffffff7fee92c0>
   11fa4:	1ee40863          	beq	s0,a4,12194 <_malloc_r+0x23c>
   11fa8:	641c                	ld	a5,8(s0)
   11faa:	6c14                	ld	a3,24(s0)
   11fac:	6810                	ld	a2,16(s0)
   11fae:	9bf1                	andi	a5,a5,-4
   11fb0:	97a2                	add	a5,a5,s0
   11fb2:	6798                	ld	a4,8(a5)
   11fb4:	ee14                	sd	a3,24(a2)
   11fb6:	ea90                	sd	a2,16(a3)
   11fb8:	00176713          	ori	a4,a4,1
   11fbc:	854a                	mv	a0,s2
   11fbe:	e798                	sd	a4,8(a5)
   11fc0:	672000ef          	jal	ra,12632 <__malloc_unlock>
   11fc4:	01040513          	addi	a0,s0,16
   11fc8:	aa4d                	j	1217a <_malloc_r+0x222>
   11fca:	800007b7          	lui	a5,0x80000
   11fce:	98c1                	andi	s1,s1,-16
   11fd0:	fff7c793          	not	a5,a5
   11fd4:	1897ef63          	bltu	a5,s1,12172 <_malloc_r+0x21a>
   11fd8:	18b4ed63          	bltu	s1,a1,12172 <_malloc_r+0x21a>
   11fdc:	654000ef          	jal	ra,12630 <__malloc_lock>
   11fe0:	1f700793          	li	a5,503
   11fe4:	3a97f763          	bgeu	a5,s1,12392 <_malloc_r+0x43a>
   11fe8:	0094d793          	srli	a5,s1,0x9
   11fec:	28078363          	beqz	a5,12272 <_malloc_r+0x31a>
   11ff0:	4711                	li	a4,4
   11ff2:	30f76763          	bltu	a4,a5,12300 <_malloc_r+0x3a8>
   11ff6:	0064d793          	srli	a5,s1,0x6
   11ffa:	0397861b          	addiw	a2,a5,57
   11ffe:	0016169b          	slliw	a3,a2,0x1
   12002:	0387851b          	addiw	a0,a5,56
   12006:	068e                	slli	a3,a3,0x3
   12008:	0000f997          	auipc	s3,0xf
   1200c:	83098993          	addi	s3,s3,-2000 # 20838 <__malloc_av_>
   12010:	96ce                	add	a3,a3,s3
   12012:	6680                	ld	s0,8(a3)
   12014:	16c1                	addi	a3,a3,-16
   12016:	18868363          	beq	a3,s0,1219c <_malloc_r+0x244>
   1201a:	45fd                	li	a1,31
   1201c:	a031                	j	12028 <_malloc_r+0xd0>
   1201e:	28075b63          	bgez	a4,122b4 <_malloc_r+0x35c>
   12022:	6c00                	ld	s0,24(s0)
   12024:	16868c63          	beq	a3,s0,1219c <_malloc_r+0x244>
   12028:	641c                	ld	a5,8(s0)
   1202a:	9bf1                	andi	a5,a5,-4
   1202c:	40978733          	sub	a4,a5,s1
   12030:	fee5d7e3          	bge	a1,a4,1201e <_malloc_r+0xc6>
   12034:	0209b403          	ld	s0,32(s3)
   12038:	0000f897          	auipc	a7,0xf
   1203c:	81088893          	addi	a7,a7,-2032 # 20848 <__malloc_av_+0x10>
   12040:	862a                	mv	a2,a0
   12042:	17141563          	bne	s0,a7,121ac <_malloc_r+0x254>
   12046:	0089b783          	ld	a5,8(s3)
   1204a:	4026571b          	sraiw	a4,a2,0x2
   1204e:	4585                	li	a1,1
   12050:	00e595b3          	sll	a1,a1,a4
   12054:	1ab7fc63          	bgeu	a5,a1,1220c <_malloc_r+0x2b4>
   12058:	0109b403          	ld	s0,16(s3)
   1205c:	00843a03          	ld	s4,8(s0)
   12060:	ffca7a93          	andi	s5,s4,-4
   12064:	009ae763          	bltu	s5,s1,12072 <_malloc_r+0x11a>
   12068:	409a87b3          	sub	a5,s5,s1
   1206c:	477d                	li	a4,31
   1206e:	22f74463          	blt	a4,a5,12296 <_malloc_r+0x33e>
   12072:	89818c93          	addi	s9,gp,-1896 # 21288 <__malloc_sbrk_base>
   12076:	000cb703          	ld	a4,0(s9)
   1207a:	8c81ba03          	ld	s4,-1848(gp) # 212b8 <__malloc_top_pad>
   1207e:	57fd                	li	a5,-1
   12080:	01540bb3          	add	s7,s0,s5
   12084:	9a26                	add	s4,s4,s1
   12086:	3af70463          	beq	a4,a5,1242e <_malloc_r+0x4d6>
   1208a:	6785                	lui	a5,0x1
   1208c:	07fd                	addi	a5,a5,31
   1208e:	9a3e                	add	s4,s4,a5
   12090:	77fd                	lui	a5,0xfffff
   12092:	00fa7a33          	and	s4,s4,a5
   12096:	85d2                	mv	a1,s4
   12098:	854a                	mv	a0,s2
   1209a:	5fc000ef          	jal	ra,12696 <_sbrk_r>
   1209e:	57fd                	li	a5,-1
   120a0:	8b2a                	mv	s6,a0
   120a2:	30f50d63          	beq	a0,a5,123bc <_malloc_r+0x464>
   120a6:	31756963          	bltu	a0,s7,123b8 <_malloc_r+0x460>
   120aa:	00105c17          	auipc	s8,0x105
   120ae:	c36c0c13          	addi	s8,s8,-970 # 116ce0 <__malloc_current_mallinfo>
   120b2:	000c2703          	lw	a4,0(s8)
   120b6:	014707bb          	addw	a5,a4,s4
   120ba:	00fc2023          	sw	a5,0(s8)
   120be:	86be                	mv	a3,a5
   120c0:	40ab8263          	beq	s7,a0,124c4 <_malloc_r+0x56c>
   120c4:	000cb703          	ld	a4,0(s9)
   120c8:	57fd                	li	a5,-1
   120ca:	40f70963          	beq	a4,a5,124dc <_malloc_r+0x584>
   120ce:	417b07b3          	sub	a5,s6,s7
   120d2:	9fb5                	addw	a5,a5,a3
   120d4:	00fc2023          	sw	a5,0(s8)
   120d8:	00fb7b93          	andi	s7,s6,15
   120dc:	360b8763          	beqz	s7,1244a <_malloc_r+0x4f2>
   120e0:	6705                	lui	a4,0x1
   120e2:	417b0b33          	sub	s6,s6,s7
   120e6:	01070793          	addi	a5,a4,16 # 1010 <register_fini-0xf0d8>
   120ea:	0b41                	addi	s6,s6,16
   120ec:	417787b3          	sub	a5,a5,s7
   120f0:	014b0cb3          	add	s9,s6,s4
   120f4:	41978a33          	sub	s4,a5,s9
   120f8:	177d                	addi	a4,a4,-1
   120fa:	00ea7a33          	and	s4,s4,a4
   120fe:	85d2                	mv	a1,s4
   12100:	854a                	mv	a0,s2
   12102:	594000ef          	jal	ra,12696 <_sbrk_r>
   12106:	57fd                	li	a5,-1
   12108:	40f50f63          	beq	a0,a5,12526 <_malloc_r+0x5ce>
   1210c:	41650533          	sub	a0,a0,s6
   12110:	000a071b          	sext.w	a4,s4
   12114:	9a2a                	add	s4,s4,a0
   12116:	000c2783          	lw	a5,0(s8)
   1211a:	0169b823          	sd	s6,16(s3)
   1211e:	001a6a13          	ori	s4,s4,1
   12122:	9fb9                	addw	a5,a5,a4
   12124:	00fc2023          	sw	a5,0(s8)
   12128:	014b3423          	sd	s4,8(s6)
   1212c:	3b340b63          	beq	s0,s3,124e2 <_malloc_r+0x58a>
   12130:	467d                	li	a2,31
   12132:	3b567a63          	bgeu	a2,s5,124e6 <_malloc_r+0x58e>
   12136:	6414                	ld	a3,8(s0)
   12138:	fe8a8713          	addi	a4,s5,-24
   1213c:	9b41                	andi	a4,a4,-16
   1213e:	8a85                	andi	a3,a3,1
   12140:	8ed9                	or	a3,a3,a4
   12142:	e414                	sd	a3,8(s0)
   12144:	45a5                	li	a1,9
   12146:	00e406b3          	add	a3,s0,a4
   1214a:	e68c                	sd	a1,8(a3)
   1214c:	ea8c                	sd	a1,16(a3)
   1214e:	3ee66363          	bltu	a2,a4,12534 <_malloc_r+0x5dc>
   12152:	008b3a03          	ld	s4,8(s6)
   12156:	845a                	mv	s0,s6
   12158:	8c018713          	addi	a4,gp,-1856 # 212b0 <__malloc_max_sbrked_mem>
   1215c:	6314                	ld	a3,0(a4)
   1215e:	00f6f363          	bgeu	a3,a5,12164 <_malloc_r+0x20c>
   12162:	e31c                	sd	a5,0(a4)
   12164:	8b818713          	addi	a4,gp,-1864 # 212a8 <__malloc_max_total_mem>
   12168:	6314                	ld	a3,0(a4)
   1216a:	24f6fd63          	bgeu	a3,a5,123c4 <_malloc_r+0x46c>
   1216e:	e31c                	sd	a5,0(a4)
   12170:	ac91                	j	123c4 <_malloc_r+0x46c>
   12172:	47b1                	li	a5,12
   12174:	00f92023          	sw	a5,0(s2)
   12178:	4501                	li	a0,0
   1217a:	60e6                	ld	ra,88(sp)
   1217c:	6446                	ld	s0,80(sp)
   1217e:	64a6                	ld	s1,72(sp)
   12180:	6906                	ld	s2,64(sp)
   12182:	79e2                	ld	s3,56(sp)
   12184:	7a42                	ld	s4,48(sp)
   12186:	7aa2                	ld	s5,40(sp)
   12188:	7b02                	ld	s6,32(sp)
   1218a:	6be2                	ld	s7,24(sp)
   1218c:	6c42                	ld	s8,16(sp)
   1218e:	6ca2                	ld	s9,8(sp)
   12190:	6125                	addi	sp,sp,96
   12192:	8082                	ret
   12194:	6f80                	ld	s0,24(a5)
   12196:	2609                	addiw	a2,a2,2
   12198:	e08798e3          	bne	a5,s0,11fa8 <_malloc_r+0x50>
   1219c:	0209b403          	ld	s0,32(s3)
   121a0:	0000e897          	auipc	a7,0xe
   121a4:	6a888893          	addi	a7,a7,1704 # 20848 <__malloc_av_+0x10>
   121a8:	e9140fe3          	beq	s0,a7,12046 <_malloc_r+0xee>
   121ac:	641c                	ld	a5,8(s0)
   121ae:	46fd                	li	a3,31
   121b0:	9bf1                	andi	a5,a5,-4
   121b2:	40978733          	sub	a4,a5,s1
   121b6:	1ae6c763          	blt	a3,a4,12364 <_malloc_r+0x40c>
   121ba:	0319b423          	sd	a7,40(s3)
   121be:	0319b023          	sd	a7,32(s3)
   121c2:	0a075f63          	bgez	a4,12280 <_malloc_r+0x328>
   121c6:	1ff00713          	li	a4,511
   121ca:	0ef76863          	bltu	a4,a5,122ba <_malloc_r+0x362>
   121ce:	838d                	srli	a5,a5,0x3
   121d0:	0017871b          	addiw	a4,a5,1
   121d4:	0017171b          	slliw	a4,a4,0x1
   121d8:	070e                	slli	a4,a4,0x3
   121da:	0089b503          	ld	a0,8(s3)
   121de:	974e                	add	a4,a4,s3
   121e0:	630c                	ld	a1,0(a4)
   121e2:	4027d69b          	sraiw	a3,a5,0x2
   121e6:	4785                	li	a5,1
   121e8:	00d797b3          	sll	a5,a5,a3
   121ec:	8fc9                	or	a5,a5,a0
   121ee:	ff070693          	addi	a3,a4,-16
   121f2:	ec14                	sd	a3,24(s0)
   121f4:	e80c                	sd	a1,16(s0)
   121f6:	00f9b423          	sd	a5,8(s3)
   121fa:	e300                	sd	s0,0(a4)
   121fc:	ed80                	sd	s0,24(a1)
   121fe:	4026571b          	sraiw	a4,a2,0x2
   12202:	4585                	li	a1,1
   12204:	00e595b3          	sll	a1,a1,a4
   12208:	e4b7e8e3          	bltu	a5,a1,12058 <_malloc_r+0x100>
   1220c:	00f5f733          	and	a4,a1,a5
   12210:	ef01                	bnez	a4,12228 <_malloc_r+0x2d0>
   12212:	0586                	slli	a1,a1,0x1
   12214:	9a71                	andi	a2,a2,-4
   12216:	00f5f733          	and	a4,a1,a5
   1221a:	2611                	addiw	a2,a2,4
   1221c:	e711                	bnez	a4,12228 <_malloc_r+0x2d0>
   1221e:	0586                	slli	a1,a1,0x1
   12220:	00f5f733          	and	a4,a1,a5
   12224:	2611                	addiw	a2,a2,4
   12226:	df65                	beqz	a4,1221e <_malloc_r+0x2c6>
   12228:	487d                	li	a6,31
   1222a:	0016031b          	addiw	t1,a2,1
   1222e:	0013131b          	slliw	t1,t1,0x1
   12232:	030e                	slli	t1,t1,0x3
   12234:	1341                	addi	t1,t1,-16
   12236:	934e                	add	t1,t1,s3
   12238:	851a                	mv	a0,t1
   1223a:	6d1c                	ld	a5,24(a0)
   1223c:	8e32                	mv	t3,a2
   1223e:	0ef50263          	beq	a0,a5,12322 <_malloc_r+0x3ca>
   12242:	6798                	ld	a4,8(a5)
   12244:	843e                	mv	s0,a5
   12246:	6f9c                	ld	a5,24(a5)
   12248:	9b71                	andi	a4,a4,-4
   1224a:	409706b3          	sub	a3,a4,s1
   1224e:	0ed84163          	blt	a6,a3,12330 <_malloc_r+0x3d8>
   12252:	fe06c6e3          	bltz	a3,1223e <_malloc_r+0x2e6>
   12256:	9722                	add	a4,a4,s0
   12258:	6714                	ld	a3,8(a4)
   1225a:	6810                	ld	a2,16(s0)
   1225c:	854a                	mv	a0,s2
   1225e:	0016e693          	ori	a3,a3,1
   12262:	e714                	sd	a3,8(a4)
   12264:	ee1c                	sd	a5,24(a2)
   12266:	eb90                	sd	a2,16(a5)
   12268:	3ca000ef          	jal	ra,12632 <__malloc_unlock>
   1226c:	01040513          	addi	a0,s0,16
   12270:	b729                	j	1217a <_malloc_r+0x222>
   12272:	40000693          	li	a3,1024
   12276:	04000613          	li	a2,64
   1227a:	03f00513          	li	a0,63
   1227e:	b369                	j	12008 <_malloc_r+0xb0>
   12280:	97a2                	add	a5,a5,s0
   12282:	6798                	ld	a4,8(a5)
   12284:	854a                	mv	a0,s2
   12286:	00176713          	ori	a4,a4,1
   1228a:	e798                	sd	a4,8(a5)
   1228c:	3a6000ef          	jal	ra,12632 <__malloc_unlock>
   12290:	01040513          	addi	a0,s0,16
   12294:	b5dd                	j	1217a <_malloc_r+0x222>
   12296:	0014e713          	ori	a4,s1,1
   1229a:	e418                	sd	a4,8(s0)
   1229c:	94a2                	add	s1,s1,s0
   1229e:	0099b823          	sd	s1,16(s3)
   122a2:	0017e793          	ori	a5,a5,1
   122a6:	854a                	mv	a0,s2
   122a8:	e49c                	sd	a5,8(s1)
   122aa:	388000ef          	jal	ra,12632 <__malloc_unlock>
   122ae:	01040513          	addi	a0,s0,16
   122b2:	b5e1                	j	1217a <_malloc_r+0x222>
   122b4:	6c14                	ld	a3,24(s0)
   122b6:	6810                	ld	a2,16(s0)
   122b8:	b9e5                	j	11fb0 <_malloc_r+0x58>
   122ba:	0097d713          	srli	a4,a5,0x9
   122be:	4691                	li	a3,4
   122c0:	0ee6f263          	bgeu	a3,a4,123a4 <_malloc_r+0x44c>
   122c4:	46d1                	li	a3,20
   122c6:	1ae6e863          	bltu	a3,a4,12476 <_malloc_r+0x51e>
   122ca:	05c7059b          	addiw	a1,a4,92
   122ce:	0015959b          	slliw	a1,a1,0x1
   122d2:	05b7069b          	addiw	a3,a4,91
   122d6:	058e                	slli	a1,a1,0x3
   122d8:	95ce                	add	a1,a1,s3
   122da:	6198                	ld	a4,0(a1)
   122dc:	15c1                	addi	a1,a1,-16
   122de:	14e58b63          	beq	a1,a4,12434 <_malloc_r+0x4dc>
   122e2:	6714                	ld	a3,8(a4)
   122e4:	9af1                	andi	a3,a3,-4
   122e6:	00d7f563          	bgeu	a5,a3,122f0 <_malloc_r+0x398>
   122ea:	6b18                	ld	a4,16(a4)
   122ec:	fee59be3          	bne	a1,a4,122e2 <_malloc_r+0x38a>
   122f0:	6f0c                	ld	a1,24(a4)
   122f2:	0089b783          	ld	a5,8(s3)
   122f6:	ec0c                	sd	a1,24(s0)
   122f8:	e818                	sd	a4,16(s0)
   122fa:	e980                	sd	s0,16(a1)
   122fc:	ef00                	sd	s0,24(a4)
   122fe:	b701                	j	121fe <_malloc_r+0x2a6>
   12300:	4751                	li	a4,20
   12302:	0cf77f63          	bgeu	a4,a5,123e0 <_malloc_r+0x488>
   12306:	05400713          	li	a4,84
   1230a:	18f76463          	bltu	a4,a5,12492 <_malloc_r+0x53a>
   1230e:	00c4d793          	srli	a5,s1,0xc
   12312:	06f7861b          	addiw	a2,a5,111
   12316:	0016169b          	slliw	a3,a2,0x1
   1231a:	06e7851b          	addiw	a0,a5,110
   1231e:	068e                	slli	a3,a3,0x3
   12320:	b1e5                	j	12008 <_malloc_r+0xb0>
   12322:	2e05                	addiw	t3,t3,1
   12324:	003e7793          	andi	a5,t3,3
   12328:	0541                	addi	a0,a0,16
   1232a:	cbe1                	beqz	a5,123fa <_malloc_r+0x4a2>
   1232c:	6d1c                	ld	a5,24(a0)
   1232e:	bf01                	j	1223e <_malloc_r+0x2e6>
   12330:	6810                	ld	a2,16(s0)
   12332:	0014e593          	ori	a1,s1,1
   12336:	e40c                	sd	a1,8(s0)
   12338:	ee1c                	sd	a5,24(a2)
   1233a:	eb90                	sd	a2,16(a5)
   1233c:	94a2                	add	s1,s1,s0
   1233e:	0299b423          	sd	s1,40(s3)
   12342:	0299b023          	sd	s1,32(s3)
   12346:	0016e793          	ori	a5,a3,1
   1234a:	0114bc23          	sd	a7,24(s1)
   1234e:	0114b823          	sd	a7,16(s1)
   12352:	e49c                	sd	a5,8(s1)
   12354:	9722                	add	a4,a4,s0
   12356:	854a                	mv	a0,s2
   12358:	e314                	sd	a3,0(a4)
   1235a:	2d8000ef          	jal	ra,12632 <__malloc_unlock>
   1235e:	01040513          	addi	a0,s0,16
   12362:	bd21                	j	1217a <_malloc_r+0x222>
   12364:	0014e693          	ori	a3,s1,1
   12368:	e414                	sd	a3,8(s0)
   1236a:	94a2                	add	s1,s1,s0
   1236c:	0299b423          	sd	s1,40(s3)
   12370:	0299b023          	sd	s1,32(s3)
   12374:	00176693          	ori	a3,a4,1
   12378:	0114bc23          	sd	a7,24(s1)
   1237c:	0114b823          	sd	a7,16(s1)
   12380:	e494                	sd	a3,8(s1)
   12382:	97a2                	add	a5,a5,s0
   12384:	854a                	mv	a0,s2
   12386:	e398                	sd	a4,0(a5)
   12388:	2aa000ef          	jal	ra,12632 <__malloc_unlock>
   1238c:	01040513          	addi	a0,s0,16
   12390:	b3ed                	j	1217a <_malloc_r+0x222>
   12392:	0034d613          	srli	a2,s1,0x3
   12396:	0016079b          	addiw	a5,a2,1
   1239a:	0017979b          	slliw	a5,a5,0x1
   1239e:	2601                	sext.w	a2,a2
   123a0:	078e                	slli	a5,a5,0x3
   123a2:	becd                	j	11f94 <_malloc_r+0x3c>
   123a4:	0067d713          	srli	a4,a5,0x6
   123a8:	0397059b          	addiw	a1,a4,57
   123ac:	0015959b          	slliw	a1,a1,0x1
   123b0:	0387069b          	addiw	a3,a4,56
   123b4:	058e                	slli	a1,a1,0x3
   123b6:	b70d                	j	122d8 <_malloc_r+0x380>
   123b8:	0f340b63          	beq	s0,s3,124ae <_malloc_r+0x556>
   123bc:	0109b403          	ld	s0,16(s3)
   123c0:	00843a03          	ld	s4,8(s0)
   123c4:	ffca7a13          	andi	s4,s4,-4
   123c8:	409a07b3          	sub	a5,s4,s1
   123cc:	009a6563          	bltu	s4,s1,123d6 <_malloc_r+0x47e>
   123d0:	477d                	li	a4,31
   123d2:	ecf742e3          	blt	a4,a5,12296 <_malloc_r+0x33e>
   123d6:	854a                	mv	a0,s2
   123d8:	25a000ef          	jal	ra,12632 <__malloc_unlock>
   123dc:	4501                	li	a0,0
   123de:	bb71                	j	1217a <_malloc_r+0x222>
   123e0:	05c7861b          	addiw	a2,a5,92
   123e4:	0016169b          	slliw	a3,a2,0x1
   123e8:	05b7851b          	addiw	a0,a5,91
   123ec:	068e                	slli	a3,a3,0x3
   123ee:	b929                	j	12008 <_malloc_r+0xb0>
   123f0:	01033783          	ld	a5,16(t1)
   123f4:	367d                	addiw	a2,a2,-1
   123f6:	18679563          	bne	a5,t1,12580 <_malloc_r+0x628>
   123fa:	00367793          	andi	a5,a2,3
   123fe:	1341                	addi	t1,t1,-16
   12400:	fbe5                	bnez	a5,123f0 <_malloc_r+0x498>
   12402:	0089b703          	ld	a4,8(s3)
   12406:	fff5c793          	not	a5,a1
   1240a:	8ff9                	and	a5,a5,a4
   1240c:	00f9b423          	sd	a5,8(s3)
   12410:	0586                	slli	a1,a1,0x1
   12412:	c4b7e3e3          	bltu	a5,a1,12058 <_malloc_r+0x100>
   12416:	c40581e3          	beqz	a1,12058 <_malloc_r+0x100>
   1241a:	00f5f733          	and	a4,a1,a5
   1241e:	e711                	bnez	a4,1242a <_malloc_r+0x4d2>
   12420:	0586                	slli	a1,a1,0x1
   12422:	00f5f733          	and	a4,a1,a5
   12426:	2e11                	addiw	t3,t3,4
   12428:	df65                	beqz	a4,12420 <_malloc_r+0x4c8>
   1242a:	8672                	mv	a2,t3
   1242c:	bbfd                	j	1222a <_malloc_r+0x2d2>
   1242e:	020a0a13          	addi	s4,s4,32
   12432:	b195                	j	12096 <_malloc_r+0x13e>
   12434:	0089b503          	ld	a0,8(s3)
   12438:	4026d69b          	sraiw	a3,a3,0x2
   1243c:	4785                	li	a5,1
   1243e:	00d797b3          	sll	a5,a5,a3
   12442:	8fc9                	or	a5,a5,a0
   12444:	00f9b423          	sd	a5,8(s3)
   12448:	b57d                	j	122f6 <_malloc_r+0x39e>
   1244a:	014b0bb3          	add	s7,s6,s4
   1244e:	41700bb3          	neg	s7,s7
   12452:	1bd2                	slli	s7,s7,0x34
   12454:	034bdb93          	srli	s7,s7,0x34
   12458:	85de                	mv	a1,s7
   1245a:	854a                	mv	a0,s2
   1245c:	23a000ef          	jal	ra,12696 <_sbrk_r>
   12460:	57fd                	li	a5,-1
   12462:	4701                	li	a4,0
   12464:	caf509e3          	beq	a0,a5,12116 <_malloc_r+0x1be>
   12468:	41650533          	sub	a0,a0,s6
   1246c:	000b871b          	sext.w	a4,s7
   12470:	01750a33          	add	s4,a0,s7
   12474:	b14d                	j	12116 <_malloc_r+0x1be>
   12476:	05400693          	li	a3,84
   1247a:	06e6ea63          	bltu	a3,a4,124ee <_malloc_r+0x596>
   1247e:	00c7d713          	srli	a4,a5,0xc
   12482:	06f7059b          	addiw	a1,a4,111
   12486:	0015959b          	slliw	a1,a1,0x1
   1248a:	06e7069b          	addiw	a3,a4,110
   1248e:	058e                	slli	a1,a1,0x3
   12490:	b5a1                	j	122d8 <_malloc_r+0x380>
   12492:	15400713          	li	a4,340
   12496:	06f76a63          	bltu	a4,a5,1250a <_malloc_r+0x5b2>
   1249a:	00f4d793          	srli	a5,s1,0xf
   1249e:	0787861b          	addiw	a2,a5,120
   124a2:	0016169b          	slliw	a3,a2,0x1
   124a6:	0777851b          	addiw	a0,a5,119
   124aa:	068e                	slli	a3,a3,0x3
   124ac:	beb1                	j	12008 <_malloc_r+0xb0>
   124ae:	00105c17          	auipc	s8,0x105
   124b2:	832c0c13          	addi	s8,s8,-1998 # 116ce0 <__malloc_current_mallinfo>
   124b6:	000c2783          	lw	a5,0(s8)
   124ba:	014786bb          	addw	a3,a5,s4
   124be:	00dc2023          	sw	a3,0(s8)
   124c2:	b109                	j	120c4 <_malloc_r+0x16c>
   124c4:	034b9713          	slli	a4,s7,0x34
   124c8:	be071ee3          	bnez	a4,120c4 <_malloc_r+0x16c>
   124cc:	0109b403          	ld	s0,16(s3)
   124d0:	9a56                	add	s4,s4,s5
   124d2:	001a6a13          	ori	s4,s4,1
   124d6:	01443423          	sd	s4,8(s0)
   124da:	b9bd                	j	12158 <_malloc_r+0x200>
   124dc:	016cb023          	sd	s6,0(s9)
   124e0:	bee5                	j	120d8 <_malloc_r+0x180>
   124e2:	845a                	mv	s0,s6
   124e4:	b995                	j	12158 <_malloc_r+0x200>
   124e6:	4785                	li	a5,1
   124e8:	00fb3423          	sd	a5,8(s6)
   124ec:	b5ed                	j	123d6 <_malloc_r+0x47e>
   124ee:	15400693          	li	a3,340
   124f2:	04e6ed63          	bltu	a3,a4,1254c <_malloc_r+0x5f4>
   124f6:	00f7d713          	srli	a4,a5,0xf
   124fa:	0787059b          	addiw	a1,a4,120
   124fe:	0015959b          	slliw	a1,a1,0x1
   12502:	0777069b          	addiw	a3,a4,119
   12506:	058e                	slli	a1,a1,0x3
   12508:	bbc1                	j	122d8 <_malloc_r+0x380>
   1250a:	55400713          	li	a4,1364
   1250e:	04f76d63          	bltu	a4,a5,12568 <_malloc_r+0x610>
   12512:	0124d793          	srli	a5,s1,0x12
   12516:	07d7861b          	addiw	a2,a5,125
   1251a:	0016169b          	slliw	a3,a2,0x1
   1251e:	07c7851b          	addiw	a0,a5,124
   12522:	068e                	slli	a3,a3,0x3
   12524:	b4d5                	j	12008 <_malloc_r+0xb0>
   12526:	1bc1                	addi	s7,s7,-16
   12528:	017c8a33          	add	s4,s9,s7
   1252c:	416a0a33          	sub	s4,s4,s6
   12530:	4701                	li	a4,0
   12532:	b6d5                	j	12116 <_malloc_r+0x1be>
   12534:	01040593          	addi	a1,s0,16
   12538:	854a                	mv	a0,s2
   1253a:	44c030ef          	jal	ra,15986 <_free_r>
   1253e:	0109b403          	ld	s0,16(s3)
   12542:	000c2783          	lw	a5,0(s8)
   12546:	00843a03          	ld	s4,8(s0)
   1254a:	b139                	j	12158 <_malloc_r+0x200>
   1254c:	55400693          	li	a3,1364
   12550:	02e6e363          	bltu	a3,a4,12576 <_malloc_r+0x61e>
   12554:	0127d713          	srli	a4,a5,0x12
   12558:	07d7059b          	addiw	a1,a4,125
   1255c:	0015959b          	slliw	a1,a1,0x1
   12560:	07c7069b          	addiw	a3,a4,124
   12564:	058e                	slli	a1,a1,0x3
   12566:	bb8d                	j	122d8 <_malloc_r+0x380>
   12568:	7f000693          	li	a3,2032
   1256c:	07f00613          	li	a2,127
   12570:	07e00513          	li	a0,126
   12574:	bc51                	j	12008 <_malloc_r+0xb0>
   12576:	7f000593          	li	a1,2032
   1257a:	07e00693          	li	a3,126
   1257e:	bba9                	j	122d8 <_malloc_r+0x380>
   12580:	0089b783          	ld	a5,8(s3)
   12584:	b571                	j	12410 <_malloc_r+0x4b8>

0000000000012586 <memset>:
   12586:	433d                	li	t1,15
   12588:	872a                	mv	a4,a0
   1258a:	02c37163          	bgeu	t1,a2,125ac <memset+0x26>
   1258e:	00f77793          	andi	a5,a4,15
   12592:	e3c1                	bnez	a5,12612 <memset+0x8c>
   12594:	e1bd                	bnez	a1,125fa <memset+0x74>
   12596:	ff067693          	andi	a3,a2,-16
   1259a:	8a3d                	andi	a2,a2,15
   1259c:	96ba                	add	a3,a3,a4
   1259e:	e30c                	sd	a1,0(a4)
   125a0:	e70c                	sd	a1,8(a4)
   125a2:	0741                	addi	a4,a4,16
   125a4:	fed76de3          	bltu	a4,a3,1259e <memset+0x18>
   125a8:	e211                	bnez	a2,125ac <memset+0x26>
   125aa:	8082                	ret
   125ac:	40c306b3          	sub	a3,t1,a2
   125b0:	068a                	slli	a3,a3,0x2
   125b2:	00000297          	auipc	t0,0x0
   125b6:	9696                	add	a3,a3,t0
   125b8:	00a68067          	jr	10(a3) # ffffffffffffe00a <__BSS_END__+0xffffffffffee72da>
   125bc:	00b70723          	sb	a1,14(a4)
   125c0:	00b706a3          	sb	a1,13(a4)
   125c4:	00b70623          	sb	a1,12(a4)
   125c8:	00b705a3          	sb	a1,11(a4)
   125cc:	00b70523          	sb	a1,10(a4)
   125d0:	00b704a3          	sb	a1,9(a4)
   125d4:	00b70423          	sb	a1,8(a4)
   125d8:	00b703a3          	sb	a1,7(a4)
   125dc:	00b70323          	sb	a1,6(a4)
   125e0:	00b702a3          	sb	a1,5(a4)
   125e4:	00b70223          	sb	a1,4(a4)
   125e8:	00b701a3          	sb	a1,3(a4)
   125ec:	00b70123          	sb	a1,2(a4)
   125f0:	00b700a3          	sb	a1,1(a4)
   125f4:	00b70023          	sb	a1,0(a4)
   125f8:	8082                	ret
   125fa:	0ff5f593          	zext.b	a1,a1
   125fe:	00859693          	slli	a3,a1,0x8
   12602:	8dd5                	or	a1,a1,a3
   12604:	01059693          	slli	a3,a1,0x10
   12608:	8dd5                	or	a1,a1,a3
   1260a:	02059693          	slli	a3,a1,0x20
   1260e:	8dd5                	or	a1,a1,a3
   12610:	b759                	j	12596 <memset+0x10>
   12612:	00279693          	slli	a3,a5,0x2
   12616:	00000297          	auipc	t0,0x0
   1261a:	9696                	add	a3,a3,t0
   1261c:	8286                	mv	t0,ra
   1261e:	fa2680e7          	jalr	-94(a3)
   12622:	8096                	mv	ra,t0
   12624:	17c1                	addi	a5,a5,-16
   12626:	8f1d                	sub	a4,a4,a5
   12628:	963e                	add	a2,a2,a5
   1262a:	f8c371e3          	bgeu	t1,a2,125ac <memset+0x26>
   1262e:	b79d                	j	12594 <memset+0xe>

0000000000012630 <__malloc_lock>:
   12630:	8082                	ret

0000000000012632 <__malloc_unlock>:
   12632:	8082                	ret

0000000000012634 <_printf_r>:
   12634:	715d                	addi	sp,sp,-80
   12636:	f032                	sd	a2,32(sp)
   12638:	f436                	sd	a3,40(sp)
   1263a:	f83a                	sd	a4,48(sp)
   1263c:	fc3e                	sd	a5,56(sp)
   1263e:	e0c2                	sd	a6,64(sp)
   12640:	e4c6                	sd	a7,72(sp)
   12642:	862e                	mv	a2,a1
   12644:	690c                	ld	a1,16(a0)
   12646:	1014                	addi	a3,sp,32
   12648:	ec06                	sd	ra,24(sp)
   1264a:	e436                	sd	a3,8(sp)
   1264c:	605000ef          	jal	ra,13450 <_vfprintf_r>
   12650:	60e2                	ld	ra,24(sp)
   12652:	6161                	addi	sp,sp,80
   12654:	8082                	ret

0000000000012656 <printf>:
   12656:	711d                	addi	sp,sp,-96
   12658:	f832                	sd	a2,48(sp)
   1265a:	fc36                	sd	a3,56(sp)
   1265c:	8901b303          	ld	t1,-1904(gp) # 21280 <_impure_ptr>
   12660:	f42e                	sd	a1,40(sp)
   12662:	e0ba                	sd	a4,64(sp)
   12664:	e4be                	sd	a5,72(sp)
   12666:	e8c2                	sd	a6,80(sp)
   12668:	ecc6                	sd	a7,88(sp)
   1266a:	01033583          	ld	a1,16(t1)
   1266e:	1034                	addi	a3,sp,40
   12670:	862a                	mv	a2,a0
   12672:	851a                	mv	a0,t1
   12674:	ec06                	sd	ra,24(sp)
   12676:	e436                	sd	a3,8(sp)
   12678:	5d9000ef          	jal	ra,13450 <_vfprintf_r>
   1267c:	60e2                	ld	ra,24(sp)
   1267e:	6125                	addi	sp,sp,96
   12680:	8082                	ret

0000000000012682 <_putchar_r>:
   12682:	6910                	ld	a2,16(a0)
   12684:	2110606f          	j	19094 <_putc_r>

0000000000012688 <putchar>:
   12688:	8901b783          	ld	a5,-1904(gp) # 21280 <_impure_ptr>
   1268c:	6b90                	ld	a2,16(a5)
   1268e:	85aa                	mv	a1,a0
   12690:	853e                	mv	a0,a5
   12692:	2030606f          	j	19094 <_putc_r>

0000000000012696 <_sbrk_r>:
   12696:	1141                	addi	sp,sp,-16
   12698:	e022                	sd	s0,0(sp)
   1269a:	842a                	mv	s0,a0
   1269c:	852e                	mv	a0,a1
   1269e:	00104797          	auipc	a5,0x104
   126a2:	6807a523          	sw	zero,1674(a5) # 116d28 <errno>
   126a6:	e406                	sd	ra,8(sp)
   126a8:	4400a0ef          	jal	ra,1cae8 <_sbrk>
   126ac:	57fd                	li	a5,-1
   126ae:	00f50663          	beq	a0,a5,126ba <_sbrk_r+0x24>
   126b2:	60a2                	ld	ra,8(sp)
   126b4:	6402                	ld	s0,0(sp)
   126b6:	0141                	addi	sp,sp,16
   126b8:	8082                	ret
   126ba:	00104797          	auipc	a5,0x104
   126be:	66e7a783          	lw	a5,1646(a5) # 116d28 <errno>
   126c2:	dbe5                	beqz	a5,126b2 <_sbrk_r+0x1c>
   126c4:	60a2                	ld	ra,8(sp)
   126c6:	c01c                	sw	a5,0(s0)
   126c8:	6402                	ld	s0,0(sp)
   126ca:	0141                	addi	sp,sp,16
   126cc:	8082                	ret

00000000000126ce <__sprint_r.part.0>:
   126ce:	0ac5a783          	lw	a5,172(a1)
   126d2:	715d                	addi	sp,sp,-80
   126d4:	ec56                	sd	s5,24(sp)
   126d6:	e486                	sd	ra,72(sp)
   126d8:	e0a2                	sd	s0,64(sp)
   126da:	fc26                	sd	s1,56(sp)
   126dc:	f84a                	sd	s2,48(sp)
   126de:	f44e                	sd	s3,40(sp)
   126e0:	f052                	sd	s4,32(sp)
   126e2:	e85a                	sd	s6,16(sp)
   126e4:	e45e                	sd	s7,8(sp)
   126e6:	03279713          	slli	a4,a5,0x32
   126ea:	8ab2                	mv	s5,a2
   126ec:	08075063          	bgez	a4,1276c <__sprint_r.part.0+0x9e>
   126f0:	6a18                	ld	a4,16(a2)
   126f2:	00063b03          	ld	s6,0(a2)
   126f6:	892e                	mv	s2,a1
   126f8:	89aa                	mv	s3,a0
   126fa:	5a7d                	li	s4,-1
   126fc:	c735                	beqz	a4,12768 <__sprint_r.part.0+0x9a>
   126fe:	008b3783          	ld	a5,8(s6)
   12702:	000b3403          	ld	s0,0(s6)
   12706:	8389                	srli	a5,a5,0x2
   12708:	00078b9b          	sext.w	s7,a5
   1270c:	05705763          	blez	s7,1275a <__sprint_r.part.0+0x8c>
   12710:	fff7849b          	addiw	s1,a5,-1
   12714:	1482                	slli	s1,s1,0x20
   12716:	80f9                	srli	s1,s1,0x1e
   12718:	00440793          	addi	a5,s0,4
   1271c:	94be                	add	s1,s1,a5
   1271e:	a019                	j	12724 <__sprint_r.part.0+0x56>
   12720:	02848b63          	beq	s1,s0,12756 <__sprint_r.part.0+0x88>
   12724:	400c                	lw	a1,0(s0)
   12726:	864a                	mv	a2,s2
   12728:	854e                	mv	a0,s3
   1272a:	116030ef          	jal	ra,15840 <_fputwc_r>
   1272e:	2501                	sext.w	a0,a0
   12730:	0411                	addi	s0,s0,4
   12732:	ff4517e3          	bne	a0,s4,12720 <__sprint_r.part.0+0x52>
   12736:	557d                	li	a0,-1
   12738:	60a6                	ld	ra,72(sp)
   1273a:	6406                	ld	s0,64(sp)
   1273c:	000ab823          	sd	zero,16(s5)
   12740:	000aa423          	sw	zero,8(s5)
   12744:	74e2                	ld	s1,56(sp)
   12746:	7942                	ld	s2,48(sp)
   12748:	79a2                	ld	s3,40(sp)
   1274a:	7a02                	ld	s4,32(sp)
   1274c:	6ae2                	ld	s5,24(sp)
   1274e:	6b42                	ld	s6,16(sp)
   12750:	6ba2                	ld	s7,8(sp)
   12752:	6161                	addi	sp,sp,80
   12754:	8082                	ret
   12756:	010ab703          	ld	a4,16(s5)
   1275a:	0b8a                	slli	s7,s7,0x2
   1275c:	41770733          	sub	a4,a4,s7
   12760:	00eab823          	sd	a4,16(s5)
   12764:	0b41                	addi	s6,s6,16
   12766:	ff41                	bnez	a4,126fe <__sprint_r.part.0+0x30>
   12768:	4501                	li	a0,0
   1276a:	b7f9                	j	12738 <__sprint_r.part.0+0x6a>
   1276c:	46a030ef          	jal	ra,15bd6 <__sfvwrite_r>
   12770:	b7e1                	j	12738 <__sprint_r.part.0+0x6a>

0000000000012772 <__sprint_r>:
   12772:	6a18                	ld	a4,16(a2)
   12774:	c311                	beqz	a4,12778 <__sprint_r+0x6>
   12776:	bfa1                	j	126ce <__sprint_r.part.0>
   12778:	00062423          	sw	zero,8(a2)
   1277c:	4501                	li	a0,0
   1277e:	8082                	ret

0000000000012780 <_vfiprintf_r>:
   12780:	7145                	addi	sp,sp,-464
   12782:	fb4a                	sd	s2,432(sp)
   12784:	f74e                	sd	s3,424(sp)
   12786:	eb5a                	sd	s6,400(sp)
   12788:	f6ee                	sd	s11,360(sp)
   1278a:	e786                	sd	ra,456(sp)
   1278c:	e3a2                	sd	s0,448(sp)
   1278e:	ff26                	sd	s1,440(sp)
   12790:	f352                	sd	s4,416(sp)
   12792:	ef56                	sd	s5,408(sp)
   12794:	e75e                	sd	s7,392(sp)
   12796:	e362                	sd	s8,384(sp)
   12798:	fee6                	sd	s9,376(sp)
   1279a:	faea                	sd	s10,368(sp)
   1279c:	89aa                	mv	s3,a0
   1279e:	892e                	mv	s2,a1
   127a0:	8db2                	mv	s11,a2
   127a2:	8b36                	mv	s6,a3
   127a4:	c501                	beqz	a0,127ac <_vfiprintf_r+0x2c>
   127a6:	493c                	lw	a5,80(a0)
   127a8:	3e078f63          	beqz	a5,12ba6 <_vfiprintf_r+0x426>
   127ac:	01091703          	lh	a4,16(s2)
   127b0:	03071793          	slli	a5,a4,0x30
   127b4:	03271693          	slli	a3,a4,0x32
   127b8:	93c1                	srli	a5,a5,0x30
   127ba:	0006cf63          	bltz	a3,127d8 <_vfiprintf_r+0x58>
   127be:	0ac92683          	lw	a3,172(s2)
   127c2:	6789                	lui	a5,0x2
   127c4:	8fd9                	or	a5,a5,a4
   127c6:	7779                	lui	a4,0xffffe
   127c8:	177d                	addi	a4,a4,-1
   127ca:	8f75                	and	a4,a4,a3
   127cc:	00f91823          	sh	a5,16(s2)
   127d0:	17c2                	slli	a5,a5,0x30
   127d2:	0ae92623          	sw	a4,172(s2)
   127d6:	93c1                	srli	a5,a5,0x30
   127d8:	0087f713          	andi	a4,a5,8
   127dc:	28070f63          	beqz	a4,12a7a <_vfiprintf_r+0x2fa>
   127e0:	01893703          	ld	a4,24(s2)
   127e4:	28070b63          	beqz	a4,12a7a <_vfiprintf_r+0x2fa>
   127e8:	8be9                	andi	a5,a5,26
   127ea:	4729                	li	a4,10
   127ec:	2ae78363          	beq	a5,a4,12a92 <_vfiprintf_r+0x312>
   127f0:	77e1                	lui	a5,0xffff8
   127f2:	1180                	addi	s0,sp,224
   127f4:	8307c793          	xori	a5,a5,-2000
   127f8:	f0a2                	sd	s0,96(sp)
   127fa:	f882                	sd	zero,112(sp)
   127fc:	d482                	sw	zero,104(sp)
   127fe:	8722                	mv	a4,s0
   12800:	e802                	sd	zero,16(sp)
   12802:	f802                	sd	zero,48(sp)
   12804:	e082                	sd	zero,64(sp)
   12806:	fc02                	sd	zero,56(sp)
   12808:	e402                	sd	zero,8(sp)
   1280a:	e4be                	sd	a5,72(sp)
   1280c:	000dc783          	lbu	a5,0(s11)
   12810:	1c078763          	beqz	a5,129de <_vfiprintf_r+0x25e>
   12814:	8a6e                	mv	s4,s11
   12816:	02500693          	li	a3,37
   1281a:	2ed78463          	beq	a5,a3,12b02 <_vfiprintf_r+0x382>
   1281e:	001a4783          	lbu	a5,1(s4)
   12822:	0a05                	addi	s4,s4,1
   12824:	fbfd                	bnez	a5,1281a <_vfiprintf_r+0x9a>
   12826:	41ba04bb          	subw	s1,s4,s11
   1282a:	1a048a63          	beqz	s1,129de <_vfiprintf_r+0x25e>
   1282e:	57a6                	lw	a5,104(sp)
   12830:	76c6                	ld	a3,112(sp)
   12832:	01b73023          	sd	s11,0(a4) # ffffffffffffe000 <__BSS_END__+0xffffffffffee72d0>
   12836:	0017861b          	addiw	a2,a5,1
   1283a:	96a6                	add	a3,a3,s1
   1283c:	e704                	sd	s1,8(a4)
   1283e:	f8b6                	sd	a3,112(sp)
   12840:	d4b2                	sw	a2,104(sp)
   12842:	479d                	li	a5,7
   12844:	0741                	addi	a4,a4,16
   12846:	00c7dc63          	bge	a5,a2,1285e <_vfiprintf_r+0xde>
   1284a:	080687e3          	beqz	a3,130d8 <_vfiprintf_r+0x958>
   1284e:	1090                	addi	a2,sp,96
   12850:	85ca                	mv	a1,s2
   12852:	854e                	mv	a0,s3
   12854:	e7bff0ef          	jal	ra,126ce <__sprint_r.part.0>
   12858:	18051663          	bnez	a0,129e4 <_vfiprintf_r+0x264>
   1285c:	8722                	mv	a4,s0
   1285e:	66a2                	ld	a3,8(sp)
   12860:	000a4783          	lbu	a5,0(s4)
   12864:	9ea5                	addw	a3,a3,s1
   12866:	e436                	sd	a3,8(sp)
   12868:	16078b63          	beqz	a5,129de <_vfiprintf_r+0x25e>
   1286c:	001a4683          	lbu	a3,1(s4)
   12870:	001a0d93          	addi	s11,s4,1
   12874:	04010ba3          	sb	zero,87(sp)
   12878:	5cfd                	li	s9,-1
   1287a:	4481                	li	s1,0
   1287c:	4d01                	li	s10,0
   1287e:	4a25                	li	s4,9
   12880:	02a00a93          	li	s5,42
   12884:	0d85                	addi	s11,s11,1
   12886:	2681                	sext.w	a3,a3
   12888:	05a00593          	li	a1,90
   1288c:	fe06879b          	addiw	a5,a3,-32
   12890:	0007861b          	sext.w	a2,a5
   12894:	04c5e463          	bltu	a1,a2,128dc <_vfiprintf_r+0x15c>
   12898:	1782                	slli	a5,a5,0x20
   1289a:	0000c617          	auipc	a2,0xc
   1289e:	ae660613          	addi	a2,a2,-1306 # 1e380 <__func__.4057+0x2e0>
   128a2:	83f9                	srli	a5,a5,0x1e
   128a4:	97b2                	add	a5,a5,a2
   128a6:	439c                	lw	a5,0(a5)
   128a8:	97b2                	add	a5,a5,a2
   128aa:	8782                	jr	a5
   128ac:	4481                	li	s1,0
   128ae:	000dc603          	lbu	a2,0(s11)
   128b2:	0024979b          	slliw	a5,s1,0x2
   128b6:	9cbd                	addw	s1,s1,a5
   128b8:	fd06869b          	addiw	a3,a3,-48
   128bc:	0014949b          	slliw	s1,s1,0x1
   128c0:	fd06079b          	addiw	a5,a2,-48
   128c4:	9cb5                	addw	s1,s1,a3
   128c6:	0d85                	addi	s11,s11,1
   128c8:	0006069b          	sext.w	a3,a2
   128cc:	fefa71e3          	bgeu	s4,a5,128ae <_vfiprintf_r+0x12e>
   128d0:	fe06879b          	addiw	a5,a3,-32
   128d4:	0007861b          	sext.w	a2,a5
   128d8:	fcc5f0e3          	bgeu	a1,a2,12898 <_vfiprintf_r+0x118>
   128dc:	10068163          	beqz	a3,129de <_vfiprintf_r+0x25e>
   128e0:	06d10c23          	sb	a3,120(sp)
   128e4:	04010ba3          	sb	zero,87(sp)
   128e8:	4a85                	li	s5,1
   128ea:	4a05                	li	s4,1
   128ec:	07810c13          	addi	s8,sp,120
   128f0:	4c81                	li	s9,0
   128f2:	002d7793          	andi	a5,s10,2
   128f6:	0007839b          	sext.w	t2,a5
   128fa:	c391                	beqz	a5,128fe <_vfiprintf_r+0x17e>
   128fc:	2a89                	addiw	s5,s5,2
   128fe:	5626                	lw	a2,104(sp)
   12900:	084d7f93          	andi	t6,s10,132
   12904:	77c6                	ld	a5,112(sp)
   12906:	0016051b          	addiw	a0,a2,1
   1290a:	85aa                	mv	a1,a0
   1290c:	000f9663          	bnez	t6,12918 <_vfiprintf_r+0x198>
   12910:	41548bbb          	subw	s7,s1,s5
   12914:	67704163          	bgtz	s7,12f76 <_vfiprintf_r+0x7f6>
   12918:	05714583          	lbu	a1,87(sp)
   1291c:	01070693          	addi	a3,a4,16
   12920:	c185                	beqz	a1,12940 <_vfiprintf_r+0x1c0>
   12922:	05710613          	addi	a2,sp,87
   12926:	e310                	sd	a2,0(a4)
   12928:	0785                	addi	a5,a5,1
   1292a:	4605                	li	a2,1
   1292c:	e710                	sd	a2,8(a4)
   1292e:	f8be                	sd	a5,112(sp)
   12930:	d4aa                	sw	a0,104(sp)
   12932:	471d                	li	a4,7
   12934:	5ea74063          	blt	a4,a0,12f14 <_vfiprintf_r+0x794>
   12938:	862a                	mv	a2,a0
   1293a:	8736                	mv	a4,a3
   1293c:	2505                	addiw	a0,a0,1
   1293e:	06c1                	addi	a3,a3,16
   12940:	02038c63          	beqz	t2,12978 <_vfiprintf_r+0x1f8>
   12944:	08b0                	addi	a2,sp,88
   12946:	e310                	sd	a2,0(a4)
   12948:	0789                	addi	a5,a5,2
   1294a:	4609                	li	a2,2
   1294c:	e710                	sd	a2,8(a4)
   1294e:	f8be                	sd	a5,112(sp)
   12950:	d4aa                	sw	a0,104(sp)
   12952:	471d                	li	a4,7
   12954:	5ea75a63          	bge	a4,a0,12f48 <_vfiprintf_r+0x7c8>
   12958:	78078d63          	beqz	a5,130f2 <_vfiprintf_r+0x972>
   1295c:	1090                	addi	a2,sp,96
   1295e:	85ca                	mv	a1,s2
   12960:	854e                	mv	a0,s3
   12962:	ec7e                	sd	t6,24(sp)
   12964:	d6bff0ef          	jal	ra,126ce <__sprint_r.part.0>
   12968:	ed35                	bnez	a0,129e4 <_vfiprintf_r+0x264>
   1296a:	5626                	lw	a2,104(sp)
   1296c:	77c6                	ld	a5,112(sp)
   1296e:	6fe2                	ld	t6,24(sp)
   12970:	1994                	addi	a3,sp,240
   12972:	0016051b          	addiw	a0,a2,1
   12976:	8722                	mv	a4,s0
   12978:	08000593          	li	a1,128
   1297c:	44bf8963          	beq	t6,a1,12dce <_vfiprintf_r+0x64e>
   12980:	414c8cbb          	subw	s9,s9,s4
   12984:	4f904963          	bgtz	s9,12e76 <_vfiprintf_r+0x6f6>
   12988:	97d2                	add	a5,a5,s4
   1298a:	01873023          	sd	s8,0(a4)
   1298e:	01473423          	sd	s4,8(a4)
   12992:	f8be                	sd	a5,112(sp)
   12994:	d4aa                	sw	a0,104(sp)
   12996:	471d                	li	a4,7
   12998:	00a75c63          	bge	a4,a0,129b0 <_vfiprintf_r+0x230>
   1299c:	66078663          	beqz	a5,13008 <_vfiprintf_r+0x888>
   129a0:	1090                	addi	a2,sp,96
   129a2:	85ca                	mv	a1,s2
   129a4:	854e                	mv	a0,s3
   129a6:	d29ff0ef          	jal	ra,126ce <__sprint_r.part.0>
   129aa:	ed0d                	bnez	a0,129e4 <_vfiprintf_r+0x264>
   129ac:	77c6                	ld	a5,112(sp)
   129ae:	86a2                	mv	a3,s0
   129b0:	004d7e13          	andi	t3,s10,4
   129b4:	000e0663          	beqz	t3,129c0 <_vfiprintf_r+0x240>
   129b8:	41548a3b          	subw	s4,s1,s5
   129bc:	67404063          	bgtz	s4,1301c <_vfiprintf_r+0x89c>
   129c0:	8726                	mv	a4,s1
   129c2:	0154d363          	bge	s1,s5,129c8 <_vfiprintf_r+0x248>
   129c6:	8756                	mv	a4,s5
   129c8:	66a2                	ld	a3,8(sp)
   129ca:	9f35                	addw	a4,a4,a3
   129cc:	e43a                	sd	a4,8(sp)
   129ce:	52079763          	bnez	a5,12efc <_vfiprintf_r+0x77c>
   129d2:	000dc783          	lbu	a5,0(s11)
   129d6:	d482                	sw	zero,104(sp)
   129d8:	8722                	mv	a4,s0
   129da:	e2079de3          	bnez	a5,12814 <_vfiprintf_r+0x94>
   129de:	77c6                	ld	a5,112(sp)
   129e0:	160792e3          	bnez	a5,13344 <_vfiprintf_r+0xbc4>
   129e4:	01095783          	lhu	a5,16(s2)
   129e8:	0407f793          	andi	a5,a5,64
   129ec:	180795e3          	bnez	a5,13376 <_vfiprintf_r+0xbf6>
   129f0:	60be                	ld	ra,456(sp)
   129f2:	641e                	ld	s0,448(sp)
   129f4:	6522                	ld	a0,8(sp)
   129f6:	74fa                	ld	s1,440(sp)
   129f8:	795a                	ld	s2,432(sp)
   129fa:	79ba                	ld	s3,424(sp)
   129fc:	7a1a                	ld	s4,416(sp)
   129fe:	6afa                	ld	s5,408(sp)
   12a00:	6b5a                	ld	s6,400(sp)
   12a02:	6bba                	ld	s7,392(sp)
   12a04:	6c1a                	ld	s8,384(sp)
   12a06:	7cf6                	ld	s9,376(sp)
   12a08:	7d56                	ld	s10,368(sp)
   12a0a:	7db6                	ld	s11,360(sp)
   12a0c:	6179                	addi	sp,sp,464
   12a0e:	8082                	ret
   12a10:	010d6e13          	ori	t3,s10,16
   12a14:	000dc683          	lbu	a3,0(s11)
   12a18:	000e0d1b          	sext.w	s10,t3
   12a1c:	b5a5                	j	12884 <_vfiprintf_r+0x104>
   12a1e:	010d6e13          	ori	t3,s10,16
   12a22:	000e0d1b          	sext.w	s10,t3
   12a26:	020d7793          	andi	a5,s10,32
   12a2a:	008b0693          	addi	a3,s6,8
   12a2e:	0e078e63          	beqz	a5,12b2a <_vfiprintf_r+0x3aa>
   12a32:	000b3783          	ld	a5,0(s6)
   12a36:	8a3e                	mv	s4,a5
   12a38:	1007c663          	bltz	a5,12b44 <_vfiprintf_r+0x3c4>
   12a3c:	57fd                	li	a5,-1
   12a3e:	8aea                	mv	s5,s10
   12a40:	8b36                	mv	s6,a3
   12a42:	50fc8e63          	beq	s9,a5,12f5e <_vfiprintf_r+0x7de>
   12a46:	f7fd7e13          	andi	t3,s10,-129
   12a4a:	000e0a9b          	sext.w	s5,t3
   12a4e:	760a1563          	bnez	s4,131b8 <_vfiprintf_r+0xa38>
   12a52:	500c9963          	bnez	s9,12f64 <_vfiprintf_r+0x7e4>
   12a56:	8d56                	mv	s10,s5
   12a58:	4c81                	li	s9,0
   12a5a:	4a01                	li	s4,0
   12a5c:	0dc10c13          	addi	s8,sp,220
   12a60:	87e6                	mv	a5,s9
   12a62:	014cd363          	bge	s9,s4,12a68 <_vfiprintf_r+0x2e8>
   12a66:	87d2                	mv	a5,s4
   12a68:	05714683          	lbu	a3,87(sp)
   12a6c:	00078a9b          	sext.w	s5,a5
   12a70:	e80681e3          	beqz	a3,128f2 <_vfiprintf_r+0x172>
   12a74:	00178a9b          	addiw	s5,a5,1
   12a78:	bdad                	j	128f2 <_vfiprintf_r+0x172>
   12a7a:	85ca                	mv	a1,s2
   12a7c:	854e                	mv	a0,s3
   12a7e:	68e020ef          	jal	ra,1510c <__swsetup_r>
   12a82:	0e051ae3          	bnez	a0,13376 <_vfiprintf_r+0xbf6>
   12a86:	01095783          	lhu	a5,16(s2)
   12a8a:	4729                	li	a4,10
   12a8c:	8be9                	andi	a5,a5,26
   12a8e:	d6e791e3          	bne	a5,a4,127f0 <_vfiprintf_r+0x70>
   12a92:	01291783          	lh	a5,18(s2)
   12a96:	d407cde3          	bltz	a5,127f0 <_vfiprintf_r+0x70>
   12a9a:	86da                	mv	a3,s6
   12a9c:	866e                	mv	a2,s11
   12a9e:	85ca                	mv	a1,s2
   12aa0:	854e                	mv	a0,s3
   12aa2:	11b000ef          	jal	ra,133bc <__sbprintf>
   12aa6:	e42a                	sd	a0,8(sp)
   12aa8:	b7a1                	j	129f0 <_vfiprintf_r+0x270>
   12aaa:	010d6e13          	ori	t3,s10,16
   12aae:	000e0d1b          	sext.w	s10,t3
   12ab2:	020d7793          	andi	a5,s10,32
   12ab6:	008b0693          	addi	a3,s6,8
   12aba:	cbb9                	beqz	a5,12b10 <_vfiprintf_r+0x390>
   12abc:	000b3a03          	ld	s4,0(s6)
   12ac0:	bffd7e13          	andi	t3,s10,-1025
   12ac4:	000e0a9b          	sext.w	s5,t3
   12ac8:	8b36                	mv	s6,a3
   12aca:	4781                	li	a5,0
   12acc:	04010ba3          	sb	zero,87(sp)
   12ad0:	56fd                	li	a3,-1
   12ad2:	08dc8563          	beq	s9,a3,12b5c <_vfiprintf_r+0x3dc>
   12ad6:	f7fafe13          	andi	t3,s5,-129
   12ada:	000e0d1b          	sext.w	s10,t3
   12ade:	460a1c63          	bnez	s4,12f56 <_vfiprintf_r+0x7d6>
   12ae2:	2a0c9b63          	bnez	s9,12d98 <_vfiprintf_r+0x618>
   12ae6:	fbad                	bnez	a5,12a58 <_vfiprintf_r+0x2d8>
   12ae8:	001afa13          	andi	s4,s5,1
   12aec:	0dc10c13          	addi	s8,sp,220
   12af0:	f60a08e3          	beqz	s4,12a60 <_vfiprintf_r+0x2e0>
   12af4:	03000793          	li	a5,48
   12af8:	0cf10da3          	sb	a5,219(sp)
   12afc:	0db10c13          	addi	s8,sp,219
   12b00:	b785                	j	12a60 <_vfiprintf_r+0x2e0>
   12b02:	41ba04bb          	subw	s1,s4,s11
   12b06:	d20494e3          	bnez	s1,1282e <_vfiprintf_r+0xae>
   12b0a:	000a4783          	lbu	a5,0(s4)
   12b0e:	bba9                	j	12868 <_vfiprintf_r+0xe8>
   12b10:	010d7793          	andi	a5,s10,16
   12b14:	f7c5                	bnez	a5,12abc <_vfiprintf_r+0x33c>
   12b16:	040d7793          	andi	a5,s10,64
   12b1a:	000b2a03          	lw	s4,0(s6)
   12b1e:	78078c63          	beqz	a5,132b6 <_vfiprintf_r+0xb36>
   12b22:	1a42                	slli	s4,s4,0x30
   12b24:	030a5a13          	srli	s4,s4,0x30
   12b28:	bf61                	j	12ac0 <_vfiprintf_r+0x340>
   12b2a:	010d7793          	andi	a5,s10,16
   12b2e:	f00792e3          	bnez	a5,12a32 <_vfiprintf_r+0x2b2>
   12b32:	040d7793          	andi	a5,s10,64
   12b36:	76078863          	beqz	a5,132a6 <_vfiprintf_r+0xb26>
   12b3a:	000b1a03          	lh	s4,0(s6)
   12b3e:	87d2                	mv	a5,s4
   12b40:	ee07dee3          	bgez	a5,12a3c <_vfiprintf_r+0x2bc>
   12b44:	02d00793          	li	a5,45
   12b48:	04f10ba3          	sb	a5,87(sp)
   12b4c:	8b36                	mv	s6,a3
   12b4e:	56fd                	li	a3,-1
   12b50:	41400a33          	neg	s4,s4
   12b54:	8aea                	mv	s5,s10
   12b56:	4785                	li	a5,1
   12b58:	f6dc9fe3          	bne	s9,a3,12ad6 <_vfiprintf_r+0x356>
   12b5c:	4685                	li	a3,1
   12b5e:	40d78063          	beq	a5,a3,12f5e <_vfiprintf_r+0x7de>
   12b62:	4689                	li	a3,2
   12b64:	24d78163          	beq	a5,a3,12da6 <_vfiprintf_r+0x626>
   12b68:	0dc10c13          	addi	s8,sp,220
   12b6c:	007a7793          	andi	a5,s4,7
   12b70:	03078793          	addi	a5,a5,48 # ffffffffffff8030 <__BSS_END__+0xffffffffffee1300>
   12b74:	fefc0fa3          	sb	a5,-1(s8)
   12b78:	003a5a13          	srli	s4,s4,0x3
   12b7c:	86e2                	mv	a3,s8
   12b7e:	1c7d                	addi	s8,s8,-1
   12b80:	fe0a16e3          	bnez	s4,12b6c <_vfiprintf_r+0x3ec>
   12b84:	001af613          	andi	a2,s5,1
   12b88:	22060e63          	beqz	a2,12dc4 <_vfiprintf_r+0x644>
   12b8c:	03000613          	li	a2,48
   12b90:	22c78a63          	beq	a5,a2,12dc4 <_vfiprintf_r+0x644>
   12b94:	16f9                	addi	a3,a3,-2
   12b96:	09fc                	addi	a5,sp,220
   12b98:	fecc0fa3          	sb	a2,-1(s8)
   12b9c:	40d78a3b          	subw	s4,a5,a3
   12ba0:	8d56                	mv	s10,s5
   12ba2:	8c36                	mv	s8,a3
   12ba4:	bd75                	j	12a60 <_vfiprintf_r+0x2e0>
   12ba6:	365020ef          	jal	ra,1570a <__sinit>
   12baa:	b109                	j	127ac <_vfiprintf_r+0x2c>
   12bac:	000b3c03          	ld	s8,0(s6)
   12bb0:	04010ba3          	sb	zero,87(sp)
   12bb4:	0b21                	addi	s6,s6,8
   12bb6:	6c0c0c63          	beqz	s8,1328e <_vfiprintf_r+0xb0e>
   12bba:	57fd                	li	a5,-1
   12bbc:	ec3a                	sd	a4,24(sp)
   12bbe:	66fc8963          	beq	s9,a5,13230 <_vfiprintf_r+0xab0>
   12bc2:	8666                	mv	a2,s9
   12bc4:	4581                	li	a1,0
   12bc6:	8562                	mv	a0,s8
   12bc8:	6fc050ef          	jal	ra,182c4 <memchr>
   12bcc:	6762                	ld	a4,24(sp)
   12bce:	78050263          	beqz	a0,13352 <_vfiprintf_r+0xbd2>
   12bd2:	41850a3b          	subw	s4,a0,s8
   12bd6:	4c81                	li	s9,0
   12bd8:	b561                	j	12a60 <_vfiprintf_r+0x2e0>
   12bda:	000b2783          	lw	a5,0(s6)
   12bde:	04010ba3          	sb	zero,87(sp)
   12be2:	0b21                	addi	s6,s6,8
   12be4:	06f10c23          	sb	a5,120(sp)
   12be8:	4a85                	li	s5,1
   12bea:	4a05                	li	s4,1
   12bec:	07810c13          	addi	s8,sp,120
   12bf0:	b301                	j	128f0 <_vfiprintf_r+0x170>
   12bf2:	020d6e13          	ori	t3,s10,32
   12bf6:	000dc683          	lbu	a3,0(s11)
   12bfa:	000e0d1b          	sext.w	s10,t3
   12bfe:	b159                	j	12884 <_vfiprintf_r+0x104>
   12c00:	67a6                	ld	a5,72(sp)
   12c02:	002d6e13          	ori	t3,s10,2
   12c06:	000b3a03          	ld	s4,0(s6)
   12c0a:	04f11c23          	sh	a5,88(sp)
   12c0e:	0000b797          	auipc	a5,0xb
   12c12:	75278793          	addi	a5,a5,1874 # 1e360 <__func__.4057+0x2c0>
   12c16:	e83e                	sd	a5,16(sp)
   12c18:	000e0a9b          	sext.w	s5,t3
   12c1c:	0b21                	addi	s6,s6,8
   12c1e:	4789                	li	a5,2
   12c20:	b575                	j	12acc <_vfiprintf_r+0x34c>
   12c22:	020d7793          	andi	a5,s10,32
   12c26:	000b3683          	ld	a3,0(s6)
   12c2a:	0b21                	addi	s6,s6,8
   12c2c:	e385                	bnez	a5,12c4c <_vfiprintf_r+0x4cc>
   12c2e:	010d7793          	andi	a5,s10,16
   12c32:	ef89                	bnez	a5,12c4c <_vfiprintf_r+0x4cc>
   12c34:	040d7793          	andi	a5,s10,64
   12c38:	6c079c63          	bnez	a5,13310 <_vfiprintf_r+0xb90>
   12c3c:	200d7e13          	andi	t3,s10,512
   12c40:	67a2                	ld	a5,8(sp)
   12c42:	740e0563          	beqz	t3,1338c <_vfiprintf_r+0xc0c>
   12c46:	00f68023          	sb	a5,0(a3)
   12c4a:	b6c9                	j	1280c <_vfiprintf_r+0x8c>
   12c4c:	67a2                	ld	a5,8(sp)
   12c4e:	e29c                	sd	a5,0(a3)
   12c50:	be75                	j	1280c <_vfiprintf_r+0x8c>
   12c52:	000dc683          	lbu	a3,0(s11)
   12c56:	06c00793          	li	a5,108
   12c5a:	62f68163          	beq	a3,a5,1327c <_vfiprintf_r+0xafc>
   12c5e:	010d6e13          	ori	t3,s10,16
   12c62:	000e0d1b          	sext.w	s10,t3
   12c66:	b939                	j	12884 <_vfiprintf_r+0x104>
   12c68:	000dc683          	lbu	a3,0(s11)
   12c6c:	06800793          	li	a5,104
   12c70:	5ef68d63          	beq	a3,a5,1326a <_vfiprintf_r+0xaea>
   12c74:	040d6e13          	ori	t3,s10,64
   12c78:	000e0d1b          	sext.w	s10,t3
   12c7c:	b121                	j	12884 <_vfiprintf_r+0x104>
   12c7e:	010d6e13          	ori	t3,s10,16
   12c82:	000e0a9b          	sext.w	s5,t3
   12c86:	020af793          	andi	a5,s5,32
   12c8a:	008b0693          	addi	a3,s6,8
   12c8e:	e385                	bnez	a5,12cae <_vfiprintf_r+0x52e>
   12c90:	010af793          	andi	a5,s5,16
   12c94:	ef89                	bnez	a5,12cae <_vfiprintf_r+0x52e>
   12c96:	040af793          	andi	a5,s5,64
   12c9a:	000b2a03          	lw	s4,0(s6)
   12c9e:	62078963          	beqz	a5,132d0 <_vfiprintf_r+0xb50>
   12ca2:	1a42                	slli	s4,s4,0x30
   12ca4:	030a5a13          	srli	s4,s4,0x30
   12ca8:	8b36                	mv	s6,a3
   12caa:	4785                	li	a5,1
   12cac:	b505                	j	12acc <_vfiprintf_r+0x34c>
   12cae:	000b3a03          	ld	s4,0(s6)
   12cb2:	4785                	li	a5,1
   12cb4:	8b36                	mv	s6,a3
   12cb6:	bd19                	j	12acc <_vfiprintf_r+0x34c>
   12cb8:	080d6e13          	ori	t3,s10,128
   12cbc:	000dc683          	lbu	a3,0(s11)
   12cc0:	000e0d1b          	sext.w	s10,t3
   12cc4:	b6c1                	j	12884 <_vfiprintf_r+0x104>
   12cc6:	000dc603          	lbu	a2,0(s11)
   12cca:	001d8793          	addi	a5,s11,1
   12cce:	0006069b          	sext.w	a3,a2
   12cd2:	6cca8063          	beq	s5,a2,13392 <_vfiprintf_r+0xc12>
   12cd6:	fd06061b          	addiw	a2,a2,-48
   12cda:	8dbe                	mv	s11,a5
   12cdc:	4c81                	li	s9,0
   12cde:	baca67e3          	bltu	s4,a2,1288c <_vfiprintf_r+0x10c>
   12ce2:	000dc683          	lbu	a3,0(s11)
   12ce6:	002c979b          	slliw	a5,s9,0x2
   12cea:	0197883b          	addw	a6,a5,s9
   12cee:	0018181b          	slliw	a6,a6,0x1
   12cf2:	00c80cbb          	addw	s9,a6,a2
   12cf6:	fd06861b          	addiw	a2,a3,-48
   12cfa:	0d85                	addi	s11,s11,1
   12cfc:	feca73e3          	bgeu	s4,a2,12ce2 <_vfiprintf_r+0x562>
   12d00:	b671                	j	1288c <_vfiprintf_r+0x10c>
   12d02:	000dc683          	lbu	a3,0(s11)
   12d06:	004d6e13          	ori	t3,s10,4
   12d0a:	000e0d1b          	sext.w	s10,t3
   12d0e:	be9d                	j	12884 <_vfiprintf_r+0x104>
   12d10:	02b00793          	li	a5,43
   12d14:	000dc683          	lbu	a3,0(s11)
   12d18:	04f10ba3          	sb	a5,87(sp)
   12d1c:	b6a5                	j	12884 <_vfiprintf_r+0x104>
   12d1e:	000b2483          	lw	s1,0(s6)
   12d22:	000dc683          	lbu	a3,0(s11)
   12d26:	0b21                	addi	s6,s6,8
   12d28:	b404dee3          	bgez	s1,12884 <_vfiprintf_r+0x104>
   12d2c:	409004bb          	negw	s1,s1
   12d30:	bfd9                	j	12d06 <_vfiprintf_r+0x586>
   12d32:	854e                	mv	a0,s3
   12d34:	ec3a                	sd	a4,24(sp)
   12d36:	3f2050ef          	jal	ra,18128 <_localeconv_r>
   12d3a:	651c                	ld	a5,8(a0)
   12d3c:	853e                	mv	a0,a5
   12d3e:	fc3e                	sd	a5,56(sp)
   12d40:	697060ef          	jal	ra,19bd6 <strlen>
   12d44:	87aa                	mv	a5,a0
   12d46:	854e                	mv	a0,s3
   12d48:	8bbe                	mv	s7,a5
   12d4a:	e0be                	sd	a5,64(sp)
   12d4c:	3dc050ef          	jal	ra,18128 <_localeconv_r>
   12d50:	691c                	ld	a5,16(a0)
   12d52:	6762                	ld	a4,24(sp)
   12d54:	000dc683          	lbu	a3,0(s11)
   12d58:	f83e                	sd	a5,48(sp)
   12d5a:	b20b85e3          	beqz	s7,12884 <_vfiprintf_r+0x104>
   12d5e:	b20783e3          	beqz	a5,12884 <_vfiprintf_r+0x104>
   12d62:	0007c783          	lbu	a5,0(a5)
   12d66:	b0078fe3          	beqz	a5,12884 <_vfiprintf_r+0x104>
   12d6a:	400d6e13          	ori	t3,s10,1024
   12d6e:	000e0d1b          	sext.w	s10,t3
   12d72:	be09                	j	12884 <_vfiprintf_r+0x104>
   12d74:	001d6e13          	ori	t3,s10,1
   12d78:	000dc683          	lbu	a3,0(s11)
   12d7c:	000e0d1b          	sext.w	s10,t3
   12d80:	b611                	j	12884 <_vfiprintf_r+0x104>
   12d82:	05714783          	lbu	a5,87(sp)
   12d86:	000dc683          	lbu	a3,0(s11)
   12d8a:	ae079de3          	bnez	a5,12884 <_vfiprintf_r+0x104>
   12d8e:	02000793          	li	a5,32
   12d92:	04f10ba3          	sb	a5,87(sp)
   12d96:	b4fd                	j	12884 <_vfiprintf_r+0x104>
   12d98:	4685                	li	a3,1
   12d9a:	5cd78c63          	beq	a5,a3,13372 <_vfiprintf_r+0xbf2>
   12d9e:	4689                	li	a3,2
   12da0:	8aea                	mv	s5,s10
   12da2:	dcd793e3          	bne	a5,a3,12b68 <_vfiprintf_r+0x3e8>
   12da6:	0dc10c13          	addi	s8,sp,220
   12daa:	66c2                	ld	a3,16(sp)
   12dac:	00fa7793          	andi	a5,s4,15
   12db0:	1c7d                	addi	s8,s8,-1
   12db2:	97b6                	add	a5,a5,a3
   12db4:	0007c783          	lbu	a5,0(a5)
   12db8:	004a5a13          	srli	s4,s4,0x4
   12dbc:	00fc0023          	sb	a5,0(s8)
   12dc0:	fe0a15e3          	bnez	s4,12daa <_vfiprintf_r+0x62a>
   12dc4:	09fc                	addi	a5,sp,220
   12dc6:	41878a3b          	subw	s4,a5,s8
   12dca:	8d56                	mv	s10,s5
   12dcc:	b951                	j	12a60 <_vfiprintf_r+0x2e0>
   12dce:	41548ebb          	subw	t4,s1,s5
   12dd2:	bbd057e3          	blez	t4,12980 <_vfiprintf_r+0x200>
   12dd6:	45c1                	li	a1,16
   12dd8:	5bd5d363          	bge	a1,t4,1337e <_vfiprintf_r+0xbfe>
   12ddc:	0000bb97          	auipc	s7,0xb
   12de0:	724b8b93          	addi	s7,s7,1828 # 1e500 <zeroes.4497>
   12de4:	4fc1                	li	t6,16
   12de6:	429d                	li	t0,7
   12de8:	a801                	j	12df8 <_vfiprintf_r+0x678>
   12dea:	0026039b          	addiw	t2,a2,2
   12dee:	0741                	addi	a4,a4,16
   12df0:	862e                	mv	a2,a1
   12df2:	3ec1                	addiw	t4,t4,-16
   12df4:	05dfd263          	bge	t6,t4,12e38 <_vfiprintf_r+0x6b8>
   12df8:	0016059b          	addiw	a1,a2,1
   12dfc:	07c1                	addi	a5,a5,16
   12dfe:	01773023          	sd	s7,0(a4)
   12e02:	01f73423          	sd	t6,8(a4)
   12e06:	f8be                	sd	a5,112(sp)
   12e08:	d4ae                	sw	a1,104(sp)
   12e0a:	feb2d0e3          	bge	t0,a1,12dea <_vfiprintf_r+0x66a>
   12e0e:	0e078f63          	beqz	a5,12f0c <_vfiprintf_r+0x78c>
   12e12:	1090                	addi	a2,sp,96
   12e14:	85ca                	mv	a1,s2
   12e16:	854e                	mv	a0,s3
   12e18:	ec76                	sd	t4,24(sp)
   12e1a:	8b5ff0ef          	jal	ra,126ce <__sprint_r.part.0>
   12e1e:	bc0513e3          	bnez	a0,129e4 <_vfiprintf_r+0x264>
   12e22:	6ee2                	ld	t4,24(sp)
   12e24:	5626                	lw	a2,104(sp)
   12e26:	4fc1                	li	t6,16
   12e28:	3ec1                	addiw	t4,t4,-16
   12e2a:	77c6                	ld	a5,112(sp)
   12e2c:	8722                	mv	a4,s0
   12e2e:	0016039b          	addiw	t2,a2,1
   12e32:	429d                	li	t0,7
   12e34:	fddfc2e3          	blt	t6,t4,12df8 <_vfiprintf_r+0x678>
   12e38:	01070593          	addi	a1,a4,16
   12e3c:	97f6                	add	a5,a5,t4
   12e3e:	01773023          	sd	s7,0(a4)
   12e42:	01d73423          	sd	t4,8(a4)
   12e46:	f8be                	sd	a5,112(sp)
   12e48:	d49e                	sw	t2,104(sp)
   12e4a:	471d                	li	a4,7
   12e4c:	34775863          	bge	a4,t2,1319c <_vfiprintf_r+0xa1c>
   12e50:	48078f63          	beqz	a5,132ee <_vfiprintf_r+0xb6e>
   12e54:	1090                	addi	a2,sp,96
   12e56:	85ca                	mv	a1,s2
   12e58:	854e                	mv	a0,s3
   12e5a:	875ff0ef          	jal	ra,126ce <__sprint_r.part.0>
   12e5e:	b80513e3          	bnez	a0,129e4 <_vfiprintf_r+0x264>
   12e62:	5626                	lw	a2,104(sp)
   12e64:	414c8cbb          	subw	s9,s9,s4
   12e68:	77c6                	ld	a5,112(sp)
   12e6a:	1994                	addi	a3,sp,240
   12e6c:	0016051b          	addiw	a0,a2,1
   12e70:	8722                	mv	a4,s0
   12e72:	b1905be3          	blez	s9,12988 <_vfiprintf_r+0x208>
   12e76:	45c1                	li	a1,16
   12e78:	4795d563          	bge	a1,s9,132e2 <_vfiprintf_r+0xb62>
   12e7c:	0000bb97          	auipc	s7,0xb
   12e80:	684b8b93          	addi	s7,s7,1668 # 1e500 <zeroes.4497>
   12e84:	4ec1                	li	t4,16
   12e86:	4f9d                	li	t6,7
   12e88:	a801                	j	12e98 <_vfiprintf_r+0x718>
   12e8a:	0026051b          	addiw	a0,a2,2
   12e8e:	0741                	addi	a4,a4,16
   12e90:	862e                	mv	a2,a1
   12e92:	3cc1                	addiw	s9,s9,-16
   12e94:	039edf63          	bge	t4,s9,12ed2 <_vfiprintf_r+0x752>
   12e98:	0016059b          	addiw	a1,a2,1
   12e9c:	07c1                	addi	a5,a5,16
   12e9e:	01773023          	sd	s7,0(a4)
   12ea2:	01d73423          	sd	t4,8(a4)
   12ea6:	f8be                	sd	a5,112(sp)
   12ea8:	d4ae                	sw	a1,104(sp)
   12eaa:	febfd0e3          	bge	t6,a1,12e8a <_vfiprintf_r+0x70a>
   12eae:	c3b9                	beqz	a5,12ef4 <_vfiprintf_r+0x774>
   12eb0:	1090                	addi	a2,sp,96
   12eb2:	85ca                	mv	a1,s2
   12eb4:	854e                	mv	a0,s3
   12eb6:	819ff0ef          	jal	ra,126ce <__sprint_r.part.0>
   12eba:	b20515e3          	bnez	a0,129e4 <_vfiprintf_r+0x264>
   12ebe:	5626                	lw	a2,104(sp)
   12ec0:	4ec1                	li	t4,16
   12ec2:	3cc1                	addiw	s9,s9,-16
   12ec4:	77c6                	ld	a5,112(sp)
   12ec6:	8722                	mv	a4,s0
   12ec8:	0016051b          	addiw	a0,a2,1
   12ecc:	4f9d                	li	t6,7
   12ece:	fd9ec5e3          	blt	t4,s9,12e98 <_vfiprintf_r+0x718>
   12ed2:	01070613          	addi	a2,a4,16
   12ed6:	97e6                	add	a5,a5,s9
   12ed8:	01773023          	sd	s7,0(a4)
   12edc:	01973423          	sd	s9,8(a4)
   12ee0:	f8be                	sd	a5,112(sp)
   12ee2:	d4aa                	sw	a0,104(sp)
   12ee4:	471d                	li	a4,7
   12ee6:	1ca74a63          	blt	a4,a0,130ba <_vfiprintf_r+0x93a>
   12eea:	2505                	addiw	a0,a0,1
   12eec:	01060693          	addi	a3,a2,16
   12ef0:	8732                	mv	a4,a2
   12ef2:	bc59                	j	12988 <_vfiprintf_r+0x208>
   12ef4:	4505                	li	a0,1
   12ef6:	4601                	li	a2,0
   12ef8:	8722                	mv	a4,s0
   12efa:	bf61                	j	12e92 <_vfiprintf_r+0x712>
   12efc:	1090                	addi	a2,sp,96
   12efe:	85ca                	mv	a1,s2
   12f00:	854e                	mv	a0,s3
   12f02:	fccff0ef          	jal	ra,126ce <__sprint_r.part.0>
   12f06:	ac0506e3          	beqz	a0,129d2 <_vfiprintf_r+0x252>
   12f0a:	bce9                	j	129e4 <_vfiprintf_r+0x264>
   12f0c:	4385                	li	t2,1
   12f0e:	4601                	li	a2,0
   12f10:	8722                	mv	a4,s0
   12f12:	b5c5                	j	12df2 <_vfiprintf_r+0x672>
   12f14:	1c078663          	beqz	a5,130e0 <_vfiprintf_r+0x960>
   12f18:	1090                	addi	a2,sp,96
   12f1a:	85ca                	mv	a1,s2
   12f1c:	854e                	mv	a0,s3
   12f1e:	f07e                	sd	t6,32(sp)
   12f20:	ec1e                	sd	t2,24(sp)
   12f22:	facff0ef          	jal	ra,126ce <__sprint_r.part.0>
   12f26:	aa051fe3          	bnez	a0,129e4 <_vfiprintf_r+0x264>
   12f2a:	5626                	lw	a2,104(sp)
   12f2c:	77c6                	ld	a5,112(sp)
   12f2e:	7f82                	ld	t6,32(sp)
   12f30:	63e2                	ld	t2,24(sp)
   12f32:	1994                	addi	a3,sp,240
   12f34:	0016051b          	addiw	a0,a2,1
   12f38:	8722                	mv	a4,s0
   12f3a:	b419                	j	12940 <_vfiprintf_r+0x1c0>
   12f3c:	08bc                	addi	a5,sp,88
   12f3e:	f1be                	sd	a5,224(sp)
   12f40:	4789                	li	a5,2
   12f42:	f5be                	sd	a5,232(sp)
   12f44:	4505                	li	a0,1
   12f46:	1994                	addi	a3,sp,240
   12f48:	862a                	mv	a2,a0
   12f4a:	8736                	mv	a4,a3
   12f4c:	0016051b          	addiw	a0,a2,1
   12f50:	01070693          	addi	a3,a4,16
   12f54:	b415                	j	12978 <_vfiprintf_r+0x1f8>
   12f56:	4685                	li	a3,1
   12f58:	8aea                	mv	s5,s10
   12f5a:	c0d794e3          	bne	a5,a3,12b62 <_vfiprintf_r+0x3e2>
   12f5e:	47a5                	li	a5,9
   12f60:	1d47e263          	bltu	a5,s4,13124 <_vfiprintf_r+0x9a4>
   12f64:	030a0a1b          	addiw	s4,s4,48
   12f68:	0d410da3          	sb	s4,219(sp)
   12f6c:	8d56                	mv	s10,s5
   12f6e:	4a05                	li	s4,1
   12f70:	0db10c13          	addi	s8,sp,219
   12f74:	b4f5                	j	12a60 <_vfiprintf_r+0x2e0>
   12f76:	4ec1                	li	t4,16
   12f78:	3f7ed163          	bge	t4,s7,1335a <_vfiprintf_r+0xbda>
   12f7c:	0000be97          	auipc	t4,0xb
   12f80:	574e8e93          	addi	t4,t4,1396 # 1e4f0 <blanks.4496>
   12f84:	4f41                	li	t5,16
   12f86:	429d                	li	t0,7
   12f88:	a811                	j	12f9c <_vfiprintf_r+0x81c>
   12f8a:	0026059b          	addiw	a1,a2,2
   12f8e:	0741                	addi	a4,a4,16
   12f90:	862a                	mv	a2,a0
   12f92:	3bc1                	addiw	s7,s7,-16
   12f94:	057f5763          	bge	t5,s7,12fe2 <_vfiprintf_r+0x862>
   12f98:	0016059b          	addiw	a1,a2,1
   12f9c:	07c1                	addi	a5,a5,16
   12f9e:	01d73023          	sd	t4,0(a4)
   12fa2:	01e73423          	sd	t5,8(a4)
   12fa6:	f8be                	sd	a5,112(sp)
   12fa8:	0005851b          	sext.w	a0,a1
   12fac:	d4ae                	sw	a1,104(sp)
   12fae:	fca2dee3          	bge	t0,a0,12f8a <_vfiprintf_r+0x80a>
   12fb2:	c7b9                	beqz	a5,13000 <_vfiprintf_r+0x880>
   12fb4:	1090                	addi	a2,sp,96
   12fb6:	85ca                	mv	a1,s2
   12fb8:	854e                	mv	a0,s3
   12fba:	f476                	sd	t4,40(sp)
   12fbc:	f07e                	sd	t6,32(sp)
   12fbe:	ec1e                	sd	t2,24(sp)
   12fc0:	f0eff0ef          	jal	ra,126ce <__sprint_r.part.0>
   12fc4:	a20510e3          	bnez	a0,129e4 <_vfiprintf_r+0x264>
   12fc8:	5626                	lw	a2,104(sp)
   12fca:	4f41                	li	t5,16
   12fcc:	3bc1                	addiw	s7,s7,-16
   12fce:	77c6                	ld	a5,112(sp)
   12fd0:	7ea2                	ld	t4,40(sp)
   12fd2:	7f82                	ld	t6,32(sp)
   12fd4:	63e2                	ld	t2,24(sp)
   12fd6:	8722                	mv	a4,s0
   12fd8:	0016059b          	addiw	a1,a2,1
   12fdc:	429d                	li	t0,7
   12fde:	fb7f4de3          	blt	t5,s7,12f98 <_vfiprintf_r+0x818>
   12fe2:	97de                	add	a5,a5,s7
   12fe4:	01d73023          	sd	t4,0(a4)
   12fe8:	01773423          	sd	s7,8(a4)
   12fec:	f8be                	sd	a5,112(sp)
   12fee:	d4ae                	sw	a1,104(sp)
   12ff0:	469d                	li	a3,7
   12ff2:	10b6c563          	blt	a3,a1,130fc <_vfiprintf_r+0x97c>
   12ff6:	0741                	addi	a4,a4,16
   12ff8:	0015851b          	addiw	a0,a1,1
   12ffc:	862e                	mv	a2,a1
   12ffe:	ba29                	j	12918 <_vfiprintf_r+0x198>
   13000:	4601                	li	a2,0
   13002:	4585                	li	a1,1
   13004:	8722                	mv	a4,s0
   13006:	b771                	j	12f92 <_vfiprintf_r+0x812>
   13008:	d482                	sw	zero,104(sp)
   1300a:	004d7e13          	andi	t3,s10,4
   1300e:	080e0e63          	beqz	t3,130aa <_vfiprintf_r+0x92a>
   13012:	41548a3b          	subw	s4,s1,s5
   13016:	09405a63          	blez	s4,130aa <_vfiprintf_r+0x92a>
   1301a:	86a2                	mv	a3,s0
   1301c:	4741                	li	a4,16
   1301e:	5626                	lw	a2,104(sp)
   13020:	35475263          	bge	a4,s4,13364 <_vfiprintf_r+0xbe4>
   13024:	0000be97          	auipc	t4,0xb
   13028:	4cce8e93          	addi	t4,t4,1228 # 1e4f0 <blanks.4496>
   1302c:	4cc1                	li	s9,16
   1302e:	4c1d                	li	s8,7
   13030:	a801                	j	13040 <_vfiprintf_r+0x8c0>
   13032:	0026071b          	addiw	a4,a2,2
   13036:	06c1                	addi	a3,a3,16
   13038:	862e                	mv	a2,a1
   1303a:	3a41                	addiw	s4,s4,-16
   1303c:	034cdf63          	bge	s9,s4,1307a <_vfiprintf_r+0x8fa>
   13040:	0016059b          	addiw	a1,a2,1
   13044:	07c1                	addi	a5,a5,16
   13046:	01d6b023          	sd	t4,0(a3)
   1304a:	0196b423          	sd	s9,8(a3)
   1304e:	f8be                	sd	a5,112(sp)
   13050:	d4ae                	sw	a1,104(sp)
   13052:	febc50e3          	bge	s8,a1,13032 <_vfiprintf_r+0x8b2>
   13056:	c7b1                	beqz	a5,130a2 <_vfiprintf_r+0x922>
   13058:	1090                	addi	a2,sp,96
   1305a:	85ca                	mv	a1,s2
   1305c:	854e                	mv	a0,s3
   1305e:	ec76                	sd	t4,24(sp)
   13060:	e6eff0ef          	jal	ra,126ce <__sprint_r.part.0>
   13064:	980510e3          	bnez	a0,129e4 <_vfiprintf_r+0x264>
   13068:	5626                	lw	a2,104(sp)
   1306a:	3a41                	addiw	s4,s4,-16
   1306c:	77c6                	ld	a5,112(sp)
   1306e:	6ee2                	ld	t4,24(sp)
   13070:	86a2                	mv	a3,s0
   13072:	0016071b          	addiw	a4,a2,1
   13076:	fd4cc5e3          	blt	s9,s4,13040 <_vfiprintf_r+0x8c0>
   1307a:	97d2                	add	a5,a5,s4
   1307c:	01d6b023          	sd	t4,0(a3)
   13080:	0146b423          	sd	s4,8(a3)
   13084:	f8be                	sd	a5,112(sp)
   13086:	d4ba                	sw	a4,104(sp)
   13088:	469d                	li	a3,7
   1308a:	92e6dbe3          	bge	a3,a4,129c0 <_vfiprintf_r+0x240>
   1308e:	cf91                	beqz	a5,130aa <_vfiprintf_r+0x92a>
   13090:	1090                	addi	a2,sp,96
   13092:	85ca                	mv	a1,s2
   13094:	854e                	mv	a0,s3
   13096:	e38ff0ef          	jal	ra,126ce <__sprint_r.part.0>
   1309a:	940515e3          	bnez	a0,129e4 <_vfiprintf_r+0x264>
   1309e:	77c6                	ld	a5,112(sp)
   130a0:	b205                	j	129c0 <_vfiprintf_r+0x240>
   130a2:	4705                	li	a4,1
   130a4:	4601                	li	a2,0
   130a6:	86a2                	mv	a3,s0
   130a8:	bf49                	j	1303a <_vfiprintf_r+0x8ba>
   130aa:	87a6                	mv	a5,s1
   130ac:	0154d363          	bge	s1,s5,130b2 <_vfiprintf_r+0x932>
   130b0:	87d6                	mv	a5,s5
   130b2:	6722                	ld	a4,8(sp)
   130b4:	9fb9                	addw	a5,a5,a4
   130b6:	e43e                	sd	a5,8(sp)
   130b8:	ba29                	j	129d2 <_vfiprintf_r+0x252>
   130ba:	18078f63          	beqz	a5,13258 <_vfiprintf_r+0xad8>
   130be:	1090                	addi	a2,sp,96
   130c0:	85ca                	mv	a1,s2
   130c2:	854e                	mv	a0,s3
   130c4:	e0aff0ef          	jal	ra,126ce <__sprint_r.part.0>
   130c8:	90051ee3          	bnez	a0,129e4 <_vfiprintf_r+0x264>
   130cc:	5526                	lw	a0,104(sp)
   130ce:	77c6                	ld	a5,112(sp)
   130d0:	1994                	addi	a3,sp,240
   130d2:	2505                	addiw	a0,a0,1
   130d4:	8722                	mv	a4,s0
   130d6:	b84d                	j	12988 <_vfiprintf_r+0x208>
   130d8:	d482                	sw	zero,104(sp)
   130da:	8722                	mv	a4,s0
   130dc:	f82ff06f          	j	1285e <_vfiprintf_r+0xde>
   130e0:	0c038663          	beqz	t2,131ac <_vfiprintf_r+0xa2c>
   130e4:	08bc                	addi	a5,sp,88
   130e6:	f1be                	sd	a5,224(sp)
   130e8:	4789                	li	a5,2
   130ea:	f5be                	sd	a5,232(sp)
   130ec:	4605                	li	a2,1
   130ee:	1998                	addi	a4,sp,240
   130f0:	bdb1                	j	12f4c <_vfiprintf_r+0x7cc>
   130f2:	1994                	addi	a3,sp,240
   130f4:	4505                	li	a0,1
   130f6:	4601                	li	a2,0
   130f8:	8722                	mv	a4,s0
   130fa:	b8bd                	j	12978 <_vfiprintf_r+0x1f8>
   130fc:	14078363          	beqz	a5,13242 <_vfiprintf_r+0xac2>
   13100:	1090                	addi	a2,sp,96
   13102:	85ca                	mv	a1,s2
   13104:	854e                	mv	a0,s3
   13106:	f07e                	sd	t6,32(sp)
   13108:	ec1e                	sd	t2,24(sp)
   1310a:	dc4ff0ef          	jal	ra,126ce <__sprint_r.part.0>
   1310e:	8c051be3          	bnez	a0,129e4 <_vfiprintf_r+0x264>
   13112:	5626                	lw	a2,104(sp)
   13114:	77c6                	ld	a5,112(sp)
   13116:	7f82                	ld	t6,32(sp)
   13118:	63e2                	ld	t2,24(sp)
   1311a:	8722                	mv	a4,s0
   1311c:	0016051b          	addiw	a0,a2,1
   13120:	ff8ff06f          	j	12918 <_vfiprintf_r+0x198>
   13124:	400afe13          	andi	t3,s5,1024
   13128:	2e01                	sext.w	t3,t3
   1312a:	4581                	li	a1,0
   1312c:	09f0                	addi	a2,sp,220
   1312e:	46a9                	li	a3,10
   13130:	4d25                	li	s10,9
   13132:	0ff00b93          	li	s7,255
   13136:	a039                	j	13144 <_vfiprintf_r+0x9c4>
   13138:	02da57b3          	divu	a5,s4,a3
   1313c:	c94d74e3          	bgeu	s10,s4,12dc4 <_vfiprintf_r+0x644>
   13140:	8a3e                	mv	s4,a5
   13142:	8662                	mv	a2,s8
   13144:	fff60c13          	addi	s8,a2,-1
   13148:	2585                	addiw	a1,a1,1
   1314a:	02da77b3          	remu	a5,s4,a3
   1314e:	0307879b          	addiw	a5,a5,48
   13152:	fef60fa3          	sb	a5,-1(a2)
   13156:	fe0e01e3          	beqz	t3,13138 <_vfiprintf_r+0x9b8>
   1315a:	77c2                	ld	a5,48(sp)
   1315c:	0007c783          	lbu	a5,0(a5)
   13160:	fcb79ce3          	bne	a5,a1,13138 <_vfiprintf_r+0x9b8>
   13164:	fd778ae3          	beq	a5,s7,13138 <_vfiprintf_r+0x9b8>
   13168:	c54d7ee3          	bgeu	s10,s4,12dc4 <_vfiprintf_r+0x644>
   1316c:	6786                	ld	a5,64(sp)
   1316e:	75e2                	ld	a1,56(sp)
   13170:	f072                	sd	t3,32(sp)
   13172:	40fc0c33          	sub	s8,s8,a5
   13176:	863e                	mv	a2,a5
   13178:	8562                	mv	a0,s8
   1317a:	ec3a                	sd	a4,24(sp)
   1317c:	2ef060ef          	jal	ra,19c6a <strncpy>
   13180:	7742                	ld	a4,48(sp)
   13182:	46a9                	li	a3,10
   13184:	02da57b3          	divu	a5,s4,a3
   13188:	00174603          	lbu	a2,1(a4)
   1318c:	7e02                	ld	t3,32(sp)
   1318e:	4581                	li	a1,0
   13190:	00c03633          	snez	a2,a2
   13194:	9732                	add	a4,a4,a2
   13196:	f83a                	sd	a4,48(sp)
   13198:	6762                	ld	a4,24(sp)
   1319a:	b75d                	j	13140 <_vfiprintf_r+0x9c0>
   1319c:	0013851b          	addiw	a0,t2,1
   131a0:	01058693          	addi	a3,a1,16
   131a4:	861e                	mv	a2,t2
   131a6:	872e                	mv	a4,a1
   131a8:	fd8ff06f          	j	12980 <_vfiprintf_r+0x200>
   131ac:	4601                	li	a2,0
   131ae:	1994                	addi	a3,sp,240
   131b0:	4505                	li	a0,1
   131b2:	8722                	mv	a4,s0
   131b4:	fc4ff06f          	j	12978 <_vfiprintf_r+0x1f8>
   131b8:	8b36                	mv	s6,a3
   131ba:	b355                	j	12f5e <_vfiprintf_r+0x7de>
   131bc:	0000b797          	auipc	a5,0xb
   131c0:	18c78793          	addi	a5,a5,396 # 1e348 <__func__.4057+0x2a8>
   131c4:	e83e                	sd	a5,16(sp)
   131c6:	020d7793          	andi	a5,s10,32
   131ca:	008b0613          	addi	a2,s6,8
   131ce:	efb1                	bnez	a5,1322a <_vfiprintf_r+0xaaa>
   131d0:	010d7793          	andi	a5,s10,16
   131d4:	ebb9                	bnez	a5,1322a <_vfiprintf_r+0xaaa>
   131d6:	040d7793          	andi	a5,s10,64
   131da:	000b2a03          	lw	s4,0(s6)
   131de:	c3fd                	beqz	a5,132c4 <_vfiprintf_r+0xb44>
   131e0:	1a42                	slli	s4,s4,0x30
   131e2:	030a5a13          	srli	s4,s4,0x30
   131e6:	001d7793          	andi	a5,s10,1
   131ea:	cf89                	beqz	a5,13204 <_vfiprintf_r+0xa84>
   131ec:	000a0c63          	beqz	s4,13204 <_vfiprintf_r+0xa84>
   131f0:	002d6e13          	ori	t3,s10,2
   131f4:	03000793          	li	a5,48
   131f8:	04f10c23          	sb	a5,88(sp)
   131fc:	04d10ca3          	sb	a3,89(sp)
   13200:	000e0d1b          	sext.w	s10,t3
   13204:	bffd7e13          	andi	t3,s10,-1025
   13208:	000e0a9b          	sext.w	s5,t3
   1320c:	8b32                	mv	s6,a2
   1320e:	4789                	li	a5,2
   13210:	b875                	j	12acc <_vfiprintf_r+0x34c>
   13212:	8aea                	mv	s5,s10
   13214:	bc8d                	j	12c86 <_vfiprintf_r+0x506>
   13216:	0000b797          	auipc	a5,0xb
   1321a:	14a78793          	addi	a5,a5,330 # 1e360 <__func__.4057+0x2c0>
   1321e:	e83e                	sd	a5,16(sp)
   13220:	020d7793          	andi	a5,s10,32
   13224:	008b0613          	addi	a2,s6,8
   13228:	d7c5                	beqz	a5,131d0 <_vfiprintf_r+0xa50>
   1322a:	000b3a03          	ld	s4,0(s6)
   1322e:	bf65                	j	131e6 <_vfiprintf_r+0xa66>
   13230:	8562                	mv	a0,s8
   13232:	1a5060ef          	jal	ra,19bd6 <strlen>
   13236:	6762                	ld	a4,24(sp)
   13238:	00050a1b          	sext.w	s4,a0
   1323c:	4c81                	li	s9,0
   1323e:	823ff06f          	j	12a60 <_vfiprintf_r+0x2e0>
   13242:	05714703          	lbu	a4,87(sp)
   13246:	ef45                	bnez	a4,132fe <_vfiprintf_r+0xb7e>
   13248:	ce039ae3          	bnez	t2,12f3c <_vfiprintf_r+0x7bc>
   1324c:	4601                	li	a2,0
   1324e:	4505                	li	a0,1
   13250:	1994                	addi	a3,sp,240
   13252:	8722                	mv	a4,s0
   13254:	f24ff06f          	j	12978 <_vfiprintf_r+0x1f8>
   13258:	4705                	li	a4,1
   1325a:	87d2                	mv	a5,s4
   1325c:	f1e2                	sd	s8,224(sp)
   1325e:	f5d2                	sd	s4,232(sp)
   13260:	f8d2                	sd	s4,112(sp)
   13262:	d4ba                	sw	a4,104(sp)
   13264:	1994                	addi	a3,sp,240
   13266:	f4aff06f          	j	129b0 <_vfiprintf_r+0x230>
   1326a:	200d6e13          	ori	t3,s10,512
   1326e:	001dc683          	lbu	a3,1(s11)
   13272:	000e0d1b          	sext.w	s10,t3
   13276:	0d85                	addi	s11,s11,1
   13278:	e0cff06f          	j	12884 <_vfiprintf_r+0x104>
   1327c:	020d6e13          	ori	t3,s10,32
   13280:	001dc683          	lbu	a3,1(s11)
   13284:	000e0d1b          	sext.w	s10,t3
   13288:	0d85                	addi	s11,s11,1
   1328a:	dfaff06f          	j	12884 <_vfiprintf_r+0x104>
   1328e:	4799                	li	a5,6
   13290:	000c8a1b          	sext.w	s4,s9
   13294:	0797e363          	bltu	a5,s9,132fa <_vfiprintf_r+0xb7a>
   13298:	8ad2                	mv	s5,s4
   1329a:	0000bc17          	auipc	s8,0xb
   1329e:	0dec0c13          	addi	s8,s8,222 # 1e378 <__func__.4057+0x2d8>
   132a2:	e4eff06f          	j	128f0 <_vfiprintf_r+0x170>
   132a6:	200d7793          	andi	a5,s10,512
   132aa:	c3c9                	beqz	a5,1332c <_vfiprintf_r+0xbac>
   132ac:	000b0a03          	lb	s4,0(s6)
   132b0:	87d2                	mv	a5,s4
   132b2:	f86ff06f          	j	12a38 <_vfiprintf_r+0x2b8>
   132b6:	200d7793          	andi	a5,s10,512
   132ba:	c7a5                	beqz	a5,13322 <_vfiprintf_r+0xba2>
   132bc:	0ffa7a13          	zext.b	s4,s4
   132c0:	801ff06f          	j	12ac0 <_vfiprintf_r+0x340>
   132c4:	200d7793          	andi	a5,s10,512
   132c8:	cba9                	beqz	a5,1331a <_vfiprintf_r+0xb9a>
   132ca:	0ffa7a13          	zext.b	s4,s4
   132ce:	bf21                	j	131e6 <_vfiprintf_r+0xa66>
   132d0:	200af793          	andi	a5,s5,512
   132d4:	c3ad                	beqz	a5,13336 <_vfiprintf_r+0xbb6>
   132d6:	0ffa7a13          	zext.b	s4,s4
   132da:	8b36                	mv	s6,a3
   132dc:	4785                	li	a5,1
   132de:	feeff06f          	j	12acc <_vfiprintf_r+0x34c>
   132e2:	8636                	mv	a2,a3
   132e4:	0000bb97          	auipc	s7,0xb
   132e8:	21cb8b93          	addi	s7,s7,540 # 1e500 <zeroes.4497>
   132ec:	b6ed                	j	12ed6 <_vfiprintf_r+0x756>
   132ee:	1994                	addi	a3,sp,240
   132f0:	4505                	li	a0,1
   132f2:	4601                	li	a2,0
   132f4:	8722                	mv	a4,s0
   132f6:	e8aff06f          	j	12980 <_vfiprintf_r+0x200>
   132fa:	4a19                	li	s4,6
   132fc:	bf71                	j	13298 <_vfiprintf_r+0xb18>
   132fe:	05710793          	addi	a5,sp,87
   13302:	f1be                	sd	a5,224(sp)
   13304:	4785                	li	a5,1
   13306:	f5be                	sd	a5,232(sp)
   13308:	4505                	li	a0,1
   1330a:	1994                	addi	a3,sp,240
   1330c:	e2cff06f          	j	12938 <_vfiprintf_r+0x1b8>
   13310:	67a2                	ld	a5,8(sp)
   13312:	00f69023          	sh	a5,0(a3)
   13316:	cf6ff06f          	j	1280c <_vfiprintf_r+0x8c>
   1331a:	1a02                	slli	s4,s4,0x20
   1331c:	020a5a13          	srli	s4,s4,0x20
   13320:	b5d9                	j	131e6 <_vfiprintf_r+0xa66>
   13322:	1a02                	slli	s4,s4,0x20
   13324:	020a5a13          	srli	s4,s4,0x20
   13328:	f98ff06f          	j	12ac0 <_vfiprintf_r+0x340>
   1332c:	000b2a03          	lw	s4,0(s6)
   13330:	87d2                	mv	a5,s4
   13332:	f06ff06f          	j	12a38 <_vfiprintf_r+0x2b8>
   13336:	1a02                	slli	s4,s4,0x20
   13338:	020a5a13          	srli	s4,s4,0x20
   1333c:	8b36                	mv	s6,a3
   1333e:	4785                	li	a5,1
   13340:	f8cff06f          	j	12acc <_vfiprintf_r+0x34c>
   13344:	1090                	addi	a2,sp,96
   13346:	85ca                	mv	a1,s2
   13348:	854e                	mv	a0,s3
   1334a:	b84ff0ef          	jal	ra,126ce <__sprint_r.part.0>
   1334e:	e96ff06f          	j	129e4 <_vfiprintf_r+0x264>
   13352:	8a66                	mv	s4,s9
   13354:	4c81                	li	s9,0
   13356:	f0aff06f          	j	12a60 <_vfiprintf_r+0x2e0>
   1335a:	0000be97          	auipc	t4,0xb
   1335e:	196e8e93          	addi	t4,t4,406 # 1e4f0 <blanks.4496>
   13362:	b141                	j	12fe2 <_vfiprintf_r+0x862>
   13364:	0016071b          	addiw	a4,a2,1
   13368:	0000be97          	auipc	t4,0xb
   1336c:	188e8e93          	addi	t4,t4,392 # 1e4f0 <blanks.4496>
   13370:	b329                	j	1307a <_vfiprintf_r+0x8fa>
   13372:	8aea                	mv	s5,s10
   13374:	bec5                	j	12f64 <_vfiprintf_r+0x7e4>
   13376:	57fd                	li	a5,-1
   13378:	e43e                	sd	a5,8(sp)
   1337a:	e76ff06f          	j	129f0 <_vfiprintf_r+0x270>
   1337e:	85b6                	mv	a1,a3
   13380:	83aa                	mv	t2,a0
   13382:	0000bb97          	auipc	s7,0xb
   13386:	17eb8b93          	addi	s7,s7,382 # 1e500 <zeroes.4497>
   1338a:	bc4d                	j	12e3c <_vfiprintf_r+0x6bc>
   1338c:	c29c                	sw	a5,0(a3)
   1338e:	c7eff06f          	j	1280c <_vfiprintf_r+0x8c>
   13392:	000b2683          	lw	a3,0(s6)
   13396:	0b21                	addi	s6,s6,8
   13398:	8836                	mv	a6,a3
   1339a:	0006d363          	bgez	a3,133a0 <_vfiprintf_r+0xc20>
   1339e:	587d                	li	a6,-1
   133a0:	001dc683          	lbu	a3,1(s11)
   133a4:	00080c9b          	sext.w	s9,a6
   133a8:	8dbe                	mv	s11,a5
   133aa:	cdaff06f          	j	12884 <_vfiprintf_r+0x104>

00000000000133ae <vfiprintf>:
   133ae:	86b2                	mv	a3,a2
   133b0:	862e                	mv	a2,a1
   133b2:	85aa                	mv	a1,a0
   133b4:	8901b503          	ld	a0,-1904(gp) # 21280 <_impure_ptr>
   133b8:	bc8ff06f          	j	12780 <_vfiprintf_r>

00000000000133bc <__sbprintf>:
   133bc:	0105d783          	lhu	a5,16(a1)
   133c0:	0ac5ae03          	lw	t3,172(a1)
   133c4:	0125d303          	lhu	t1,18(a1)
   133c8:	0305b883          	ld	a7,48(a1)
   133cc:	0405b803          	ld	a6,64(a1)
   133d0:	b3010113          	addi	sp,sp,-1232
   133d4:	9bf5                	andi	a5,a5,-3
   133d6:	40000713          	li	a4,1024
   133da:	4c813023          	sd	s0,1216(sp)
   133de:	00f11823          	sh	a5,16(sp)
   133e2:	842e                	mv	s0,a1
   133e4:	191c                	addi	a5,sp,176
   133e6:	858a                	mv	a1,sp
   133e8:	4a913c23          	sd	s1,1208(sp)
   133ec:	4b213823          	sd	s2,1200(sp)
   133f0:	4c113423          	sd	ra,1224(sp)
   133f4:	892a                	mv	s2,a0
   133f6:	d772                	sw	t3,172(sp)
   133f8:	00611923          	sh	t1,18(sp)
   133fc:	f846                	sd	a7,48(sp)
   133fe:	e0c2                	sd	a6,64(sp)
   13400:	e03e                	sd	a5,0(sp)
   13402:	ec3e                	sd	a5,24(sp)
   13404:	c63a                	sw	a4,12(sp)
   13406:	d03a                	sw	a4,32(sp)
   13408:	d402                	sw	zero,40(sp)
   1340a:	b76ff0ef          	jal	ra,12780 <_vfiprintf_r>
   1340e:	84aa                	mv	s1,a0
   13410:	02055963          	bgez	a0,13442 <__sbprintf+0x86>
   13414:	01015783          	lhu	a5,16(sp)
   13418:	0407f793          	andi	a5,a5,64
   1341c:	c799                	beqz	a5,1342a <__sbprintf+0x6e>
   1341e:	01045783          	lhu	a5,16(s0)
   13422:	0407e793          	ori	a5,a5,64
   13426:	00f41823          	sh	a5,16(s0)
   1342a:	4c813083          	ld	ra,1224(sp)
   1342e:	4c013403          	ld	s0,1216(sp)
   13432:	4b013903          	ld	s2,1200(sp)
   13436:	8526                	mv	a0,s1
   13438:	4b813483          	ld	s1,1208(sp)
   1343c:	4d010113          	addi	sp,sp,1232
   13440:	8082                	ret
   13442:	858a                	mv	a1,sp
   13444:	854a                	mv	a0,s2
   13446:	02c020ef          	jal	ra,15472 <_fflush_r>
   1344a:	d569                	beqz	a0,13414 <__sbprintf+0x58>
   1344c:	54fd                	li	s1,-1
   1344e:	b7d9                	j	13414 <__sbprintf+0x58>

0000000000013450 <_vfprintf_r>:
   13450:	d8010113          	addi	sp,sp,-640
   13454:	26113c23          	sd	ra,632(sp)
   13458:	25413823          	sd	s4,592(sp)
   1345c:	25513423          	sd	s5,584(sp)
   13460:	23913423          	sd	s9,552(sp)
   13464:	8a2e                	mv	s4,a1
   13466:	8cb2                	mv	s9,a2
   13468:	e836                	sd	a3,16(sp)
   1346a:	26813823          	sd	s0,624(sp)
   1346e:	26913423          	sd	s1,616(sp)
   13472:	27213023          	sd	s2,608(sp)
   13476:	25313c23          	sd	s3,600(sp)
   1347a:	25613023          	sd	s6,576(sp)
   1347e:	23713c23          	sd	s7,568(sp)
   13482:	23813823          	sd	s8,560(sp)
   13486:	23a13023          	sd	s10,544(sp)
   1348a:	21b13c23          	sd	s11,536(sp)
   1348e:	8aaa                	mv	s5,a0
   13490:	499040ef          	jal	ra,18128 <_localeconv_r>
   13494:	611c                	ld	a5,0(a0)
   13496:	853e                	mv	a0,a5
   13498:	fcbe                	sd	a5,120(sp)
   1349a:	73c060ef          	jal	ra,19bd6 <strlen>
   1349e:	f8aa                	sd	a0,112(sp)
   134a0:	e202                	sd	zero,256(sp)
   134a2:	e602                	sd	zero,264(sp)
   134a4:	000a8663          	beqz	s5,134b0 <_vfprintf_r+0x60>
   134a8:	050aa783          	lw	a5,80(s5)
   134ac:	70078063          	beqz	a5,13bac <_vfprintf_r+0x75c>
   134b0:	010a1703          	lh	a4,16(s4)
   134b4:	03071793          	slli	a5,a4,0x30
   134b8:	03271693          	slli	a3,a4,0x32
   134bc:	93c1                	srli	a5,a5,0x30
   134be:	0006cf63          	bltz	a3,134dc <_vfprintf_r+0x8c>
   134c2:	0aca2683          	lw	a3,172(s4)
   134c6:	6789                	lui	a5,0x2
   134c8:	8fd9                	or	a5,a5,a4
   134ca:	7779                	lui	a4,0xffffe
   134cc:	177d                	addi	a4,a4,-1
   134ce:	8f75                	and	a4,a4,a3
   134d0:	00fa1823          	sh	a5,16(s4)
   134d4:	17c2                	slli	a5,a5,0x30
   134d6:	0aea2623          	sw	a4,172(s4)
   134da:	93c1                	srli	a5,a5,0x30
   134dc:	0087f713          	andi	a4,a5,8
   134e0:	26070463          	beqz	a4,13748 <_vfprintf_r+0x2f8>
   134e4:	018a3703          	ld	a4,24(s4)
   134e8:	26070063          	beqz	a4,13748 <_vfprintf_r+0x2f8>
   134ec:	8be9                	andi	a5,a5,26
   134ee:	4729                	li	a4,10
   134f0:	26e78963          	beq	a5,a4,13762 <_vfprintf_r+0x312>
   134f4:	000cc783          	lbu	a5,0(s9)
   134f8:	19010b93          	addi	s7,sp,400
   134fc:	ea5e                	sd	s7,272(sp)
   134fe:	f202                	sd	zero,288(sp)
   13500:	10012c23          	sw	zero,280(sp)
   13504:	f002                	sd	zero,32(sp)
   13506:	f402                	sd	zero,40(sp)
   13508:	e102                	sd	zero,128(sp)
   1350a:	f482                	sd	zero,104(sp)
   1350c:	e502                	sd	zero,136(sp)
   1350e:	e902                	sd	zero,144(sp)
   13510:	e002                	sd	zero,0(sp)
   13512:	835e                	mv	t1,s7
   13514:	4d41                	li	s10,16
   13516:	0000b917          	auipc	s2,0xb
   1351a:	1a290913          	addi	s2,s2,418 # 1e6b8 <zeroes.4521>
   1351e:	1c078663          	beqz	a5,136ea <_vfprintf_r+0x29a>
   13522:	8466                	mv	s0,s9
   13524:	02500713          	li	a4,37
   13528:	30e78463          	beq	a5,a4,13830 <_vfprintf_r+0x3e0>
   1352c:	00144783          	lbu	a5,1(s0)
   13530:	0405                	addi	s0,s0,1
   13532:	fbfd                	bnez	a5,13528 <_vfprintf_r+0xd8>
   13534:	419404bb          	subw	s1,s0,s9
   13538:	1a048963          	beqz	s1,136ea <_vfprintf_r+0x29a>
   1353c:	7712                	ld	a4,288(sp)
   1353e:	11812783          	lw	a5,280(sp)
   13542:	01933023          	sd	s9,0(t1)
   13546:	9726                	add	a4,a4,s1
   13548:	2785                	addiw	a5,a5,1
   1354a:	00933423          	sd	s1,8(t1)
   1354e:	f23a                	sd	a4,288(sp)
   13550:	10f12c23          	sw	a5,280(sp)
   13554:	0007871b          	sext.w	a4,a5
   13558:	479d                	li	a5,7
   1355a:	0341                	addi	t1,t1,16
   1355c:	2ee7c163          	blt	a5,a4,1383e <_vfprintf_r+0x3ee>
   13560:	6702                	ld	a4,0(sp)
   13562:	00044783          	lbu	a5,0(s0)
   13566:	9f25                	addw	a4,a4,s1
   13568:	e03a                	sd	a4,0(sp)
   1356a:	18078063          	beqz	a5,136ea <_vfprintf_r+0x29a>
   1356e:	00144f03          	lbu	t5,1(s0)
   13572:	0c010fa3          	sb	zero,223(sp)
   13576:	0405                	addi	s0,s0,1
   13578:	5efd                	li	t4,-1
   1357a:	4b01                	li	s6,0
   1357c:	4481                	li	s1,0
   1357e:	49a5                	li	s3,9
   13580:	02a00c13          	li	s8,42
   13584:	0405                	addi	s0,s0,1
   13586:	000f0d9b          	sext.w	s11,t5
   1358a:	05a00693          	li	a3,90
   1358e:	fe0d879b          	addiw	a5,s11,-32
   13592:	0007871b          	sext.w	a4,a5
   13596:	04e6e663          	bltu	a3,a4,135e2 <_vfprintf_r+0x192>
   1359a:	1782                	slli	a5,a5,0x20
   1359c:	0000b717          	auipc	a4,0xb
   135a0:	f9c70713          	addi	a4,a4,-100 # 1e538 <zeroes.4497+0x38>
   135a4:	83f9                	srli	a5,a5,0x1e
   135a6:	97ba                	add	a5,a5,a4
   135a8:	439c                	lw	a5,0(a5)
   135aa:	97ba                	add	a5,a5,a4
   135ac:	8782                	jr	a5
   135ae:	4b01                	li	s6,0
   135b0:	00044703          	lbu	a4,0(s0)
   135b4:	002b179b          	slliw	a5,s6,0x2
   135b8:	01678b3b          	addw	s6,a5,s6
   135bc:	fd0d8f1b          	addiw	t5,s11,-48
   135c0:	001b1b1b          	slliw	s6,s6,0x1
   135c4:	fd07079b          	addiw	a5,a4,-48
   135c8:	0405                	addi	s0,s0,1
   135ca:	016f0b3b          	addw	s6,t5,s6
   135ce:	00070d9b          	sext.w	s11,a4
   135d2:	fcf9ffe3          	bgeu	s3,a5,135b0 <_vfprintf_r+0x160>
   135d6:	fe0d879b          	addiw	a5,s11,-32
   135da:	0007871b          	sext.w	a4,a5
   135de:	fae6fee3          	bgeu	a3,a4,1359a <_vfprintf_r+0x14a>
   135e2:	100d8463          	beqz	s11,136ea <_vfprintf_r+0x29a>
   135e6:	13b10423          	sb	s11,296(sp)
   135ea:	0c010fa3          	sb	zero,223(sp)
   135ee:	4985                	li	s3,1
   135f0:	4c05                	li	s8,1
   135f2:	12810c93          	addi	s9,sp,296
   135f6:	ec02                	sd	zero,24(sp)
   135f8:	4e81                	li	t4,0
   135fa:	e882                	sd	zero,80(sp)
   135fc:	f082                	sd	zero,96(sp)
   135fe:	ec82                	sd	zero,88(sp)
   13600:	0024f793          	andi	a5,s1,2
   13604:	0007829b          	sext.w	t0,a5
   13608:	c391                	beqz	a5,1360c <_vfprintf_r+0x1bc>
   1360a:	2989                	addiw	s3,s3,2
   1360c:	0844ff93          	andi	t6,s1,132
   13610:	7792                	ld	a5,288(sp)
   13612:	000f9663          	bnez	t6,1361e <_vfprintf_r+0x1ce>
   13616:	413b06bb          	subw	a3,s6,s3
   1361a:	2cd046e3          	bgtz	a3,140e6 <_vfprintf_r+0xc96>
   1361e:	0df14703          	lbu	a4,223(sp)
   13622:	c70d                	beqz	a4,1364c <_vfprintf_r+0x1fc>
   13624:	11812703          	lw	a4,280(sp)
   13628:	0df10693          	addi	a3,sp,223
   1362c:	00d33023          	sd	a3,0(t1)
   13630:	2705                	addiw	a4,a4,1
   13632:	4685                	li	a3,1
   13634:	0785                	addi	a5,a5,1
   13636:	00d33423          	sd	a3,8(t1)
   1363a:	10e12c23          	sw	a4,280(sp)
   1363e:	0007069b          	sext.w	a3,a4
   13642:	f23e                	sd	a5,288(sp)
   13644:	471d                	li	a4,7
   13646:	0341                	addi	t1,t1,16
   13648:	42d74863          	blt	a4,a3,13a78 <_vfprintf_r+0x628>
   1364c:	02028563          	beqz	t0,13676 <_vfprintf_r+0x226>
   13650:	11812703          	lw	a4,280(sp)
   13654:	1194                	addi	a3,sp,224
   13656:	00d33023          	sd	a3,0(t1)
   1365a:	2705                	addiw	a4,a4,1
   1365c:	4689                	li	a3,2
   1365e:	0789                	addi	a5,a5,2
   13660:	00d33423          	sd	a3,8(t1)
   13664:	10e12c23          	sw	a4,280(sp)
   13668:	0007069b          	sext.w	a3,a4
   1366c:	f23e                	sd	a5,288(sp)
   1366e:	471d                	li	a4,7
   13670:	0341                	addi	t1,t1,16
   13672:	30d74ce3          	blt	a4,a3,1418a <_vfprintf_r+0xd3a>
   13676:	08000713          	li	a4,128
   1367a:	06ef81e3          	beq	t6,a4,13edc <_vfprintf_r+0xa8c>
   1367e:	418e8ebb          	subw	t4,t4,s8
   13682:	0fd043e3          	bgtz	t4,13f68 <_vfprintf_r+0xb18>
   13686:	1004f713          	andi	a4,s1,256
   1368a:	78071663          	bnez	a4,13e16 <_vfprintf_r+0x9c6>
   1368e:	11812703          	lw	a4,280(sp)
   13692:	97e2                	add	a5,a5,s8
   13694:	01933023          	sd	s9,0(t1)
   13698:	0017069b          	addiw	a3,a4,1
   1369c:	8736                	mv	a4,a3
   1369e:	01833423          	sd	s8,8(t1)
   136a2:	10e12c23          	sw	a4,280(sp)
   136a6:	f23e                	sd	a5,288(sp)
   136a8:	471d                	li	a4,7
   136aa:	44d74963          	blt	a4,a3,13afc <_vfprintf_r+0x6ac>
   136ae:	0341                	addi	t1,t1,16
   136b0:	8891                	andi	s1,s1,4
   136b2:	c489                	beqz	s1,136bc <_vfprintf_r+0x26c>
   136b4:	413b04bb          	subw	s1,s6,s3
   136b8:	2e9048e3          	bgtz	s1,141a8 <_vfprintf_r+0xd58>
   136bc:	875a                	mv	a4,s6
   136be:	013b5363          	bge	s6,s3,136c4 <_vfprintf_r+0x274>
   136c2:	874e                	mv	a4,s3
   136c4:	6682                	ld	a3,0(sp)
   136c6:	9f35                	addw	a4,a4,a3
   136c8:	e03a                	sd	a4,0(sp)
   136ca:	10079ce3          	bnez	a5,13fe2 <_vfprintf_r+0xb92>
   136ce:	67e2                	ld	a5,24(sp)
   136d0:	10012c23          	sw	zero,280(sp)
   136d4:	c789                	beqz	a5,136de <_vfprintf_r+0x28e>
   136d6:	65e2                	ld	a1,24(sp)
   136d8:	8556                	mv	a0,s5
   136da:	2ac020ef          	jal	ra,15986 <_free_r>
   136de:	835e                	mv	t1,s7
   136e0:	8ca2                	mv	s9,s0
   136e2:	000cc783          	lbu	a5,0(s9)
   136e6:	e2079ee3          	bnez	a5,13522 <_vfprintf_r+0xd2>
   136ea:	7792                	ld	a5,288(sp)
   136ec:	c399                	beqz	a5,136f2 <_vfprintf_r+0x2a2>
   136ee:	2de0106f          	j	149cc <_vfprintf_r+0x157c>
   136f2:	010a5783          	lhu	a5,16(s4)
   136f6:	0407f793          	andi	a5,a5,64
   136fa:	c399                	beqz	a5,13700 <_vfprintf_r+0x2b0>
   136fc:	67c0106f          	j	14d78 <_vfprintf_r+0x1928>
   13700:	27813083          	ld	ra,632(sp)
   13704:	27013403          	ld	s0,624(sp)
   13708:	6502                	ld	a0,0(sp)
   1370a:	26813483          	ld	s1,616(sp)
   1370e:	26013903          	ld	s2,608(sp)
   13712:	25813983          	ld	s3,600(sp)
   13716:	25013a03          	ld	s4,592(sp)
   1371a:	24813a83          	ld	s5,584(sp)
   1371e:	24013b03          	ld	s6,576(sp)
   13722:	23813b83          	ld	s7,568(sp)
   13726:	23013c03          	ld	s8,560(sp)
   1372a:	22813c83          	ld	s9,552(sp)
   1372e:	22013d03          	ld	s10,544(sp)
   13732:	21813d83          	ld	s11,536(sp)
   13736:	28010113          	addi	sp,sp,640
   1373a:	8082                	ret
   1373c:	0104e493          	ori	s1,s1,16
   13740:	00044f03          	lbu	t5,0(s0)
   13744:	2481                	sext.w	s1,s1
   13746:	bd3d                	j	13584 <_vfprintf_r+0x134>
   13748:	85d2                	mv	a1,s4
   1374a:	8556                	mv	a0,s5
   1374c:	1c1010ef          	jal	ra,1510c <__swsetup_r>
   13750:	c119                	beqz	a0,13756 <_vfprintf_r+0x306>
   13752:	6260106f          	j	14d78 <_vfprintf_r+0x1928>
   13756:	010a5783          	lhu	a5,16(s4)
   1375a:	4729                	li	a4,10
   1375c:	8be9                	andi	a5,a5,26
   1375e:	d8e79be3          	bne	a5,a4,134f4 <_vfprintf_r+0xa4>
   13762:	012a1783          	lh	a5,18(s4)
   13766:	d807c7e3          	bltz	a5,134f4 <_vfprintf_r+0xa4>
   1376a:	66c2                	ld	a3,16(sp)
   1376c:	8666                	mv	a2,s9
   1376e:	85d2                	mv	a1,s4
   13770:	8556                	mv	a0,s5
   13772:	107010ef          	jal	ra,15078 <__sbprintf>
   13776:	e02a                	sd	a0,0(sp)
   13778:	b761                	j	13700 <_vfprintf_r+0x2b0>
   1377a:	0104e493          	ori	s1,s1,16
   1377e:	2481                	sext.w	s1,s1
   13780:	66c2                	ld	a3,16(sp)
   13782:	0204f793          	andi	a5,s1,32
   13786:	00868713          	addi	a4,a3,8
   1378a:	3a078263          	beqz	a5,13b2e <_vfprintf_r+0x6de>
   1378e:	629c                	ld	a5,0(a3)
   13790:	89be                	mv	s3,a5
   13792:	3a07cc63          	bltz	a5,13b4a <_vfprintf_r+0x6fa>
   13796:	57fd                	li	a5,-1
   13798:	48fe87e3          	beq	t4,a5,14426 <_vfprintf_r+0xfd6>
   1379c:	f7f4f493          	andi	s1,s1,-129
   137a0:	e83a                	sd	a4,16(sp)
   137a2:	0004881b          	sext.w	a6,s1
   137a6:	120993e3          	bnez	s3,140cc <_vfprintf_r+0xc7c>
   137aa:	120e94e3          	bnez	t4,140d2 <_vfprintf_r+0xc82>
   137ae:	84c2                	mv	s1,a6
   137b0:	4e81                	li	t4,0
   137b2:	4c01                	li	s8,0
   137b4:	18c10c93          	addi	s9,sp,396
   137b8:	000c099b          	sext.w	s3,s8
   137bc:	01dc5463          	bge	s8,t4,137c4 <_vfprintf_r+0x374>
   137c0:	000e899b          	sext.w	s3,t4
   137c4:	0df14783          	lbu	a5,223(sp)
   137c8:	ec02                	sd	zero,24(sp)
   137ca:	e882                	sd	zero,80(sp)
   137cc:	f082                	sd	zero,96(sp)
   137ce:	ec82                	sd	zero,88(sp)
   137d0:	e20788e3          	beqz	a5,13600 <_vfprintf_r+0x1b0>
   137d4:	2985                	addiw	s3,s3,1
   137d6:	b52d                	j	13600 <_vfprintf_r+0x1b0>
   137d8:	0104e493          	ori	s1,s1,16
   137dc:	2481                	sext.w	s1,s1
   137de:	66c2                	ld	a3,16(sp)
   137e0:	0204f793          	andi	a5,s1,32
   137e4:	00868713          	addi	a4,a3,8
   137e8:	32078463          	beqz	a5,13b10 <_vfprintf_r+0x6c0>
   137ec:	0006b983          	ld	s3,0(a3)
   137f0:	bff4f493          	andi	s1,s1,-1025
   137f4:	0004881b          	sext.w	a6,s1
   137f8:	e83a                	sd	a4,16(sp)
   137fa:	4781                	li	a5,0
   137fc:	0c010fa3          	sb	zero,223(sp)
   13800:	577d                	li	a4,-1
   13802:	36ee8063          	beq	t4,a4,13b62 <_vfprintf_r+0x712>
   13806:	f7f87493          	andi	s1,a6,-129
   1380a:	2481                	sext.w	s1,s1
   1380c:	0a099ce3          	bnez	s3,140c4 <_vfprintf_r+0xc74>
   13810:	5c0e9663          	bnez	t4,13ddc <_vfprintf_r+0x98c>
   13814:	ffd1                	bnez	a5,137b0 <_vfprintf_r+0x360>
   13816:	00187c13          	andi	s8,a6,1
   1381a:	18c10c93          	addi	s9,sp,396
   1381e:	f80c0de3          	beqz	s8,137b8 <_vfprintf_r+0x368>
   13822:	03000793          	li	a5,48
   13826:	18f105a3          	sb	a5,395(sp)
   1382a:	18b10c93          	addi	s9,sp,395
   1382e:	b769                	j	137b8 <_vfprintf_r+0x368>
   13830:	419404bb          	subw	s1,s0,s9
   13834:	d00494e3          	bnez	s1,1353c <_vfprintf_r+0xec>
   13838:	00044783          	lbu	a5,0(s0)
   1383c:	b33d                	j	1356a <_vfprintf_r+0x11a>
   1383e:	0a10                	addi	a2,sp,272
   13840:	85d2                	mv	a1,s4
   13842:	8556                	mv	a0,s5
   13844:	f2ffe0ef          	jal	ra,12772 <__sprint_r>
   13848:	ea0515e3          	bnez	a0,136f2 <_vfprintf_r+0x2a2>
   1384c:	835e                	mv	t1,s7
   1384e:	bb09                	j	13560 <_vfprintf_r+0x110>
   13850:	0084f793          	andi	a5,s1,8
   13854:	3a079ee3          	bnez	a5,14410 <_vfprintf_r+0xfc0>
   13858:	67c2                	ld	a5,16(sp)
   1385a:	ec1a                	sd	t1,24(sp)
   1385c:	e476                	sd	t4,8(sp)
   1385e:	2388                	fld	fa0,0(a5)
   13860:	00878693          	addi	a3,a5,8 # 2008 <register_fini-0xe0e0>
   13864:	e836                	sd	a3,16(sp)
   13866:	4620a0ef          	jal	ra,1dcc8 <__extenddftf2>
   1386a:	6362                	ld	t1,24(sp)
   1386c:	6ea2                	ld	t4,8(sp)
   1386e:	e22a                	sd	a0,256(sp)
   13870:	e62e                	sd	a1,264(sp)
   13872:	0208                	addi	a0,sp,256
   13874:	ec1a                	sd	t1,24(sp)
   13876:	e476                	sd	t4,8(sp)
   13878:	009040ef          	jal	ra,18080 <_ldcheck>
   1387c:	d5aa                	sw	a0,232(sp)
   1387e:	4789                	li	a5,2
   13880:	6ea2                	ld	t4,8(sp)
   13882:	6362                	ld	t1,24(sp)
   13884:	64f502e3          	beq	a0,a5,146c8 <_vfprintf_r+0x1278>
   13888:	4785                	li	a5,1
   1388a:	6ef50ee3          	beq	a0,a5,14786 <_vfprintf_r+0x1336>
   1388e:	06100793          	li	a5,97
   13892:	00fd9463          	bne	s11,a5,1389a <_vfprintf_r+0x44a>
   13896:	5740106f          	j	14e0a <_vfprintf_r+0x19ba>
   1389a:	04100793          	li	a5,65
   1389e:	00fd9463          	bne	s11,a5,138a6 <_vfprintf_r+0x456>
   138a2:	1380106f          	j	149da <_vfprintf_r+0x158a>
   138a6:	fdfdf713          	andi	a4,s11,-33
   138aa:	57fd                	li	a5,-1
   138ac:	f0ba                	sd	a4,96(sp)
   138ae:	00fe9463          	bne	t4,a5,138b6 <_vfprintf_r+0x466>
   138b2:	6140106f          	j	14ec6 <_vfprintf_r+0x1a76>
   138b6:	04700793          	li	a5,71
   138ba:	00f71463          	bne	a4,a5,138c2 <_vfprintf_r+0x472>
   138be:	5c40106f          	j	14e82 <_vfprintf_r+0x1a32>
   138c2:	69b2                	ld	s3,264(sp)
   138c4:	1004e793          	ori	a5,s1,256
   138c8:	ed26                	sd	s1,152(sp)
   138ca:	6c12                	ld	s8,256(sp)
   138cc:	2781                	sext.w	a5,a5
   138ce:	0009d463          	bgez	s3,138d6 <_vfprintf_r+0x486>
   138d2:	67a0106f          	j	14f4c <_vfprintf_r+0x1afc>
   138d6:	e582                	sd	zero,200(sp)
   138d8:	84be                	mv	s1,a5
   138da:	ec02                	sd	zero,24(sp)
   138dc:	2701                	sext.w	a4,a4
   138de:	04600793          	li	a5,70
   138e2:	00f71463          	bne	a4,a5,138ea <_vfprintf_r+0x49a>
   138e6:	38a0106f          	j	14c70 <_vfprintf_r+0x1820>
   138ea:	7706                	ld	a4,96(sp)
   138ec:	04500793          	li	a5,69
   138f0:	00f70463          	beq	a4,a5,138f8 <_vfprintf_r+0x4a8>
   138f4:	33c0106f          	j	14c30 <_vfprintf_r+0x17e0>
   138f8:	001e871b          	addiw	a4,t4,1
   138fc:	0f810893          	addi	a7,sp,248
   13900:	0ec10813          	addi	a6,sp,236
   13904:	11bc                	addi	a5,sp,232
   13906:	4689                	li	a3,2
   13908:	85e2                	mv	a1,s8
   1390a:	864e                	mv	a2,s3
   1390c:	8556                	mv	a0,s5
   1390e:	f81a                	sd	t1,48(sp)
   13910:	f076                	sd	t4,32(sp)
   13912:	e43a                	sd	a4,8(sp)
   13914:	0f5030ef          	jal	ra,17208 <_ldtoa_r>
   13918:	6722                	ld	a4,8(sp)
   1391a:	7e82                	ld	t4,32(sp)
   1391c:	7342                	ld	t1,48(sp)
   1391e:	8caa                	mv	s9,a0
   13920:	00e508b3          	add	a7,a0,a4
   13924:	4601                	li	a2,0
   13926:	4681                	li	a3,0
   13928:	8562                	mv	a0,s8
   1392a:	85ce                	mv	a1,s3
   1392c:	f846                	sd	a7,48(sp)
   1392e:	f01a                	sd	t1,32(sp)
   13930:	e476                	sd	t4,8(sp)
   13932:	2b2090ef          	jal	ra,1cbe4 <__eqtf2>
   13936:	78c2                	ld	a7,48(sp)
   13938:	6ea2                	ld	t4,8(sp)
   1393a:	7302                	ld	t1,32(sp)
   1393c:	87c6                	mv	a5,a7
   1393e:	cd11                	beqz	a0,1395a <_vfprintf_r+0x50a>
   13940:	77ee                	ld	a5,248(sp)
   13942:	0117fc63          	bgeu	a5,a7,1395a <_vfprintf_r+0x50a>
   13946:	03000693          	li	a3,48
   1394a:	00178713          	addi	a4,a5,1
   1394e:	fdba                	sd	a4,248(sp)
   13950:	00d78023          	sb	a3,0(a5)
   13954:	77ee                	ld	a5,248(sp)
   13956:	ff17eae3          	bltu	a5,a7,1394a <_vfprintf_r+0x4fa>
   1395a:	419787bb          	subw	a5,a5,s9
   1395e:	f03e                	sd	a5,32(sp)
   13960:	572e                	lw	a4,232(sp)
   13962:	04700793          	li	a5,71
   13966:	ecba                	sd	a4,88(sp)
   13968:	7706                	ld	a4,96(sp)
   1396a:	00f71463          	bne	a4,a5,13972 <_vfprintf_r+0x522>
   1396e:	2200106f          	j	14b8e <_vfprintf_r+0x173e>
   13972:	7706                	ld	a4,96(sp)
   13974:	04600793          	li	a5,70
   13978:	00f71463          	bne	a4,a5,13980 <_vfprintf_r+0x530>
   1397c:	3c40106f          	j	14d40 <_vfprintf_r+0x18f0>
   13980:	67e6                	ld	a5,88(sp)
   13982:	7586                	ld	a1,96(sp)
   13984:	04100613          	li	a2,65
   13988:	37fd                	addiw	a5,a5,-1
   1398a:	d5be                	sw	a5,232(sp)
   1398c:	0ffdf713          	zext.b	a4,s11
   13990:	4681                	li	a3,0
   13992:	00c59663          	bne	a1,a2,1399e <_vfprintf_r+0x54e>
   13996:	273d                	addiw	a4,a4,15
   13998:	0ff77713          	zext.b	a4,a4
   1399c:	4685                	li	a3,1
   1399e:	0ee10823          	sb	a4,240(sp)
   139a2:	02b00713          	li	a4,43
   139a6:	0007d763          	bgez	a5,139b4 <_vfprintf_r+0x564>
   139aa:	6766                	ld	a4,88(sp)
   139ac:	4785                	li	a5,1
   139ae:	9f99                	subw	a5,a5,a4
   139b0:	02d00713          	li	a4,45
   139b4:	0ee108a3          	sb	a4,241(sp)
   139b8:	4725                	li	a4,9
   139ba:	00f74463          	blt	a4,a5,139c2 <_vfprintf_r+0x572>
   139be:	5e00106f          	j	14f9e <_vfprintf_r+0x1b4e>
   139c2:	0ff10513          	addi	a0,sp,255
   139c6:	85aa                	mv	a1,a0
   139c8:	46a9                	li	a3,10
   139ca:	06300e93          	li	t4,99
   139ce:	02d7e73b          	remw	a4,a5,a3
   139d2:	862e                	mv	a2,a1
   139d4:	88be                	mv	a7,a5
   139d6:	15fd                	addi	a1,a1,-1
   139d8:	0307071b          	addiw	a4,a4,48
   139dc:	fee60fa3          	sb	a4,-1(a2)
   139e0:	02d7c7bb          	divw	a5,a5,a3
   139e4:	ff1ec5e3          	blt	t4,a7,139ce <_vfprintf_r+0x57e>
   139e8:	0307879b          	addiw	a5,a5,48
   139ec:	0ff7f693          	zext.b	a3,a5
   139f0:	fed58fa3          	sb	a3,-1(a1)
   139f4:	ffe60793          	addi	a5,a2,-2
   139f8:	00a7e463          	bltu	a5,a0,13a00 <_vfprintf_r+0x5b0>
   139fc:	6560106f          	j	15052 <_vfprintf_r+0x1c02>
   13a00:	0f210713          	addi	a4,sp,242
   13a04:	a019                	j	13a0a <_vfprintf_r+0x5ba>
   13a06:	0007c683          	lbu	a3,0(a5)
   13a0a:	00d70023          	sb	a3,0(a4)
   13a0e:	0785                	addi	a5,a5,1
   13a10:	0705                	addi	a4,a4,1
   13a12:	fea79ae3          	bne	a5,a0,13a06 <_vfprintf_r+0x5b6>
   13a16:	10110793          	addi	a5,sp,257
   13a1a:	0f210713          	addi	a4,sp,242
   13a1e:	8f91                	sub	a5,a5,a2
   13a20:	97ba                	add	a5,a5,a4
   13a22:	1998                	addi	a4,sp,240
   13a24:	9f99                	subw	a5,a5,a4
   13a26:	e13e                	sd	a5,128(sp)
   13a28:	678a                	ld	a5,128(sp)
   13a2a:	7682                	ld	a3,32(sp)
   13a2c:	4705                	li	a4,1
   13a2e:	00f68c3b          	addw	s8,a3,a5
   13a32:	87e2                	mv	a5,s8
   13a34:	00d74463          	blt	a4,a3,13a3c <_vfprintf_r+0x5ec>
   13a38:	5a00106f          	j	14fd8 <_vfprintf_r+0x1b88>
   13a3c:	7746                	ld	a4,112(sp)
   13a3e:	00e78c3b          	addw	s8,a5,a4
   13a42:	67ea                	ld	a5,152(sp)
   13a44:	fffc4993          	not	s3,s8
   13a48:	43f9d993          	srai	s3,s3,0x3f
   13a4c:	bff7f493          	andi	s1,a5,-1025
   13a50:	2481                	sext.w	s1,s1
   13a52:	013c79b3          	and	s3,s8,s3
   13a56:	1004e493          	ori	s1,s1,256
   13a5a:	2981                	sext.w	s3,s3
   13a5c:	e882                	sd	zero,80(sp)
   13a5e:	f082                	sd	zero,96(sp)
   13a60:	ec82                	sd	zero,88(sp)
   13a62:	67ae                	ld	a5,200(sp)
   13a64:	e399                	bnez	a5,13a6a <_vfprintf_r+0x61a>
   13a66:	17e0106f          	j	14be4 <_vfprintf_r+0x1794>
   13a6a:	02d00793          	li	a5,45
   13a6e:	0cf10fa3          	sb	a5,223(sp)
   13a72:	4e81                	li	t4,0
   13a74:	2985                	addiw	s3,s3,1
   13a76:	b669                	j	13600 <_vfprintf_r+0x1b0>
   13a78:	0a10                	addi	a2,sp,272
   13a7a:	85d2                	mv	a1,s4
   13a7c:	8556                	mv	a0,s5
   13a7e:	fc76                	sd	t4,56(sp)
   13a80:	f87e                	sd	t6,48(sp)
   13a82:	e416                	sd	t0,8(sp)
   13a84:	ceffe0ef          	jal	ra,12772 <__sprint_r>
   13a88:	56051463          	bnez	a0,13ff0 <_vfprintf_r+0xba0>
   13a8c:	7792                	ld	a5,288(sp)
   13a8e:	7ee2                	ld	t4,56(sp)
   13a90:	7fc2                	ld	t6,48(sp)
   13a92:	62a2                	ld	t0,8(sp)
   13a94:	835e                	mv	t1,s7
   13a96:	be5d                	j	1364c <_vfprintf_r+0x1fc>
   13a98:	76e6                	ld	a3,120(sp)
   13a9a:	7746                	ld	a4,112(sp)
   13a9c:	0341                	addi	t1,t1,16
   13a9e:	fed33823          	sd	a3,-16(t1)
   13aa2:	11812683          	lw	a3,280(sp)
   13aa6:	97ba                	add	a5,a5,a4
   13aa8:	fee33c23          	sd	a4,-8(t1)
   13aac:	2685                	addiw	a3,a3,1
   13aae:	0006871b          	sext.w	a4,a3
   13ab2:	10d12c23          	sw	a3,280(sp)
   13ab6:	f23e                	sd	a5,288(sp)
   13ab8:	469d                	li	a3,7
   13aba:	00e6de63          	bge	a3,a4,13ad6 <_vfprintf_r+0x686>
   13abe:	0a10                	addi	a2,sp,272
   13ac0:	85d2                	mv	a1,s4
   13ac2:	8556                	mv	a0,s5
   13ac4:	caffe0ef          	jal	ra,12772 <__sprint_r>
   13ac8:	52051463          	bnez	a0,13ff0 <_vfprintf_r+0xba0>
   13acc:	562e                	lw	a2,232(sp)
   13ace:	7792                	ld	a5,288(sp)
   13ad0:	11812703          	lw	a4,280(sp)
   13ad4:	835e                	mv	t1,s7
   13ad6:	00065463          	bgez	a2,13ade <_vfprintf_r+0x68e>
   13ada:	2a60106f          	j	14d80 <_vfprintf_r+0x1930>
   13ade:	7682                	ld	a3,32(sp)
   13ae0:	2705                	addiw	a4,a4,1
   13ae2:	10e12c23          	sw	a4,280(sp)
   13ae6:	97b6                	add	a5,a5,a3
   13ae8:	00d33423          	sd	a3,8(t1)
   13aec:	01933023          	sd	s9,0(t1)
   13af0:	0007069b          	sext.w	a3,a4
   13af4:	f23e                	sd	a5,288(sp)
   13af6:	471d                	li	a4,7
   13af8:	bad75be3          	bge	a4,a3,136ae <_vfprintf_r+0x25e>
   13afc:	0a10                	addi	a2,sp,272
   13afe:	85d2                	mv	a1,s4
   13b00:	8556                	mv	a0,s5
   13b02:	c71fe0ef          	jal	ra,12772 <__sprint_r>
   13b06:	4e051563          	bnez	a0,13ff0 <_vfprintf_r+0xba0>
   13b0a:	7792                	ld	a5,288(sp)
   13b0c:	835e                	mv	t1,s7
   13b0e:	b64d                	j	136b0 <_vfprintf_r+0x260>
   13b10:	0104f793          	andi	a5,s1,16
   13b14:	0e0799e3          	bnez	a5,14406 <_vfprintf_r+0xfb6>
   13b18:	66c2                	ld	a3,16(sp)
   13b1a:	0404f793          	andi	a5,s1,64
   13b1e:	0006a983          	lw	s3,0(a3)
   13b22:	44078ae3          	beqz	a5,14776 <_vfprintf_r+0x1326>
   13b26:	19c2                	slli	s3,s3,0x30
   13b28:	0309d993          	srli	s3,s3,0x30
   13b2c:	b1d1                	j	137f0 <_vfprintf_r+0x3a0>
   13b2e:	0104f793          	andi	a5,s1,16
   13b32:	0c0795e3          	bnez	a5,143fc <_vfprintf_r+0xfac>
   13b36:	0404f793          	andi	a5,s1,64
   13b3a:	40078de3          	beqz	a5,14754 <_vfprintf_r+0x1304>
   13b3e:	67c2                	ld	a5,16(sp)
   13b40:	00079983          	lh	s3,0(a5)
   13b44:	87ce                	mv	a5,s3
   13b46:	c407d8e3          	bgez	a5,13796 <_vfprintf_r+0x346>
   13b4a:	02d00793          	li	a5,45
   13b4e:	0cf10fa3          	sb	a5,223(sp)
   13b52:	e83a                	sd	a4,16(sp)
   13b54:	577d                	li	a4,-1
   13b56:	413009b3          	neg	s3,s3
   13b5a:	8826                	mv	a6,s1
   13b5c:	4785                	li	a5,1
   13b5e:	caee94e3          	bne	t4,a4,13806 <_vfprintf_r+0x3b6>
   13b62:	4705                	li	a4,1
   13b64:	56e78463          	beq	a5,a4,140cc <_vfprintf_r+0xc7c>
   13b68:	4709                	li	a4,2
   13b6a:	28e78263          	beq	a5,a4,13dee <_vfprintf_r+0x99e>
   13b6e:	18c10c13          	addi	s8,sp,396
   13b72:	8ce2                	mv	s9,s8
   13b74:	0079f793          	andi	a5,s3,7
   13b78:	03078793          	addi	a5,a5,48
   13b7c:	fefc8fa3          	sb	a5,-1(s9)
   13b80:	0039d993          	srli	s3,s3,0x3
   13b84:	8766                	mv	a4,s9
   13b86:	1cfd                	addi	s9,s9,-1
   13b88:	fe0996e3          	bnez	s3,13b74 <_vfprintf_r+0x724>
   13b8c:	00187693          	andi	a3,a6,1
   13b90:	26068f63          	beqz	a3,13e0e <_vfprintf_r+0x9be>
   13b94:	03000693          	li	a3,48
   13b98:	26d78b63          	beq	a5,a3,13e0e <_vfprintf_r+0x9be>
   13b9c:	1779                	addi	a4,a4,-2
   13b9e:	fedc8fa3          	sb	a3,-1(s9)
   13ba2:	40ec0c3b          	subw	s8,s8,a4
   13ba6:	84c2                	mv	s1,a6
   13ba8:	8cba                	mv	s9,a4
   13baa:	b139                	j	137b8 <_vfprintf_r+0x368>
   13bac:	8556                	mv	a0,s5
   13bae:	35d010ef          	jal	ra,1570a <__sinit>
   13bb2:	b8fd                	j	134b0 <_vfprintf_r+0x60>
   13bb4:	67c2                	ld	a5,16(sp)
   13bb6:	0c010fa3          	sb	zero,223(sp)
   13bba:	0007bc83          	ld	s9,0(a5)
   13bbe:	00878693          	addi	a3,a5,8
   13bc2:	1c0c85e3          	beqz	s9,1458c <_vfprintf_r+0x113c>
   13bc6:	57fd                	li	a5,-1
   13bc8:	34fe82e3          	beq	t4,a5,1470c <_vfprintf_r+0x12bc>
   13bcc:	8676                	mv	a2,t4
   13bce:	4581                	li	a1,0
   13bd0:	8566                	mv	a0,s9
   13bd2:	f836                	sd	a3,48(sp)
   13bd4:	e81a                	sd	t1,16(sp)
   13bd6:	e476                	sd	t4,8(sp)
   13bd8:	6ec040ef          	jal	ra,182c4 <memchr>
   13bdc:	ec2a                	sd	a0,24(sp)
   13bde:	6ea2                	ld	t4,8(sp)
   13be0:	6342                	ld	t1,16(sp)
   13be2:	76c2                	ld	a3,48(sp)
   13be4:	e119                	bnez	a0,13bea <_vfprintf_r+0x79a>
   13be6:	1120106f          	j	14cf8 <_vfprintf_r+0x18a8>
   13bea:	67e2                	ld	a5,24(sp)
   13bec:	e836                	sd	a3,16(sp)
   13bee:	ec02                	sd	zero,24(sp)
   13bf0:	41978c3b          	subw	s8,a5,s9
   13bf4:	fffc4993          	not	s3,s8
   13bf8:	0df14783          	lbu	a5,223(sp)
   13bfc:	43f9d993          	srai	s3,s3,0x3f
   13c00:	013c79b3          	and	s3,s8,s3
   13c04:	e882                	sd	zero,80(sp)
   13c06:	f082                	sd	zero,96(sp)
   13c08:	ec82                	sd	zero,88(sp)
   13c0a:	2981                	sext.w	s3,s3
   13c0c:	4e81                	li	t4,0
   13c0e:	bc0793e3          	bnez	a5,137d4 <_vfprintf_r+0x384>
   13c12:	b2fd                	j	13600 <_vfprintf_r+0x1b0>
   13c14:	6742                	ld	a4,16(sp)
   13c16:	0c010fa3          	sb	zero,223(sp)
   13c1a:	4985                	li	s3,1
   13c1c:	431c                	lw	a5,0(a4)
   13c1e:	0721                	addi	a4,a4,8
   13c20:	e83a                	sd	a4,16(sp)
   13c22:	12f10423          	sb	a5,296(sp)
   13c26:	4c05                	li	s8,1
   13c28:	12810c93          	addi	s9,sp,296
   13c2c:	b2e9                	j	135f6 <_vfprintf_r+0x1a6>
   13c2e:	00044f03          	lbu	t5,0(s0)
   13c32:	0044e493          	ori	s1,s1,4
   13c36:	2481                	sext.w	s1,s1
   13c38:	b2b1                	j	13584 <_vfprintf_r+0x134>
   13c3a:	02b00793          	li	a5,43
   13c3e:	00044f03          	lbu	t5,0(s0)
   13c42:	0cf10fa3          	sb	a5,223(sp)
   13c46:	ba3d                	j	13584 <_vfprintf_r+0x134>
   13c48:	0804e493          	ori	s1,s1,128
   13c4c:	00044f03          	lbu	t5,0(s0)
   13c50:	2481                	sext.w	s1,s1
   13c52:	ba0d                	j	13584 <_vfprintf_r+0x134>
   13c54:	00044703          	lbu	a4,0(s0)
   13c58:	00140793          	addi	a5,s0,1
   13c5c:	00070d9b          	sext.w	s11,a4
   13c60:	00ec1463          	bne	s8,a4,13c68 <_vfprintf_r+0x818>
   13c64:	3d20106f          	j	15036 <_vfprintf_r+0x1be6>
   13c68:	fd07071b          	addiw	a4,a4,-48
   13c6c:	843e                	mv	s0,a5
   13c6e:	4e81                	li	t4,0
   13c70:	90e9efe3          	bltu	s3,a4,1358e <_vfprintf_r+0x13e>
   13c74:	00044d83          	lbu	s11,0(s0)
   13c78:	002e979b          	slliw	a5,t4,0x2
   13c7c:	01d78ebb          	addw	t4,a5,t4
   13c80:	001e9e9b          	slliw	t4,t4,0x1
   13c84:	00ee8ebb          	addw	t4,t4,a4
   13c88:	fd0d871b          	addiw	a4,s11,-48
   13c8c:	0405                	addi	s0,s0,1
   13c8e:	fee9f3e3          	bgeu	s3,a4,13c74 <_vfprintf_r+0x824>
   13c92:	b8f5                	j	1358e <_vfprintf_r+0x13e>
   13c94:	67c2                	ld	a5,16(sp)
   13c96:	00044f03          	lbu	t5,0(s0)
   13c9a:	0007ab03          	lw	s6,0(a5)
   13c9e:	07a1                	addi	a5,a5,8
   13ca0:	e83e                	sd	a5,16(sp)
   13ca2:	8e0b51e3          	bgez	s6,13584 <_vfprintf_r+0x134>
   13ca6:	41600b3b          	negw	s6,s6
   13caa:	b761                	j	13c32 <_vfprintf_r+0x7e2>
   13cac:	8556                	mv	a0,s5
   13cae:	ec1a                	sd	t1,24(sp)
   13cb0:	e476                	sd	t4,8(sp)
   13cb2:	476040ef          	jal	ra,18128 <_localeconv_r>
   13cb6:	651c                	ld	a5,8(a0)
   13cb8:	853e                	mv	a0,a5
   13cba:	e93e                	sd	a5,144(sp)
   13cbc:	71b050ef          	jal	ra,19bd6 <strlen>
   13cc0:	87aa                	mv	a5,a0
   13cc2:	8556                	mv	a0,s5
   13cc4:	8dbe                	mv	s11,a5
   13cc6:	e53e                	sd	a5,136(sp)
   13cc8:	460040ef          	jal	ra,18128 <_localeconv_r>
   13ccc:	6918                	ld	a4,16(a0)
   13cce:	6ea2                	ld	t4,8(sp)
   13cd0:	6362                	ld	t1,24(sp)
   13cd2:	f4ba                	sd	a4,104(sp)
   13cd4:	00044f03          	lbu	t5,0(s0)
   13cd8:	8a0d86e3          	beqz	s11,13584 <_vfprintf_r+0x134>
   13cdc:	8a0704e3          	beqz	a4,13584 <_vfprintf_r+0x134>
   13ce0:	00074783          	lbu	a5,0(a4)
   13ce4:	8a0780e3          	beqz	a5,13584 <_vfprintf_r+0x134>
   13ce8:	4004e493          	ori	s1,s1,1024
   13cec:	2481                	sext.w	s1,s1
   13cee:	b859                	j	13584 <_vfprintf_r+0x134>
   13cf0:	0014e493          	ori	s1,s1,1
   13cf4:	00044f03          	lbu	t5,0(s0)
   13cf8:	2481                	sext.w	s1,s1
   13cfa:	b069                	j	13584 <_vfprintf_r+0x134>
   13cfc:	0df14783          	lbu	a5,223(sp)
   13d00:	00044f03          	lbu	t5,0(s0)
   13d04:	880790e3          	bnez	a5,13584 <_vfprintf_r+0x134>
   13d08:	02000793          	li	a5,32
   13d0c:	0cf10fa3          	sb	a5,223(sp)
   13d10:	b895                	j	13584 <_vfprintf_r+0x134>
   13d12:	0084e493          	ori	s1,s1,8
   13d16:	00044f03          	lbu	t5,0(s0)
   13d1a:	2481                	sext.w	s1,s1
   13d1c:	b0a5                	j	13584 <_vfprintf_r+0x134>
   13d1e:	0104e493          	ori	s1,s1,16
   13d22:	0004881b          	sext.w	a6,s1
   13d26:	66c2                	ld	a3,16(sp)
   13d28:	02087793          	andi	a5,a6,32
   13d2c:	00868713          	addi	a4,a3,8
   13d30:	68078463          	beqz	a5,143b8 <_vfprintf_r+0xf68>
   13d34:	0006b983          	ld	s3,0(a3)
   13d38:	4785                	li	a5,1
   13d3a:	e83a                	sd	a4,16(sp)
   13d3c:	b4c1                	j	137fc <_vfprintf_r+0x3ac>
   13d3e:	0204e493          	ori	s1,s1,32
   13d42:	00044f03          	lbu	t5,0(s0)
   13d46:	2481                	sext.w	s1,s1
   13d48:	83dff06f          	j	13584 <_vfprintf_r+0x134>
   13d4c:	6742                	ld	a4,16(sp)
   13d4e:	77e1                	lui	a5,0xffff8
   13d50:	8307c793          	xori	a5,a5,-2000
   13d54:	0ef11023          	sh	a5,224(sp)
   13d58:	00870793          	addi	a5,a4,8
   13d5c:	0024e493          	ori	s1,s1,2
   13d60:	e83e                	sd	a5,16(sp)
   13d62:	0000a797          	auipc	a5,0xa
   13d66:	5fe78793          	addi	a5,a5,1534 # 1e360 <__func__.4057+0x2c0>
   13d6a:	f43e                	sd	a5,40(sp)
   13d6c:	00073983          	ld	s3,0(a4)
   13d70:	0004881b          	sext.w	a6,s1
   13d74:	4789                	li	a5,2
   13d76:	07800d93          	li	s11,120
   13d7a:	b449                	j	137fc <_vfprintf_r+0x3ac>
   13d7c:	66c2                	ld	a3,16(sp)
   13d7e:	0204f793          	andi	a5,s1,32
   13d82:	6298                	ld	a4,0(a3)
   13d84:	06a1                	addi	a3,a3,8
   13d86:	e836                	sd	a3,16(sp)
   13d88:	64079e63          	bnez	a5,143e4 <_vfprintf_r+0xf94>
   13d8c:	0104f793          	andi	a5,s1,16
   13d90:	64079a63          	bnez	a5,143e4 <_vfprintf_r+0xf94>
   13d94:	0404f793          	andi	a5,s1,64
   13d98:	3e0799e3          	bnez	a5,1498a <_vfprintf_r+0x153a>
   13d9c:	2004f493          	andi	s1,s1,512
   13da0:	6782                	ld	a5,0(sp)
   13da2:	e099                	bnez	s1,13da8 <_vfprintf_r+0x958>
   13da4:	1280106f          	j	14ecc <_vfprintf_r+0x1a7c>
   13da8:	00f70023          	sb	a5,0(a4)
   13dac:	8ca2                	mv	s9,s0
   13dae:	ba15                	j	136e2 <_vfprintf_r+0x292>
   13db0:	00044f03          	lbu	t5,0(s0)
   13db4:	06c00793          	li	a5,108
   13db8:	7aff0263          	beq	t5,a5,1455c <_vfprintf_r+0x110c>
   13dbc:	0104e493          	ori	s1,s1,16
   13dc0:	2481                	sext.w	s1,s1
   13dc2:	fc2ff06f          	j	13584 <_vfprintf_r+0x134>
   13dc6:	00044f03          	lbu	t5,0(s0)
   13dca:	06800793          	li	a5,104
   13dce:	76ff0f63          	beq	t5,a5,1454c <_vfprintf_r+0x10fc>
   13dd2:	0404e493          	ori	s1,s1,64
   13dd6:	2481                	sext.w	s1,s1
   13dd8:	facff06f          	j	13584 <_vfprintf_r+0x134>
   13ddc:	4705                	li	a4,1
   13dde:	00e79463          	bne	a5,a4,13de6 <_vfprintf_r+0x996>
   13de2:	0220106f          	j	14e04 <_vfprintf_r+0x19b4>
   13de6:	4709                	li	a4,2
   13de8:	8826                	mv	a6,s1
   13dea:	d8e792e3          	bne	a5,a4,13b6e <_vfprintf_r+0x71e>
   13dee:	18c10c13          	addi	s8,sp,396
   13df2:	8ce2                	mv	s9,s8
   13df4:	7722                	ld	a4,40(sp)
   13df6:	00f9f793          	andi	a5,s3,15
   13dfa:	1cfd                	addi	s9,s9,-1
   13dfc:	97ba                	add	a5,a5,a4
   13dfe:	0007c783          	lbu	a5,0(a5)
   13e02:	0049d993          	srli	s3,s3,0x4
   13e06:	00fc8023          	sb	a5,0(s9)
   13e0a:	fe0995e3          	bnez	s3,13df4 <_vfprintf_r+0x9a4>
   13e0e:	419c0c3b          	subw	s8,s8,s9
   13e12:	84c2                	mv	s1,a6
   13e14:	b255                	j	137b8 <_vfprintf_r+0x368>
   13e16:	06500713          	li	a4,101
   13e1a:	1fb75463          	bge	a4,s11,14002 <_vfprintf_r+0xbb2>
   13e1e:	6512                	ld	a0,256(sp)
   13e20:	65b2                	ld	a1,264(sp)
   13e22:	4601                	li	a2,0
   13e24:	4681                	li	a3,0
   13e26:	f83e                	sd	a5,48(sp)
   13e28:	e41a                	sd	t1,8(sp)
   13e2a:	5bb080ef          	jal	ra,1cbe4 <__eqtf2>
   13e2e:	6322                	ld	t1,8(sp)
   13e30:	77c2                	ld	a5,48(sp)
   13e32:	3e051b63          	bnez	a0,14228 <_vfprintf_r+0xdd8>
   13e36:	11812703          	lw	a4,280(sp)
   13e3a:	0000a697          	auipc	a3,0xa
   13e3e:	6f668693          	addi	a3,a3,1782 # 1e530 <zeroes.4497+0x30>
   13e42:	00d33023          	sd	a3,0(t1)
   13e46:	2705                	addiw	a4,a4,1
   13e48:	4685                	li	a3,1
   13e4a:	0785                	addi	a5,a5,1
   13e4c:	00d33423          	sd	a3,8(t1)
   13e50:	10e12c23          	sw	a4,280(sp)
   13e54:	0007069b          	sext.w	a3,a4
   13e58:	f23e                	sd	a5,288(sp)
   13e5a:	471d                	li	a4,7
   13e5c:	0341                	addi	t1,t1,16
   13e5e:	04d742e3          	blt	a4,a3,146a2 <_vfprintf_r+0x1252>
   13e62:	572e                	lw	a4,232(sp)
   13e64:	7682                	ld	a3,32(sp)
   13e66:	56d75a63          	bge	a4,a3,143da <_vfprintf_r+0xf8a>
   13e6a:	7766                	ld	a4,120(sp)
   13e6c:	76c6                	ld	a3,112(sp)
   13e6e:	0341                	addi	t1,t1,16
   13e70:	fee33823          	sd	a4,-16(t1)
   13e74:	11812703          	lw	a4,280(sp)
   13e78:	97b6                	add	a5,a5,a3
   13e7a:	fed33c23          	sd	a3,-8(t1)
   13e7e:	2705                	addiw	a4,a4,1
   13e80:	0007069b          	sext.w	a3,a4
   13e84:	10e12c23          	sw	a4,280(sp)
   13e88:	f23e                	sd	a5,288(sp)
   13e8a:	471d                	li	a4,7
   13e8c:	6ed74063          	blt	a4,a3,1456c <_vfprintf_r+0x111c>
   13e90:	7702                	ld	a4,32(sp)
   13e92:	fff70c1b          	addiw	s8,a4,-1
   13e96:	81805de3          	blez	s8,136b0 <_vfprintf_r+0x260>
   13e9a:	11812703          	lw	a4,280(sp)
   13e9e:	018d5de3          	bge	s10,s8,146b8 <_vfprintf_r+0x1268>
   13ea2:	4c9d                	li	s9,7
   13ea4:	a021                	j	13eac <_vfprintf_r+0xa5c>
   13ea6:	3c41                	addiw	s8,s8,-16
   13ea8:	018d58e3          	bge	s10,s8,146b8 <_vfprintf_r+0x1268>
   13eac:	2705                	addiw	a4,a4,1
   13eae:	07c1                	addi	a5,a5,16
   13eb0:	01233023          	sd	s2,0(t1)
   13eb4:	01a33423          	sd	s10,8(t1)
   13eb8:	f23e                	sd	a5,288(sp)
   13eba:	10e12c23          	sw	a4,280(sp)
   13ebe:	0341                	addi	t1,t1,16
   13ec0:	feecd3e3          	bge	s9,a4,13ea6 <_vfprintf_r+0xa56>
   13ec4:	0a10                	addi	a2,sp,272
   13ec6:	85d2                	mv	a1,s4
   13ec8:	8556                	mv	a0,s5
   13eca:	8a9fe0ef          	jal	ra,12772 <__sprint_r>
   13ece:	12051163          	bnez	a0,13ff0 <_vfprintf_r+0xba0>
   13ed2:	7792                	ld	a5,288(sp)
   13ed4:	11812703          	lw	a4,280(sp)
   13ed8:	835e                	mv	t1,s7
   13eda:	b7f1                	j	13ea6 <_vfprintf_r+0xa56>
   13edc:	413b06bb          	subw	a3,s6,s3
   13ee0:	f8d05f63          	blez	a3,1367e <_vfprintf_r+0x22e>
   13ee4:	11812703          	lw	a4,280(sp)
   13ee8:	04dd5563          	bge	s10,a3,13f32 <_vfprintf_r+0xae2>
   13eec:	489d                	li	a7,7
   13eee:	a021                	j	13ef6 <_vfprintf_r+0xaa6>
   13ef0:	36c1                	addiw	a3,a3,-16
   13ef2:	04dd5063          	bge	s10,a3,13f32 <_vfprintf_r+0xae2>
   13ef6:	2705                	addiw	a4,a4,1
   13ef8:	07c1                	addi	a5,a5,16
   13efa:	01233023          	sd	s2,0(t1)
   13efe:	01a33423          	sd	s10,8(t1)
   13f02:	f23e                	sd	a5,288(sp)
   13f04:	10e12c23          	sw	a4,280(sp)
   13f08:	0341                	addi	t1,t1,16
   13f0a:	fee8d3e3          	bge	a7,a4,13ef0 <_vfprintf_r+0xaa0>
   13f0e:	0a10                	addi	a2,sp,272
   13f10:	85d2                	mv	a1,s4
   13f12:	8556                	mv	a0,s5
   13f14:	f836                	sd	a3,48(sp)
   13f16:	e476                	sd	t4,8(sp)
   13f18:	85bfe0ef          	jal	ra,12772 <__sprint_r>
   13f1c:	e971                	bnez	a0,13ff0 <_vfprintf_r+0xba0>
   13f1e:	76c2                	ld	a3,48(sp)
   13f20:	7792                	ld	a5,288(sp)
   13f22:	11812703          	lw	a4,280(sp)
   13f26:	36c1                	addiw	a3,a3,-16
   13f28:	6ea2                	ld	t4,8(sp)
   13f2a:	835e                	mv	t1,s7
   13f2c:	489d                	li	a7,7
   13f2e:	fcdd44e3          	blt	s10,a3,13ef6 <_vfprintf_r+0xaa6>
   13f32:	2705                	addiw	a4,a4,1
   13f34:	97b6                	add	a5,a5,a3
   13f36:	00d33423          	sd	a3,8(t1)
   13f3a:	01233023          	sd	s2,0(t1)
   13f3e:	0007069b          	sext.w	a3,a4
   13f42:	10e12c23          	sw	a4,280(sp)
   13f46:	f23e                	sd	a5,288(sp)
   13f48:	471d                	li	a4,7
   13f4a:	0341                	addi	t1,t1,16
   13f4c:	f2d75963          	bge	a4,a3,1367e <_vfprintf_r+0x22e>
   13f50:	0a10                	addi	a2,sp,272
   13f52:	85d2                	mv	a1,s4
   13f54:	8556                	mv	a0,s5
   13f56:	e476                	sd	t4,8(sp)
   13f58:	81bfe0ef          	jal	ra,12772 <__sprint_r>
   13f5c:	e951                	bnez	a0,13ff0 <_vfprintf_r+0xba0>
   13f5e:	7792                	ld	a5,288(sp)
   13f60:	6ea2                	ld	t4,8(sp)
   13f62:	835e                	mv	t1,s7
   13f64:	f1aff06f          	j	1367e <_vfprintf_r+0x22e>
   13f68:	11812703          	lw	a4,280(sp)
   13f6c:	05dd5363          	bge	s10,t4,13fb2 <_vfprintf_r+0xb62>
   13f70:	489d                	li	a7,7
   13f72:	a021                	j	13f7a <_vfprintf_r+0xb2a>
   13f74:	3ec1                	addiw	t4,t4,-16
   13f76:	03dd5e63          	bge	s10,t4,13fb2 <_vfprintf_r+0xb62>
   13f7a:	2705                	addiw	a4,a4,1
   13f7c:	07c1                	addi	a5,a5,16
   13f7e:	01233023          	sd	s2,0(t1)
   13f82:	01a33423          	sd	s10,8(t1)
   13f86:	f23e                	sd	a5,288(sp)
   13f88:	10e12c23          	sw	a4,280(sp)
   13f8c:	0341                	addi	t1,t1,16
   13f8e:	fee8d3e3          	bge	a7,a4,13f74 <_vfprintf_r+0xb24>
   13f92:	0a10                	addi	a2,sp,272
   13f94:	85d2                	mv	a1,s4
   13f96:	8556                	mv	a0,s5
   13f98:	e476                	sd	t4,8(sp)
   13f9a:	fd8fe0ef          	jal	ra,12772 <__sprint_r>
   13f9e:	e929                	bnez	a0,13ff0 <_vfprintf_r+0xba0>
   13fa0:	6ea2                	ld	t4,8(sp)
   13fa2:	7792                	ld	a5,288(sp)
   13fa4:	11812703          	lw	a4,280(sp)
   13fa8:	3ec1                	addiw	t4,t4,-16
   13faa:	835e                	mv	t1,s7
   13fac:	489d                	li	a7,7
   13fae:	fddd46e3          	blt	s10,t4,13f7a <_vfprintf_r+0xb2a>
   13fb2:	0017069b          	addiw	a3,a4,1
   13fb6:	97f6                	add	a5,a5,t4
   13fb8:	01233023          	sd	s2,0(t1)
   13fbc:	01d33423          	sd	t4,8(t1)
   13fc0:	f23e                	sd	a5,288(sp)
   13fc2:	10d12c23          	sw	a3,280(sp)
   13fc6:	471d                	li	a4,7
   13fc8:	0341                	addi	t1,t1,16
   13fca:	ead75e63          	bge	a4,a3,13686 <_vfprintf_r+0x236>
   13fce:	0a10                	addi	a2,sp,272
   13fd0:	85d2                	mv	a1,s4
   13fd2:	8556                	mv	a0,s5
   13fd4:	f9efe0ef          	jal	ra,12772 <__sprint_r>
   13fd8:	ed01                	bnez	a0,13ff0 <_vfprintf_r+0xba0>
   13fda:	7792                	ld	a5,288(sp)
   13fdc:	835e                	mv	t1,s7
   13fde:	ea8ff06f          	j	13686 <_vfprintf_r+0x236>
   13fe2:	0a10                	addi	a2,sp,272
   13fe4:	85d2                	mv	a1,s4
   13fe6:	8556                	mv	a0,s5
   13fe8:	f8afe0ef          	jal	ra,12772 <__sprint_r>
   13fec:	ee050163          	beqz	a0,136ce <_vfprintf_r+0x27e>
   13ff0:	67e2                	ld	a5,24(sp)
   13ff2:	f0078063          	beqz	a5,136f2 <_vfprintf_r+0x2a2>
   13ff6:	85be                	mv	a1,a5
   13ff8:	8556                	mv	a0,s5
   13ffa:	18d010ef          	jal	ra,15986 <_free_r>
   13ffe:	ef4ff06f          	j	136f2 <_vfprintf_r+0x2a2>
   14002:	11812603          	lw	a2,280(sp)
   14006:	00178d93          	addi	s11,a5,1
   1400a:	7782                	ld	a5,32(sp)
   1400c:	0016071b          	addiw	a4,a2,1
   14010:	4585                	li	a1,1
   14012:	01933023          	sd	s9,0(t1)
   14016:	86ba                	mv	a3,a4
   14018:	01030c13          	addi	s8,t1,16
   1401c:	32f5d863          	bge	a1,a5,1434c <_vfprintf_r+0xefc>
   14020:	4605                	li	a2,1
   14022:	10d12c23          	sw	a3,280(sp)
   14026:	00c33423          	sd	a2,8(t1)
   1402a:	f26e                	sd	s11,288(sp)
   1402c:	469d                	li	a3,7
   1402e:	5ce6c463          	blt	a3,a4,145f6 <_vfprintf_r+0x11a6>
   14032:	77c6                	ld	a5,112(sp)
   14034:	0017069b          	addiw	a3,a4,1
   14038:	7766                	ld	a4,120(sp)
   1403a:	9dbe                	add	s11,s11,a5
   1403c:	00fc3423          	sd	a5,8(s8)
   14040:	00ec3023          	sd	a4,0(s8)
   14044:	10d12c23          	sw	a3,280(sp)
   14048:	0006871b          	sext.w	a4,a3
   1404c:	f26e                	sd	s11,288(sp)
   1404e:	469d                	li	a3,7
   14050:	0c41                	addi	s8,s8,16
   14052:	5ae6ce63          	blt	a3,a4,1460e <_vfprintf_r+0x11be>
   14056:	6512                	ld	a0,256(sp)
   14058:	65b2                	ld	a1,264(sp)
   1405a:	0017089b          	addiw	a7,a4,1
   1405e:	4601                	li	a2,0
   14060:	4681                	li	a3,0
   14062:	e446                	sd	a7,8(sp)
   14064:	f83a                	sd	a4,48(sp)
   14066:	37f080ef          	jal	ra,1cbe4 <__eqtf2>
   1406a:	68a2                	ld	a7,8(sp)
   1406c:	7782                	ld	a5,32(sp)
   1406e:	010c0313          	addi	t1,s8,16
   14072:	0008861b          	sext.w	a2,a7
   14076:	fff7869b          	addiw	a3,a5,-1
   1407a:	2e050963          	beqz	a0,1436c <_vfprintf_r+0xf1c>
   1407e:	9db6                	add	s11,s11,a3
   14080:	001c8813          	addi	a6,s9,1
   14084:	00dc3423          	sd	a3,8(s8)
   14088:	010c3023          	sd	a6,0(s8)
   1408c:	f26e                	sd	s11,288(sp)
   1408e:	11112c23          	sw	a7,280(sp)
   14092:	469d                	li	a3,7
   14094:	44c6c763          	blt	a3,a2,144e2 <_vfprintf_r+0x1092>
   14098:	7742                	ld	a4,48(sp)
   1409a:	020c0693          	addi	a3,s8,32
   1409e:	8c1a                	mv	s8,t1
   140a0:	0027061b          	addiw	a2,a4,2
   140a4:	8336                	mv	t1,a3
   140a6:	668a                	ld	a3,128(sp)
   140a8:	1998                	addi	a4,sp,240
   140aa:	00ec3023          	sd	a4,0(s8)
   140ae:	00dd87b3          	add	a5,s11,a3
   140b2:	00dc3423          	sd	a3,8(s8)
   140b6:	f23e                	sd	a5,288(sp)
   140b8:	10c12c23          	sw	a2,280(sp)
   140bc:	471d                	li	a4,7
   140be:	dec75963          	bge	a4,a2,136b0 <_vfprintf_r+0x260>
   140c2:	bc2d                	j	13afc <_vfprintf_r+0x6ac>
   140c4:	4705                	li	a4,1
   140c6:	8826                	mv	a6,s1
   140c8:	aae790e3          	bne	a5,a4,13b68 <_vfprintf_r+0x718>
   140cc:	47a5                	li	a5,9
   140ce:	3737e163          	bltu	a5,s3,14430 <_vfprintf_r+0xfe0>
   140d2:	0309899b          	addiw	s3,s3,48
   140d6:	193105a3          	sb	s3,395(sp)
   140da:	84c2                	mv	s1,a6
   140dc:	4c05                	li	s8,1
   140de:	18b10c93          	addi	s9,sp,395
   140e2:	ed6ff06f          	j	137b8 <_vfprintf_r+0x368>
   140e6:	11812703          	lw	a4,280(sp)
   140ea:	0000a897          	auipc	a7,0xa
   140ee:	5be88893          	addi	a7,a7,1470 # 1e6a8 <blanks.4520>
   140f2:	439d                	li	t2,7
   140f4:	00dd4663          	blt	s10,a3,14100 <_vfprintf_r+0xcb0>
   140f8:	a889                	j	1414a <_vfprintf_r+0xcfa>
   140fa:	36c1                	addiw	a3,a3,-16
   140fc:	04dd5763          	bge	s10,a3,1414a <_vfprintf_r+0xcfa>
   14100:	2705                	addiw	a4,a4,1
   14102:	07c1                	addi	a5,a5,16
   14104:	01133023          	sd	a7,0(t1)
   14108:	01a33423          	sd	s10,8(t1)
   1410c:	f23e                	sd	a5,288(sp)
   1410e:	10e12c23          	sw	a4,280(sp)
   14112:	0341                	addi	t1,t1,16
   14114:	fee3d3e3          	bge	t2,a4,140fa <_vfprintf_r+0xcaa>
   14118:	0a10                	addi	a2,sp,272
   1411a:	85d2                	mv	a1,s4
   1411c:	8556                	mv	a0,s5
   1411e:	e4c6                	sd	a7,72(sp)
   14120:	e0f6                	sd	t4,64(sp)
   14122:	fc7e                	sd	t6,56(sp)
   14124:	f816                	sd	t0,48(sp)
   14126:	e436                	sd	a3,8(sp)
   14128:	e4afe0ef          	jal	ra,12772 <__sprint_r>
   1412c:	ec0512e3          	bnez	a0,13ff0 <_vfprintf_r+0xba0>
   14130:	66a2                	ld	a3,8(sp)
   14132:	7792                	ld	a5,288(sp)
   14134:	11812703          	lw	a4,280(sp)
   14138:	36c1                	addiw	a3,a3,-16
   1413a:	68a6                	ld	a7,72(sp)
   1413c:	6e86                	ld	t4,64(sp)
   1413e:	7fe2                	ld	t6,56(sp)
   14140:	72c2                	ld	t0,48(sp)
   14142:	835e                	mv	t1,s7
   14144:	439d                	li	t2,7
   14146:	fadd4de3          	blt	s10,a3,14100 <_vfprintf_r+0xcb0>
   1414a:	2705                	addiw	a4,a4,1
   1414c:	97b6                	add	a5,a5,a3
   1414e:	00d33423          	sd	a3,8(t1)
   14152:	01133023          	sd	a7,0(t1)
   14156:	0007069b          	sext.w	a3,a4
   1415a:	10e12c23          	sw	a4,280(sp)
   1415e:	f23e                	sd	a5,288(sp)
   14160:	471d                	li	a4,7
   14162:	0341                	addi	t1,t1,16
   14164:	cad75d63          	bge	a4,a3,1361e <_vfprintf_r+0x1ce>
   14168:	0a10                	addi	a2,sp,272
   1416a:	85d2                	mv	a1,s4
   1416c:	8556                	mv	a0,s5
   1416e:	fc76                	sd	t4,56(sp)
   14170:	f87e                	sd	t6,48(sp)
   14172:	e416                	sd	t0,8(sp)
   14174:	dfefe0ef          	jal	ra,12772 <__sprint_r>
   14178:	e6051ce3          	bnez	a0,13ff0 <_vfprintf_r+0xba0>
   1417c:	7792                	ld	a5,288(sp)
   1417e:	7ee2                	ld	t4,56(sp)
   14180:	7fc2                	ld	t6,48(sp)
   14182:	62a2                	ld	t0,8(sp)
   14184:	835e                	mv	t1,s7
   14186:	c98ff06f          	j	1361e <_vfprintf_r+0x1ce>
   1418a:	0a10                	addi	a2,sp,272
   1418c:	85d2                	mv	a1,s4
   1418e:	8556                	mv	a0,s5
   14190:	f876                	sd	t4,48(sp)
   14192:	e47e                	sd	t6,8(sp)
   14194:	ddefe0ef          	jal	ra,12772 <__sprint_r>
   14198:	e4051ce3          	bnez	a0,13ff0 <_vfprintf_r+0xba0>
   1419c:	7792                	ld	a5,288(sp)
   1419e:	7ec2                	ld	t4,48(sp)
   141a0:	6fa2                	ld	t6,8(sp)
   141a2:	835e                	mv	t1,s7
   141a4:	cd2ff06f          	j	13676 <_vfprintf_r+0x226>
   141a8:	11812703          	lw	a4,280(sp)
   141ac:	0000a897          	auipc	a7,0xa
   141b0:	4fc88893          	addi	a7,a7,1276 # 1e6a8 <blanks.4520>
   141b4:	4c1d                	li	s8,7
   141b6:	009d4663          	blt	s10,s1,141c2 <_vfprintf_r+0xd72>
   141ba:	a081                	j	141fa <_vfprintf_r+0xdaa>
   141bc:	34c1                	addiw	s1,s1,-16
   141be:	029d5e63          	bge	s10,s1,141fa <_vfprintf_r+0xdaa>
   141c2:	2705                	addiw	a4,a4,1
   141c4:	07c1                	addi	a5,a5,16
   141c6:	01133023          	sd	a7,0(t1)
   141ca:	01a33423          	sd	s10,8(t1)
   141ce:	f23e                	sd	a5,288(sp)
   141d0:	10e12c23          	sw	a4,280(sp)
   141d4:	0341                	addi	t1,t1,16
   141d6:	feec53e3          	bge	s8,a4,141bc <_vfprintf_r+0xd6c>
   141da:	0a10                	addi	a2,sp,272
   141dc:	85d2                	mv	a1,s4
   141de:	8556                	mv	a0,s5
   141e0:	e446                	sd	a7,8(sp)
   141e2:	d90fe0ef          	jal	ra,12772 <__sprint_r>
   141e6:	e00515e3          	bnez	a0,13ff0 <_vfprintf_r+0xba0>
   141ea:	34c1                	addiw	s1,s1,-16
   141ec:	7792                	ld	a5,288(sp)
   141ee:	11812703          	lw	a4,280(sp)
   141f2:	68a2                	ld	a7,8(sp)
   141f4:	835e                	mv	t1,s7
   141f6:	fc9d46e3          	blt	s10,s1,141c2 <_vfprintf_r+0xd72>
   141fa:	0017069b          	addiw	a3,a4,1
   141fe:	97a6                	add	a5,a5,s1
   14200:	01133023          	sd	a7,0(t1)
   14204:	00933423          	sd	s1,8(t1)
   14208:	f23e                	sd	a5,288(sp)
   1420a:	10d12c23          	sw	a3,280(sp)
   1420e:	471d                	li	a4,7
   14210:	cad75663          	bge	a4,a3,136bc <_vfprintf_r+0x26c>
   14214:	0a10                	addi	a2,sp,272
   14216:	85d2                	mv	a1,s4
   14218:	8556                	mv	a0,s5
   1421a:	d58fe0ef          	jal	ra,12772 <__sprint_r>
   1421e:	dc0519e3          	bnez	a0,13ff0 <_vfprintf_r+0xba0>
   14222:	7792                	ld	a5,288(sp)
   14224:	c98ff06f          	j	136bc <_vfprintf_r+0x26c>
   14228:	562e                	lw	a2,232(sp)
   1422a:	3ec05e63          	blez	a2,14626 <_vfprintf_r+0x11d6>
   1422e:	6766                	ld	a4,88(sp)
   14230:	7682                	ld	a3,32(sp)
   14232:	00070c1b          	sext.w	s8,a4
   14236:	28e6c263          	blt	a3,a4,144ba <_vfprintf_r+0x106a>
   1423a:	03805263          	blez	s8,1425e <_vfprintf_r+0xe0e>
   1423e:	11812703          	lw	a4,280(sp)
   14242:	97e2                	add	a5,a5,s8
   14244:	01933023          	sd	s9,0(t1)
   14248:	0017069b          	addiw	a3,a4,1
   1424c:	01833423          	sd	s8,8(t1)
   14250:	f23e                	sd	a5,288(sp)
   14252:	10d12c23          	sw	a3,280(sp)
   14256:	471d                	li	a4,7
   14258:	0341                	addi	t1,t1,16
   1425a:	6ed74d63          	blt	a4,a3,14954 <_vfprintf_r+0x1504>
   1425e:	fffc4713          	not	a4,s8
   14262:	977d                	srai	a4,a4,0x3f
   14264:	00ec7c33          	and	s8,s8,a4
   14268:	6766                	ld	a4,88(sp)
   1426a:	41870c3b          	subw	s8,a4,s8
   1426e:	33804c63          	bgtz	s8,145a6 <_vfprintf_r+0x1156>
   14272:	66e6                	ld	a3,88(sp)
   14274:	4004f713          	andi	a4,s1,1024
   14278:	00dc8db3          	add	s11,s9,a3
   1427c:	54071f63          	bnez	a4,147da <_vfprintf_r+0x138a>
   14280:	572e                	lw	a4,232(sp)
   14282:	7682                	ld	a3,32(sp)
   14284:	00d74663          	blt	a4,a3,14290 <_vfprintf_r+0xe40>
   14288:	0014f693          	andi	a3,s1,1
   1428c:	6e068063          	beqz	a3,1496c <_vfprintf_r+0x151c>
   14290:	76e6                	ld	a3,120(sp)
   14292:	7646                	ld	a2,112(sp)
   14294:	0341                	addi	t1,t1,16
   14296:	fed33823          	sd	a3,-16(t1)
   1429a:	11812683          	lw	a3,280(sp)
   1429e:	97b2                	add	a5,a5,a2
   142a0:	fec33c23          	sd	a2,-8(t1)
   142a4:	2685                	addiw	a3,a3,1
   142a6:	0006861b          	sext.w	a2,a3
   142aa:	10d12c23          	sw	a3,280(sp)
   142ae:	f23e                	sd	a5,288(sp)
   142b0:	469d                	li	a3,7
   142b2:	22c6c7e3          	blt	a3,a2,14ce0 <_vfprintf_r+0x1890>
   142b6:	7682                	ld	a3,32(sp)
   142b8:	00dc8633          	add	a2,s9,a3
   142bc:	40e6873b          	subw	a4,a3,a4
   142c0:	41b6063b          	subw	a2,a2,s11
   142c4:	0007069b          	sext.w	a3,a4
   142c8:	00d65363          	bge	a2,a3,142ce <_vfprintf_r+0xe7e>
   142cc:	8732                	mv	a4,a2
   142ce:	00070c9b          	sext.w	s9,a4
   142d2:	03905263          	blez	s9,142f6 <_vfprintf_r+0xea6>
   142d6:	11812603          	lw	a2,280(sp)
   142da:	97e6                	add	a5,a5,s9
   142dc:	01b33023          	sd	s11,0(t1)
   142e0:	0016059b          	addiw	a1,a2,1
   142e4:	01933423          	sd	s9,8(t1)
   142e8:	f23e                	sd	a5,288(sp)
   142ea:	10b12c23          	sw	a1,280(sp)
   142ee:	461d                	li	a2,7
   142f0:	0341                	addi	t1,t1,16
   142f2:	26b644e3          	blt	a2,a1,14d5a <_vfprintf_r+0x190a>
   142f6:	fffccc13          	not	s8,s9
   142fa:	43fc5c13          	srai	s8,s8,0x3f
   142fe:	018cfc33          	and	s8,s9,s8
   14302:	41868c3b          	subw	s8,a3,s8
   14306:	bb805563          	blez	s8,136b0 <_vfprintf_r+0x260>
   1430a:	11812703          	lw	a4,280(sp)
   1430e:	3b8d5563          	bge	s10,s8,146b8 <_vfprintf_r+0x1268>
   14312:	4c9d                	li	s9,7
   14314:	a021                	j	1431c <_vfprintf_r+0xecc>
   14316:	3c41                	addiw	s8,s8,-16
   14318:	3b8d5063          	bge	s10,s8,146b8 <_vfprintf_r+0x1268>
   1431c:	2705                	addiw	a4,a4,1
   1431e:	07c1                	addi	a5,a5,16
   14320:	01233023          	sd	s2,0(t1)
   14324:	01a33423          	sd	s10,8(t1)
   14328:	f23e                	sd	a5,288(sp)
   1432a:	10e12c23          	sw	a4,280(sp)
   1432e:	0341                	addi	t1,t1,16
   14330:	feecd3e3          	bge	s9,a4,14316 <_vfprintf_r+0xec6>
   14334:	0a10                	addi	a2,sp,272
   14336:	85d2                	mv	a1,s4
   14338:	8556                	mv	a0,s5
   1433a:	c38fe0ef          	jal	ra,12772 <__sprint_r>
   1433e:	ca0519e3          	bnez	a0,13ff0 <_vfprintf_r+0xba0>
   14342:	7792                	ld	a5,288(sp)
   14344:	11812703          	lw	a4,280(sp)
   14348:	835e                	mv	t1,s7
   1434a:	b7f1                	j	14316 <_vfprintf_r+0xec6>
   1434c:	0014f513          	andi	a0,s1,1
   14350:	cc0518e3          	bnez	a0,14020 <_vfprintf_r+0xbd0>
   14354:	00b33423          	sd	a1,8(t1)
   14358:	f26e                	sd	s11,288(sp)
   1435a:	10e12c23          	sw	a4,280(sp)
   1435e:	469d                	li	a3,7
   14360:	18e6c163          	blt	a3,a4,144e2 <_vfprintf_r+0x1092>
   14364:	2609                	addiw	a2,a2,2
   14366:	02030313          	addi	t1,t1,32
   1436a:	bb35                	j	140a6 <_vfprintf_r+0xc56>
   1436c:	d2d05de3          	blez	a3,140a6 <_vfprintf_r+0xc56>
   14370:	4cdd50e3          	bge	s10,a3,15030 <_vfprintf_r+0x1be0>
   14374:	4c9d                	li	s9,7
   14376:	a031                	j	14382 <_vfprintf_r+0xf32>
   14378:	36c1                	addiw	a3,a3,-16
   1437a:	14dd5563          	bge	s10,a3,144c4 <_vfprintf_r+0x1074>
   1437e:	0017089b          	addiw	a7,a4,1
   14382:	0dc1                	addi	s11,s11,16
   14384:	012c3023          	sd	s2,0(s8)
   14388:	01ac3423          	sd	s10,8(s8)
   1438c:	f26e                	sd	s11,288(sp)
   1438e:	0008871b          	sext.w	a4,a7
   14392:	11112c23          	sw	a7,280(sp)
   14396:	0c41                	addi	s8,s8,16
   14398:	feecd0e3          	bge	s9,a4,14378 <_vfprintf_r+0xf28>
   1439c:	0a10                	addi	a2,sp,272
   1439e:	85d2                	mv	a1,s4
   143a0:	8556                	mv	a0,s5
   143a2:	e436                	sd	a3,8(sp)
   143a4:	bcefe0ef          	jal	ra,12772 <__sprint_r>
   143a8:	c40514e3          	bnez	a0,13ff0 <_vfprintf_r+0xba0>
   143ac:	7d92                	ld	s11,288(sp)
   143ae:	11812703          	lw	a4,280(sp)
   143b2:	66a2                	ld	a3,8(sp)
   143b4:	8c5e                	mv	s8,s7
   143b6:	b7c9                	j	14378 <_vfprintf_r+0xf28>
   143b8:	01087793          	andi	a5,a6,16
   143bc:	eb8d                	bnez	a5,143ee <_vfprintf_r+0xf9e>
   143be:	66c2                	ld	a3,16(sp)
   143c0:	04087793          	andi	a5,a6,64
   143c4:	0006a983          	lw	s3,0(a3)
   143c8:	36078c63          	beqz	a5,14740 <_vfprintf_r+0x12f0>
   143cc:	19c2                	slli	s3,s3,0x30
   143ce:	0309d993          	srli	s3,s3,0x30
   143d2:	e83a                	sd	a4,16(sp)
   143d4:	4785                	li	a5,1
   143d6:	c26ff06f          	j	137fc <_vfprintf_r+0x3ac>
   143da:	0014f713          	andi	a4,s1,1
   143de:	ac070963          	beqz	a4,136b0 <_vfprintf_r+0x260>
   143e2:	b461                	j	13e6a <_vfprintf_r+0xa1a>
   143e4:	6782                	ld	a5,0(sp)
   143e6:	8ca2                	mv	s9,s0
   143e8:	e31c                	sd	a5,0(a4)
   143ea:	af8ff06f          	j	136e2 <_vfprintf_r+0x292>
   143ee:	67c2                	ld	a5,16(sp)
   143f0:	e83a                	sd	a4,16(sp)
   143f2:	0007b983          	ld	s3,0(a5)
   143f6:	4785                	li	a5,1
   143f8:	c04ff06f          	j	137fc <_vfprintf_r+0x3ac>
   143fc:	67c2                	ld	a5,16(sp)
   143fe:	639c                	ld	a5,0(a5)
   14400:	89be                	mv	s3,a5
   14402:	b90ff06f          	j	13792 <_vfprintf_r+0x342>
   14406:	67c2                	ld	a5,16(sp)
   14408:	0007b983          	ld	s3,0(a5)
   1440c:	be4ff06f          	j	137f0 <_vfprintf_r+0x3a0>
   14410:	67c2                	ld	a5,16(sp)
   14412:	07bd                	addi	a5,a5,15
   14414:	9bc1                	andi	a5,a5,-16
   14416:	6394                	ld	a3,0(a5)
   14418:	6798                	ld	a4,8(a5)
   1441a:	07c1                	addi	a5,a5,16
   1441c:	e83e                	sd	a5,16(sp)
   1441e:	e236                	sd	a3,256(sp)
   14420:	e63a                	sd	a4,264(sp)
   14422:	c50ff06f          	j	13872 <_vfprintf_r+0x422>
   14426:	e83a                	sd	a4,16(sp)
   14428:	47a5                	li	a5,9
   1442a:	8826                	mv	a6,s1
   1442c:	cb37f3e3          	bgeu	a5,s3,140d2 <_vfprintf_r+0xc82>
   14430:	40087793          	andi	a5,a6,1024
   14434:	18c10c13          	addi	s8,sp,396
   14438:	2781                	sext.w	a5,a5
   1443a:	f002                	sd	zero,32(sp)
   1443c:	85e2                	mv	a1,s8
   1443e:	44a9                	li	s1,10
   14440:	4725                	li	a4,9
   14442:	0ff00693          	li	a3,255
   14446:	a039                	j	14454 <_vfprintf_r+0x1004>
   14448:	0299d633          	divu	a2,s3,s1
   1444c:	9d3771e3          	bgeu	a4,s3,13e0e <_vfprintf_r+0x9be>
   14450:	89b2                	mv	s3,a2
   14452:	85e6                	mv	a1,s9
   14454:	7502                	ld	a0,32(sp)
   14456:	fff58c93          	addi	s9,a1,-1
   1445a:	2505                	addiw	a0,a0,1
   1445c:	f02a                	sd	a0,32(sp)
   1445e:	0299f633          	remu	a2,s3,s1
   14462:	0306061b          	addiw	a2,a2,48
   14466:	fec58fa3          	sb	a2,-1(a1)
   1446a:	dff9                	beqz	a5,14448 <_vfprintf_r+0xff8>
   1446c:	7626                	ld	a2,104(sp)
   1446e:	00064603          	lbu	a2,0(a2)
   14472:	fcc51be3          	bne	a0,a2,14448 <_vfprintf_r+0xff8>
   14476:	fcd609e3          	beq	a2,a3,14448 <_vfprintf_r+0xff8>
   1447a:	99377ae3          	bgeu	a4,s3,13e0e <_vfprintf_r+0x9be>
   1447e:	fc3e                	sd	a5,56(sp)
   14480:	67aa                	ld	a5,136(sp)
   14482:	65ca                	ld	a1,144(sp)
   14484:	f81a                	sd	t1,48(sp)
   14486:	40fc8cb3          	sub	s9,s9,a5
   1448a:	863e                	mv	a2,a5
   1448c:	8566                	mv	a0,s9
   1448e:	ec76                	sd	t4,24(sp)
   14490:	e442                	sd	a6,8(sp)
   14492:	7d8050ef          	jal	ra,19c6a <strncpy>
   14496:	77a6                	ld	a5,104(sp)
   14498:	0299d633          	divu	a2,s3,s1
   1449c:	6822                	ld	a6,8(sp)
   1449e:	0017c583          	lbu	a1,1(a5)
   144a2:	6ee2                	ld	t4,24(sp)
   144a4:	7342                	ld	t1,48(sp)
   144a6:	00b035b3          	snez	a1,a1
   144aa:	97ae                	add	a5,a5,a1
   144ac:	f4be                	sd	a5,104(sp)
   144ae:	f002                	sd	zero,32(sp)
   144b0:	77e2                	ld	a5,56(sp)
   144b2:	4725                	li	a4,9
   144b4:	0ff00693          	li	a3,255
   144b8:	bf61                	j	14450 <_vfprintf_r+0x1000>
   144ba:	00068c1b          	sext.w	s8,a3
   144be:	d98040e3          	bgtz	s8,1423e <_vfprintf_r+0xdee>
   144c2:	bb71                	j	1425e <_vfprintf_r+0xe0e>
   144c4:	0017061b          	addiw	a2,a4,1
   144c8:	010c0713          	addi	a4,s8,16
   144cc:	9db6                	add	s11,s11,a3
   144ce:	00dc3423          	sd	a3,8(s8)
   144d2:	012c3023          	sd	s2,0(s8)
   144d6:	f26e                	sd	s11,288(sp)
   144d8:	10c12c23          	sw	a2,280(sp)
   144dc:	469d                	li	a3,7
   144de:	44c6d563          	bge	a3,a2,14928 <_vfprintf_r+0x14d8>
   144e2:	0a10                	addi	a2,sp,272
   144e4:	85d2                	mv	a1,s4
   144e6:	8556                	mv	a0,s5
   144e8:	a8afe0ef          	jal	ra,12772 <__sprint_r>
   144ec:	b00512e3          	bnez	a0,13ff0 <_vfprintf_r+0xba0>
   144f0:	11812603          	lw	a2,280(sp)
   144f4:	7d92                	ld	s11,288(sp)
   144f6:	1a010313          	addi	t1,sp,416
   144fa:	2605                	addiw	a2,a2,1
   144fc:	8c5e                	mv	s8,s7
   144fe:	b665                	j	140a6 <_vfprintf_r+0xc56>
   14500:	8826                	mv	a6,s1
   14502:	825ff06f          	j	13d26 <_vfprintf_r+0x8d6>
   14506:	0000a797          	auipc	a5,0xa
   1450a:	e5a78793          	addi	a5,a5,-422 # 1e360 <__func__.4057+0x2c0>
   1450e:	f43e                	sd	a5,40(sp)
   14510:	66c2                	ld	a3,16(sp)
   14512:	0204f793          	andi	a5,s1,32
   14516:	00868713          	addi	a4,a3,8
   1451a:	c7f9                	beqz	a5,145e8 <_vfprintf_r+0x1198>
   1451c:	0006b983          	ld	s3,0(a3)
   14520:	0014f793          	andi	a5,s1,1
   14524:	cf81                	beqz	a5,1453c <_vfprintf_r+0x10ec>
   14526:	00098b63          	beqz	s3,1453c <_vfprintf_r+0x10ec>
   1452a:	0024e493          	ori	s1,s1,2
   1452e:	03000793          	li	a5,48
   14532:	0ef10023          	sb	a5,224(sp)
   14536:	0fb100a3          	sb	s11,225(sp)
   1453a:	2481                	sext.w	s1,s1
   1453c:	bff4f493          	andi	s1,s1,-1025
   14540:	0004881b          	sext.w	a6,s1
   14544:	e83a                	sd	a4,16(sp)
   14546:	4789                	li	a5,2
   14548:	ab4ff06f          	j	137fc <_vfprintf_r+0x3ac>
   1454c:	2004e493          	ori	s1,s1,512
   14550:	00144f03          	lbu	t5,1(s0)
   14554:	2481                	sext.w	s1,s1
   14556:	0405                	addi	s0,s0,1
   14558:	82cff06f          	j	13584 <_vfprintf_r+0x134>
   1455c:	0204e493          	ori	s1,s1,32
   14560:	00144f03          	lbu	t5,1(s0)
   14564:	2481                	sext.w	s1,s1
   14566:	0405                	addi	s0,s0,1
   14568:	81cff06f          	j	13584 <_vfprintf_r+0x134>
   1456c:	0a10                	addi	a2,sp,272
   1456e:	85d2                	mv	a1,s4
   14570:	8556                	mv	a0,s5
   14572:	a00fe0ef          	jal	ra,12772 <__sprint_r>
   14576:	a6051de3          	bnez	a0,13ff0 <_vfprintf_r+0xba0>
   1457a:	7792                	ld	a5,288(sp)
   1457c:	835e                	mv	t1,s7
   1457e:	ba09                	j	13e90 <_vfprintf_r+0xa40>
   14580:	0000a797          	auipc	a5,0xa
   14584:	dc878793          	addi	a5,a5,-568 # 1e348 <__func__.4057+0x2a8>
   14588:	f43e                	sd	a5,40(sp)
   1458a:	b759                	j	14510 <_vfprintf_r+0x10c0>
   1458c:	4799                	li	a5,6
   1458e:	000e8c1b          	sext.w	s8,t4
   14592:	3dd7eb63          	bltu	a5,t4,14968 <_vfprintf_r+0x1518>
   14596:	89e2                	mv	s3,s8
   14598:	e836                	sd	a3,16(sp)
   1459a:	0000ac97          	auipc	s9,0xa
   1459e:	ddec8c93          	addi	s9,s9,-546 # 1e378 <__func__.4057+0x2d8>
   145a2:	854ff06f          	j	135f6 <_vfprintf_r+0x1a6>
   145a6:	11812703          	lw	a4,280(sp)
   145aa:	218d5063          	bge	s10,s8,147aa <_vfprintf_r+0x135a>
   145ae:	4d9d                	li	s11,7
   145b0:	a021                	j	145b8 <_vfprintf_r+0x1168>
   145b2:	3c41                	addiw	s8,s8,-16
   145b4:	1f8d5b63          	bge	s10,s8,147aa <_vfprintf_r+0x135a>
   145b8:	2705                	addiw	a4,a4,1
   145ba:	07c1                	addi	a5,a5,16
   145bc:	01233023          	sd	s2,0(t1)
   145c0:	01a33423          	sd	s10,8(t1)
   145c4:	f23e                	sd	a5,288(sp)
   145c6:	10e12c23          	sw	a4,280(sp)
   145ca:	0341                	addi	t1,t1,16
   145cc:	feedd3e3          	bge	s11,a4,145b2 <_vfprintf_r+0x1162>
   145d0:	0a10                	addi	a2,sp,272
   145d2:	85d2                	mv	a1,s4
   145d4:	8556                	mv	a0,s5
   145d6:	99cfe0ef          	jal	ra,12772 <__sprint_r>
   145da:	a0051be3          	bnez	a0,13ff0 <_vfprintf_r+0xba0>
   145de:	7792                	ld	a5,288(sp)
   145e0:	11812703          	lw	a4,280(sp)
   145e4:	835e                	mv	t1,s7
   145e6:	b7f1                	j	145b2 <_vfprintf_r+0x1162>
   145e8:	0104f793          	andi	a5,s1,16
   145ec:	c3cd                	beqz	a5,1468e <_vfprintf_r+0x123e>
   145ee:	67c2                	ld	a5,16(sp)
   145f0:	0007b983          	ld	s3,0(a5)
   145f4:	b735                	j	14520 <_vfprintf_r+0x10d0>
   145f6:	0a10                	addi	a2,sp,272
   145f8:	85d2                	mv	a1,s4
   145fa:	8556                	mv	a0,s5
   145fc:	976fe0ef          	jal	ra,12772 <__sprint_r>
   14600:	9e0518e3          	bnez	a0,13ff0 <_vfprintf_r+0xba0>
   14604:	7d92                	ld	s11,288(sp)
   14606:	11812703          	lw	a4,280(sp)
   1460a:	8c5e                	mv	s8,s7
   1460c:	b41d                	j	14032 <_vfprintf_r+0xbe2>
   1460e:	0a10                	addi	a2,sp,272
   14610:	85d2                	mv	a1,s4
   14612:	8556                	mv	a0,s5
   14614:	95efe0ef          	jal	ra,12772 <__sprint_r>
   14618:	9c051ce3          	bnez	a0,13ff0 <_vfprintf_r+0xba0>
   1461c:	7d92                	ld	s11,288(sp)
   1461e:	11812703          	lw	a4,280(sp)
   14622:	8c5e                	mv	s8,s7
   14624:	bc0d                	j	14056 <_vfprintf_r+0xc06>
   14626:	11812703          	lw	a4,280(sp)
   1462a:	0000a697          	auipc	a3,0xa
   1462e:	f0668693          	addi	a3,a3,-250 # 1e530 <zeroes.4497+0x30>
   14632:	00d33023          	sd	a3,0(t1)
   14636:	2705                	addiw	a4,a4,1
   14638:	4685                	li	a3,1
   1463a:	0785                	addi	a5,a5,1
   1463c:	00d33423          	sd	a3,8(t1)
   14640:	10e12c23          	sw	a4,280(sp)
   14644:	0007069b          	sext.w	a3,a4
   14648:	f23e                	sd	a5,288(sp)
   1464a:	471d                	li	a4,7
   1464c:	0341                	addi	t1,t1,16
   1464e:	2ed74363          	blt	a4,a3,14934 <_vfprintf_r+0x14e4>
   14652:	c4061363          	bnez	a2,13a98 <_vfprintf_r+0x648>
   14656:	7682                	ld	a3,32(sp)
   14658:	0014f713          	andi	a4,s1,1
   1465c:	8f55                	or	a4,a4,a3
   1465e:	e319                	bnez	a4,14664 <_vfprintf_r+0x1214>
   14660:	850ff06f          	j	136b0 <_vfprintf_r+0x260>
   14664:	76e6                	ld	a3,120(sp)
   14666:	7746                	ld	a4,112(sp)
   14668:	00d33023          	sd	a3,0(t1)
   1466c:	11812683          	lw	a3,280(sp)
   14670:	97ba                	add	a5,a5,a4
   14672:	00e33423          	sd	a4,8(t1)
   14676:	2685                	addiw	a3,a3,1
   14678:	0006871b          	sext.w	a4,a3
   1467c:	10d12c23          	sw	a3,280(sp)
   14680:	f23e                	sd	a5,288(sp)
   14682:	469d                	li	a3,7
   14684:	c2e6cd63          	blt	a3,a4,13abe <_vfprintf_r+0x66e>
   14688:	0341                	addi	t1,t1,16
   1468a:	c54ff06f          	j	13ade <_vfprintf_r+0x68e>
   1468e:	66c2                	ld	a3,16(sp)
   14690:	0404f793          	andi	a5,s1,64
   14694:	0006a983          	lw	s3,0(a3)
   14698:	cbe1                	beqz	a5,14768 <_vfprintf_r+0x1318>
   1469a:	19c2                	slli	s3,s3,0x30
   1469c:	0309d993          	srli	s3,s3,0x30
   146a0:	b541                	j	14520 <_vfprintf_r+0x10d0>
   146a2:	0a10                	addi	a2,sp,272
   146a4:	85d2                	mv	a1,s4
   146a6:	8556                	mv	a0,s5
   146a8:	8cafe0ef          	jal	ra,12772 <__sprint_r>
   146ac:	940512e3          	bnez	a0,13ff0 <_vfprintf_r+0xba0>
   146b0:	7792                	ld	a5,288(sp)
   146b2:	835e                	mv	t1,s7
   146b4:	faeff06f          	j	13e62 <_vfprintf_r+0xa12>
   146b8:	0017069b          	addiw	a3,a4,1
   146bc:	8736                	mv	a4,a3
   146be:	97e2                	add	a5,a5,s8
   146c0:	01233023          	sd	s2,0(t1)
   146c4:	fdbfe06f          	j	1369e <_vfprintf_r+0x24e>
   146c8:	6512                	ld	a0,256(sp)
   146ca:	65b2                	ld	a1,264(sp)
   146cc:	4601                	li	a2,0
   146ce:	4681                	li	a3,0
   146d0:	e41a                	sd	t1,8(sp)
   146d2:	64e080ef          	jal	ra,1cd20 <__letf2>
   146d6:	6322                	ld	t1,8(sp)
   146d8:	54054763          	bltz	a0,14c26 <_vfprintf_r+0x17d6>
   146dc:	0df14783          	lbu	a5,223(sp)
   146e0:	04700713          	li	a4,71
   146e4:	0000ac97          	auipc	s9,0xa
   146e8:	e2cc8c93          	addi	s9,s9,-468 # 1e510 <zeroes.4497+0x10>
   146ec:	25b74f63          	blt	a4,s11,1494a <_vfprintf_r+0x14fa>
   146f0:	f7f4f493          	andi	s1,s1,-129
   146f4:	ec02                	sd	zero,24(sp)
   146f6:	e882                	sd	zero,80(sp)
   146f8:	f082                	sd	zero,96(sp)
   146fa:	ec82                	sd	zero,88(sp)
   146fc:	2481                	sext.w	s1,s1
   146fe:	498d                	li	s3,3
   14700:	4c0d                	li	s8,3
   14702:	4e81                	li	t4,0
   14704:	8c079863          	bnez	a5,137d4 <_vfprintf_r+0x384>
   14708:	ef9fe06f          	j	13600 <_vfprintf_r+0x1b0>
   1470c:	8566                	mv	a0,s9
   1470e:	e41a                	sd	t1,8(sp)
   14710:	e836                	sd	a3,16(sp)
   14712:	4c4050ef          	jal	ra,19bd6 <strlen>
   14716:	00050c1b          	sext.w	s8,a0
   1471a:	fffc4993          	not	s3,s8
   1471e:	0df14783          	lbu	a5,223(sp)
   14722:	43f9d993          	srai	s3,s3,0x3f
   14726:	013c79b3          	and	s3,s8,s3
   1472a:	ec02                	sd	zero,24(sp)
   1472c:	e882                	sd	zero,80(sp)
   1472e:	f082                	sd	zero,96(sp)
   14730:	ec82                	sd	zero,88(sp)
   14732:	6322                	ld	t1,8(sp)
   14734:	2981                	sext.w	s3,s3
   14736:	4e81                	li	t4,0
   14738:	88079e63          	bnez	a5,137d4 <_vfprintf_r+0x384>
   1473c:	ec5fe06f          	j	13600 <_vfprintf_r+0x1b0>
   14740:	20087793          	andi	a5,a6,512
   14744:	26078463          	beqz	a5,149ac <_vfprintf_r+0x155c>
   14748:	0ff9f993          	zext.b	s3,s3
   1474c:	e83a                	sd	a4,16(sp)
   1474e:	4785                	li	a5,1
   14750:	8acff06f          	j	137fc <_vfprintf_r+0x3ac>
   14754:	2004f793          	andi	a5,s1,512
   14758:	24078463          	beqz	a5,149a0 <_vfprintf_r+0x1550>
   1475c:	67c2                	ld	a5,16(sp)
   1475e:	00078983          	lb	s3,0(a5)
   14762:	87ce                	mv	a5,s3
   14764:	82eff06f          	j	13792 <_vfprintf_r+0x342>
   14768:	2004f793          	andi	a5,s1,512
   1476c:	24078763          	beqz	a5,149ba <_vfprintf_r+0x156a>
   14770:	0ff9f993          	zext.b	s3,s3
   14774:	b375                	j	14520 <_vfprintf_r+0x10d0>
   14776:	2004f793          	andi	a5,s1,512
   1477a:	20078e63          	beqz	a5,14996 <_vfprintf_r+0x1546>
   1477e:	0ff9f993          	zext.b	s3,s3
   14782:	86eff06f          	j	137f0 <_vfprintf_r+0x3a0>
   14786:	67b2                	ld	a5,264(sp)
   14788:	2207cd63          	bltz	a5,149c2 <_vfprintf_r+0x1572>
   1478c:	0df14783          	lbu	a5,223(sp)
   14790:	04700713          	li	a4,71
   14794:	0000ac97          	auipc	s9,0xa
   14798:	d8cc8c93          	addi	s9,s9,-628 # 1e520 <zeroes.4497+0x20>
   1479c:	f5b75ae3          	bge	a4,s11,146f0 <_vfprintf_r+0x12a0>
   147a0:	0000ac97          	auipc	s9,0xa
   147a4:	d88c8c93          	addi	s9,s9,-632 # 1e528 <zeroes.4497+0x28>
   147a8:	b7a1                	j	146f0 <_vfprintf_r+0x12a0>
   147aa:	0017069b          	addiw	a3,a4,1
   147ae:	97e2                	add	a5,a5,s8
   147b0:	01233023          	sd	s2,0(t1)
   147b4:	01833423          	sd	s8,8(t1)
   147b8:	f23e                	sd	a5,288(sp)
   147ba:	10d12c23          	sw	a3,280(sp)
   147be:	471d                	li	a4,7
   147c0:	0341                	addi	t1,t1,16
   147c2:	aad758e3          	bge	a4,a3,14272 <_vfprintf_r+0xe22>
   147c6:	0a10                	addi	a2,sp,272
   147c8:	85d2                	mv	a1,s4
   147ca:	8556                	mv	a0,s5
   147cc:	fa7fd0ef          	jal	ra,12772 <__sprint_r>
   147d0:	820510e3          	bnez	a0,13ff0 <_vfprintf_r+0xba0>
   147d4:	7792                	ld	a5,288(sp)
   147d6:	835e                	mv	t1,s7
   147d8:	bc69                	j	14272 <_vfprintf_r+0xe22>
   147da:	7702                	ld	a4,32(sp)
   147dc:	4c1d                	li	s8,7
   147de:	9766                	add	a4,a4,s9
   147e0:	f83a                	sd	a4,48(sp)
   147e2:	7706                	ld	a4,96(sp)
   147e4:	cb49                	beqz	a4,14876 <_vfprintf_r+0x1426>
   147e6:	6746                	ld	a4,80(sp)
   147e8:	eb51                	bnez	a4,1487c <_vfprintf_r+0x142c>
   147ea:	7726                	ld	a4,104(sp)
   147ec:	177d                	addi	a4,a4,-1
   147ee:	f4ba                	sd	a4,104(sp)
   147f0:	7706                	ld	a4,96(sp)
   147f2:	377d                	addiw	a4,a4,-1
   147f4:	f0ba                	sd	a4,96(sp)
   147f6:	674a                	ld	a4,144(sp)
   147f8:	66aa                	ld	a3,136(sp)
   147fa:	0341                	addi	t1,t1,16
   147fc:	fee33823          	sd	a4,-16(t1)
   14800:	11812703          	lw	a4,280(sp)
   14804:	97b6                	add	a5,a5,a3
   14806:	fed33c23          	sd	a3,-8(t1)
   1480a:	2705                	addiw	a4,a4,1
   1480c:	f23e                	sd	a5,288(sp)
   1480e:	0007069b          	sext.w	a3,a4
   14812:	10e12c23          	sw	a4,280(sp)
   14816:	0cdc4e63          	blt	s8,a3,148f2 <_vfprintf_r+0x14a2>
   1481a:	7726                	ld	a4,104(sp)
   1481c:	00074603          	lbu	a2,0(a4)
   14820:	7742                	ld	a4,48(sp)
   14822:	41b705bb          	subw	a1,a4,s11
   14826:	0006071b          	sext.w	a4,a2
   1482a:	0007069b          	sext.w	a3,a4
   1482e:	00e5d463          	bge	a1,a4,14836 <_vfprintf_r+0x13e6>
   14832:	0005869b          	sext.w	a3,a1
   14836:	02d05663          	blez	a3,14862 <_vfprintf_r+0x1412>
   1483a:	11812703          	lw	a4,280(sp)
   1483e:	97b6                	add	a5,a5,a3
   14840:	01b33023          	sd	s11,0(t1)
   14844:	0017061b          	addiw	a2,a4,1
   14848:	00d33423          	sd	a3,8(t1)
   1484c:	f23e                	sd	a5,288(sp)
   1484e:	10c12c23          	sw	a2,280(sp)
   14852:	0acc4a63          	blt	s8,a2,14906 <_vfprintf_r+0x14b6>
   14856:	7726                	ld	a4,104(sp)
   14858:	0341                	addi	t1,t1,16
   1485a:	00074603          	lbu	a2,0(a4)
   1485e:	0006071b          	sext.w	a4,a2
   14862:	fff6c593          	not	a1,a3
   14866:	95fd                	srai	a1,a1,0x3f
   14868:	8eed                	and	a3,a3,a1
   1486a:	9f15                	subw	a4,a4,a3
   1486c:	00e04c63          	bgtz	a4,14884 <_vfprintf_r+0x1434>
   14870:	9db2                	add	s11,s11,a2
   14872:	7706                	ld	a4,96(sp)
   14874:	fb2d                	bnez	a4,147e6 <_vfprintf_r+0x1396>
   14876:	6746                	ld	a4,80(sp)
   14878:	30070463          	beqz	a4,14b80 <_vfprintf_r+0x1730>
   1487c:	6746                	ld	a4,80(sp)
   1487e:	377d                	addiw	a4,a4,-1
   14880:	e8ba                	sd	a4,80(sp)
   14882:	bf95                	j	147f6 <_vfprintf_r+0x13a6>
   14884:	11812683          	lw	a3,280(sp)
   14888:	00ed4663          	blt	s10,a4,14894 <_vfprintf_r+0x1444>
   1488c:	a081                	j	148cc <_vfprintf_r+0x147c>
   1488e:	3741                	addiw	a4,a4,-16
   14890:	02ed5e63          	bge	s10,a4,148cc <_vfprintf_r+0x147c>
   14894:	2685                	addiw	a3,a3,1
   14896:	07c1                	addi	a5,a5,16
   14898:	01233023          	sd	s2,0(t1)
   1489c:	01a33423          	sd	s10,8(t1)
   148a0:	f23e                	sd	a5,288(sp)
   148a2:	10d12c23          	sw	a3,280(sp)
   148a6:	0341                	addi	t1,t1,16
   148a8:	fedc53e3          	bge	s8,a3,1488e <_vfprintf_r+0x143e>
   148ac:	0a10                	addi	a2,sp,272
   148ae:	85d2                	mv	a1,s4
   148b0:	8556                	mv	a0,s5
   148b2:	e43a                	sd	a4,8(sp)
   148b4:	ebffd0ef          	jal	ra,12772 <__sprint_r>
   148b8:	f2051c63          	bnez	a0,13ff0 <_vfprintf_r+0xba0>
   148bc:	6722                	ld	a4,8(sp)
   148be:	7792                	ld	a5,288(sp)
   148c0:	11812683          	lw	a3,280(sp)
   148c4:	3741                	addiw	a4,a4,-16
   148c6:	835e                	mv	t1,s7
   148c8:	fced46e3          	blt	s10,a4,14894 <_vfprintf_r+0x1444>
   148cc:	2685                	addiw	a3,a3,1
   148ce:	97ba                	add	a5,a5,a4
   148d0:	00e33423          	sd	a4,8(t1)
   148d4:	01233023          	sd	s2,0(t1)
   148d8:	f23e                	sd	a5,288(sp)
   148da:	0006871b          	sext.w	a4,a3
   148de:	10d12c23          	sw	a3,280(sp)
   148e2:	32ec4463          	blt	s8,a4,14c0a <_vfprintf_r+0x17ba>
   148e6:	7726                	ld	a4,104(sp)
   148e8:	0341                	addi	t1,t1,16
   148ea:	00074603          	lbu	a2,0(a4)
   148ee:	9db2                	add	s11,s11,a2
   148f0:	b749                	j	14872 <_vfprintf_r+0x1422>
   148f2:	0a10                	addi	a2,sp,272
   148f4:	85d2                	mv	a1,s4
   148f6:	8556                	mv	a0,s5
   148f8:	e7bfd0ef          	jal	ra,12772 <__sprint_r>
   148fc:	ee051a63          	bnez	a0,13ff0 <_vfprintf_r+0xba0>
   14900:	7792                	ld	a5,288(sp)
   14902:	835e                	mv	t1,s7
   14904:	bf19                	j	1481a <_vfprintf_r+0x13ca>
   14906:	0a10                	addi	a2,sp,272
   14908:	85d2                	mv	a1,s4
   1490a:	8556                	mv	a0,s5
   1490c:	e436                	sd	a3,8(sp)
   1490e:	e65fd0ef          	jal	ra,12772 <__sprint_r>
   14912:	ec051f63          	bnez	a0,13ff0 <_vfprintf_r+0xba0>
   14916:	77a6                	ld	a5,104(sp)
   14918:	66a2                	ld	a3,8(sp)
   1491a:	835e                	mv	t1,s7
   1491c:	0007c603          	lbu	a2,0(a5)
   14920:	7792                	ld	a5,288(sp)
   14922:	0006071b          	sext.w	a4,a2
   14926:	bf35                	j	14862 <_vfprintf_r+0x1412>
   14928:	2605                	addiw	a2,a2,1
   1492a:	01070313          	addi	t1,a4,16
   1492e:	8c3a                	mv	s8,a4
   14930:	f76ff06f          	j	140a6 <_vfprintf_r+0xc56>
   14934:	0a10                	addi	a2,sp,272
   14936:	85d2                	mv	a1,s4
   14938:	8556                	mv	a0,s5
   1493a:	e39fd0ef          	jal	ra,12772 <__sprint_r>
   1493e:	ea051963          	bnez	a0,13ff0 <_vfprintf_r+0xba0>
   14942:	562e                	lw	a2,232(sp)
   14944:	7792                	ld	a5,288(sp)
   14946:	835e                	mv	t1,s7
   14948:	b329                	j	14652 <_vfprintf_r+0x1202>
   1494a:	0000ac97          	auipc	s9,0xa
   1494e:	bcec8c93          	addi	s9,s9,-1074 # 1e518 <zeroes.4497+0x18>
   14952:	bb79                	j	146f0 <_vfprintf_r+0x12a0>
   14954:	0a10                	addi	a2,sp,272
   14956:	85d2                	mv	a1,s4
   14958:	8556                	mv	a0,s5
   1495a:	e19fd0ef          	jal	ra,12772 <__sprint_r>
   1495e:	e8051963          	bnez	a0,13ff0 <_vfprintf_r+0xba0>
   14962:	7792                	ld	a5,288(sp)
   14964:	835e                	mv	t1,s7
   14966:	b8e5                	j	1425e <_vfprintf_r+0xe0e>
   14968:	4c19                	li	s8,6
   1496a:	b135                	j	14596 <_vfprintf_r+0x1146>
   1496c:	7682                	ld	a3,32(sp)
   1496e:	00dc8833          	add	a6,s9,a3
   14972:	40e6873b          	subw	a4,a3,a4
   14976:	41b80ebb          	subw	t4,a6,s11
   1497a:	0007069b          	sext.w	a3,a4
   1497e:	00ded363          	bge	t4,a3,14984 <_vfprintf_r+0x1534>
   14982:	8776                	mv	a4,t4
   14984:	00070c9b          	sext.w	s9,a4
   14988:	b2bd                	j	142f6 <_vfprintf_r+0xea6>
   1498a:	6782                	ld	a5,0(sp)
   1498c:	8ca2                	mv	s9,s0
   1498e:	00f71023          	sh	a5,0(a4)
   14992:	d51fe06f          	j	136e2 <_vfprintf_r+0x292>
   14996:	1982                	slli	s3,s3,0x20
   14998:	0209d993          	srli	s3,s3,0x20
   1499c:	e55fe06f          	j	137f0 <_vfprintf_r+0x3a0>
   149a0:	67c2                	ld	a5,16(sp)
   149a2:	0007a983          	lw	s3,0(a5)
   149a6:	87ce                	mv	a5,s3
   149a8:	debfe06f          	j	13792 <_vfprintf_r+0x342>
   149ac:	1982                	slli	s3,s3,0x20
   149ae:	0209d993          	srli	s3,s3,0x20
   149b2:	e83a                	sd	a4,16(sp)
   149b4:	4785                	li	a5,1
   149b6:	e47fe06f          	j	137fc <_vfprintf_r+0x3ac>
   149ba:	1982                	slli	s3,s3,0x20
   149bc:	0209d993          	srli	s3,s3,0x20
   149c0:	b685                	j	14520 <_vfprintf_r+0x10d0>
   149c2:	02d00793          	li	a5,45
   149c6:	0cf10fa3          	sb	a5,223(sp)
   149ca:	b3d9                	j	14790 <_vfprintf_r+0x1340>
   149cc:	0a10                	addi	a2,sp,272
   149ce:	85d2                	mv	a1,s4
   149d0:	8556                	mv	a0,s5
   149d2:	da1fd0ef          	jal	ra,12772 <__sprint_r>
   149d6:	d1dfe06f          	j	136f2 <_vfprintf_r+0x2a2>
   149da:	03000793          	li	a5,48
   149de:	0ef10023          	sb	a5,224(sp)
   149e2:	05800713          	li	a4,88
   149e6:	0024e793          	ori	a5,s1,2
   149ea:	2781                	sext.w	a5,a5
   149ec:	0ee100a3          	sb	a4,225(sp)
   149f0:	ed3e                	sd	a5,152(sp)
   149f2:	06300713          	li	a4,99
   149f6:	ec02                	sd	zero,24(sp)
   149f8:	12810c93          	addi	s9,sp,296
   149fc:	47d74563          	blt	a4,t4,14e66 <_vfprintf_r+0x1a16>
   14a00:	69b2                	ld	s3,264(sp)
   14a02:	fdfdf713          	andi	a4,s11,-33
   14a06:	1024e493          	ori	s1,s1,258
   14a0a:	f0ba                	sd	a4,96(sp)
   14a0c:	e582                	sd	zero,200(sp)
   14a0e:	6c12                	ld	s8,256(sp)
   14a10:	2481                	sext.w	s1,s1
   14a12:	1e09c463          	bltz	s3,14bfa <_vfprintf_r+0x17aa>
   14a16:	06100793          	li	a5,97
   14a1a:	52fd8c63          	beq	s11,a5,14f52 <_vfprintf_r+0x1b02>
   14a1e:	04100793          	li	a5,65
   14a22:	00fd8463          	beq	s11,a5,14a2a <_vfprintf_r+0x15da>
   14a26:	eb7fe06f          	j	138dc <_vfprintf_r+0x48c>
   14a2a:	85ce                	mv	a1,s3
   14a2c:	8562                	mv	a0,s8
   14a2e:	fc1a                	sd	t1,56(sp)
   14a30:	f876                	sd	t4,48(sp)
   14a32:	356090ef          	jal	ra,1dd88 <__trunctfdf2>
   14a36:	11a8                	addi	a0,sp,232
   14a38:	409040ef          	jal	ra,19640 <frexp>
   14a3c:	28c090ef          	jal	ra,1dcc8 <__extenddftf2>
   14a40:	0000a797          	auipc	a5,0xa
   14a44:	cb078793          	addi	a5,a5,-848 # 1e6f0 <zeroes.4521+0x38>
   14a48:	6390                	ld	a2,0(a5)
   14a4a:	6794                	ld	a3,8(a5)
   14a4c:	37c080ef          	jal	ra,1cdc8 <__multf3>
   14a50:	4601                	li	a2,0
   14a52:	4681                	li	a3,0
   14a54:	f02a                	sd	a0,32(sp)
   14a56:	e42e                	sd	a1,8(sp)
   14a58:	18c080ef          	jal	ra,1cbe4 <__eqtf2>
   14a5c:	62a2                	ld	t0,8(sp)
   14a5e:	7702                	ld	a4,32(sp)
   14a60:	7ec2                	ld	t4,48(sp)
   14a62:	7362                	ld	t1,56(sp)
   14a64:	e119                	bnez	a0,14a6a <_vfprintf_r+0x161a>
   14a66:	4785                	li	a5,1
   14a68:	d5be                	sw	a5,232(sp)
   14a6a:	0000a797          	auipc	a5,0xa
   14a6e:	8de78793          	addi	a5,a5,-1826 # 1e348 <__func__.4057+0x2a8>
   14a72:	e8be                	sd	a5,80(sp)
   14a74:	020e9793          	slli	a5,t4,0x20
   14a78:	0000a697          	auipc	a3,0xa
   14a7c:	c5868693          	addi	a3,a3,-936 # 1e6d0 <zeroes.4521+0x18>
   14a80:	9381                	srli	a5,a5,0x20
   14a82:	6290                	ld	a2,0(a3)
   14a84:	0785                	addi	a5,a5,1
   14a86:	6694                	ld	a3,8(a3)
   14a88:	97e6                	add	a5,a5,s9
   14a8a:	f13e                	sd	a5,160(sp)
   14a8c:	01dc87bb          	addw	a5,s9,t4
   14a90:	fd32                	sd	a2,184(sp)
   14a92:	e1b6                	sd	a3,192(sp)
   14a94:	8c66                	mv	s8,s9
   14a96:	db3e                	sw	a5,180(sp)
   14a98:	a831                	j	14ab4 <_vfprintf_r+0x1664>
   14a9a:	4601                	li	a2,0
   14a9c:	4681                	li	a3,0
   14a9e:	e4ae                	sd	a1,72(sp)
   14aa0:	e0aa                	sd	a0,64(sp)
   14aa2:	142080ef          	jal	ra,1cbe4 <__eqtf2>
   14aa6:	7ec2                	ld	t4,48(sp)
   14aa8:	7362                	ld	t1,56(sp)
   14aaa:	6f86                	ld	t6,64(sp)
   14aac:	68a6                	ld	a7,72(sp)
   14aae:	62a2                	ld	t0,8(sp)
   14ab0:	7702                	ld	a4,32(sp)
   14ab2:	c135                	beqz	a0,14b16 <_vfprintf_r+0x16c6>
   14ab4:	766a                	ld	a2,184(sp)
   14ab6:	668e                	ld	a3,192(sp)
   14ab8:	853a                	mv	a0,a4
   14aba:	8596                	mv	a1,t0
   14abc:	fc1a                	sd	t1,56(sp)
   14abe:	f876                	sd	t4,48(sp)
   14ac0:	308080ef          	jal	ra,1cdc8 <__multf3>
   14ac4:	e42e                	sd	a1,8(sp)
   14ac6:	f02a                	sd	a0,32(sp)
   14ac8:	10e090ef          	jal	ra,1dbd6 <__fixtfsi>
   14acc:	0005099b          	sext.w	s3,a0
   14ad0:	854e                	mv	a0,s3
   14ad2:	19a090ef          	jal	ra,1dc6c <__floatsitf>
   14ad6:	7882                	ld	a7,32(sp)
   14ad8:	6722                	ld	a4,8(sp)
   14ada:	862a                	mv	a2,a0
   14adc:	86ae                	mv	a3,a1
   14ade:	8546                	mv	a0,a7
   14ae0:	85ba                	mv	a1,a4
   14ae2:	0f9080ef          	jal	ra,1d3da <__subtf3>
   14ae6:	67c6                	ld	a5,80(sp)
   14ae8:	f562                	sd	s8,168(sp)
   14aea:	0c05                	addi	s8,s8,1
   14aec:	01378733          	add	a4,a5,s3
   14af0:	57da                	lw	a5,180(sp)
   14af2:	00074703          	lbu	a4,0(a4)
   14af6:	f02a                	sd	a0,32(sp)
   14af8:	418787bb          	subw	a5,a5,s8
   14afc:	ecbe                	sd	a5,88(sp)
   14afe:	778a                	ld	a5,160(sp)
   14b00:	feec0fa3          	sb	a4,-1(s8)
   14b04:	e42e                	sd	a1,8(sp)
   14b06:	7ec2                	ld	t4,48(sp)
   14b08:	7362                	ld	t1,56(sp)
   14b0a:	8faa                	mv	t6,a0
   14b0c:	88ae                	mv	a7,a1
   14b0e:	f98796e3          	bne	a5,s8,14a9a <_vfprintf_r+0x164a>
   14b12:	57fd                	li	a5,-1
   14b14:	ecbe                	sd	a5,88(sp)
   14b16:	0000a717          	auipc	a4,0xa
   14b1a:	bca70713          	addi	a4,a4,-1078 # 1e6e0 <zeroes.4521+0x28>
   14b1e:	6310                	ld	a2,0(a4)
   14b20:	6714                	ld	a3,8(a4)
   14b22:	857e                	mv	a0,t6
   14b24:	85c6                	mv	a1,a7
   14b26:	f01a                	sd	t1,32(sp)
   14b28:	e476                	sd	t4,8(sp)
   14b2a:	e4fe                	sd	t6,72(sp)
   14b2c:	e0b2                	sd	a2,64(sp)
   14b2e:	fc36                	sd	a3,56(sp)
   14b30:	f846                	sd	a7,48(sp)
   14b32:	146080ef          	jal	ra,1cc78 <__getf2>
   14b36:	6ea2                	ld	t4,8(sp)
   14b38:	7302                	ld	t1,32(sp)
   14b3a:	2ca04f63          	bgtz	a0,14e18 <_vfprintf_r+0x19c8>
   14b3e:	6fa6                	ld	t6,72(sp)
   14b40:	78c2                	ld	a7,48(sp)
   14b42:	6606                	ld	a2,64(sp)
   14b44:	76e2                	ld	a3,56(sp)
   14b46:	857e                	mv	a0,t6
   14b48:	85c6                	mv	a1,a7
   14b4a:	09a080ef          	jal	ra,1cbe4 <__eqtf2>
   14b4e:	6ea2                	ld	t4,8(sp)
   14b50:	7302                	ld	t1,32(sp)
   14b52:	e509                	bnez	a0,14b5c <_vfprintf_r+0x170c>
   14b54:	0019f993          	andi	s3,s3,1
   14b58:	2c099063          	bnez	s3,14e18 <_vfprintf_r+0x19c8>
   14b5c:	67e6                	ld	a5,88(sp)
   14b5e:	03000693          	li	a3,48
   14b62:	00178713          	addi	a4,a5,1
   14b66:	9762                	add	a4,a4,s8
   14b68:	0007c763          	bltz	a5,14b76 <_vfprintf_r+0x1726>
   14b6c:	0c05                	addi	s8,s8,1
   14b6e:	fedc0fa3          	sb	a3,-1(s8)
   14b72:	ff871de3          	bne	a4,s8,14b6c <_vfprintf_r+0x171c>
   14b76:	419c07bb          	subw	a5,s8,s9
   14b7a:	f03e                	sd	a5,32(sp)
   14b7c:	de5fe06f          	j	13960 <_vfprintf_r+0x510>
   14b80:	7702                	ld	a4,32(sp)
   14b82:	9766                	add	a4,a4,s9
   14b84:	efb77e63          	bgeu	a4,s11,14280 <_vfprintf_r+0xe30>
   14b88:	8dba                	mv	s11,a4
   14b8a:	ef6ff06f          	j	14280 <_vfprintf_r+0xe30>
   14b8e:	6766                	ld	a4,88(sp)
   14b90:	57f5                	li	a5,-3
   14b92:	00f74463          	blt	a4,a5,14b9a <_vfprintf_r+0x174a>
   14b96:	00eed863          	bge	t4,a4,14ba6 <_vfprintf_r+0x1756>
   14b9a:	3df9                	addiw	s11,s11,-2
   14b9c:	fdfdf793          	andi	a5,s11,-33
   14ba0:	f0be                	sd	a5,96(sp)
   14ba2:	ddffe06f          	j	13980 <_vfprintf_r+0x530>
   14ba6:	7782                	ld	a5,32(sp)
   14ba8:	6766                	ld	a4,88(sp)
   14baa:	16f74563          	blt	a4,a5,14d14 <_vfprintf_r+0x18c4>
   14bae:	67ea                	ld	a5,152(sp)
   14bb0:	8c3a                	mv	s8,a4
   14bb2:	8b85                	andi	a5,a5,1
   14bb4:	c781                	beqz	a5,14bbc <_vfprintf_r+0x176c>
   14bb6:	77c6                	ld	a5,112(sp)
   14bb8:	00e78c3b          	addw	s8,a5,a4
   14bbc:	67ea                	ld	a5,152(sp)
   14bbe:	4007f793          	andi	a5,a5,1024
   14bc2:	c781                	beqz	a5,14bca <_vfprintf_r+0x177a>
   14bc4:	67e6                	ld	a5,88(sp)
   14bc6:	30f04763          	bgtz	a5,14ed4 <_vfprintf_r+0x1a84>
   14bca:	fffc4993          	not	s3,s8
   14bce:	43f9d993          	srai	s3,s3,0x3f
   14bd2:	013c79b3          	and	s3,s8,s3
   14bd6:	2981                	sext.w	s3,s3
   14bd8:	06700d93          	li	s11,103
   14bdc:	e882                	sd	zero,80(sp)
   14bde:	f082                	sd	zero,96(sp)
   14be0:	e83fe06f          	j	13a62 <_vfprintf_r+0x612>
   14be4:	0df14783          	lbu	a5,223(sp)
   14be8:	4e81                	li	t4,0
   14bea:	c399                	beqz	a5,14bf0 <_vfprintf_r+0x17a0>
   14bec:	be9fe06f          	j	137d4 <_vfprintf_r+0x384>
   14bf0:	a11fe06f          	j	13600 <_vfprintf_r+0x1b0>
   14bf4:	ed26                	sd	s1,152(sp)
   14bf6:	ec02                	sd	zero,24(sp)
   14bf8:	84fe                	mv	s1,t6
   14bfa:	57fd                	li	a5,-1
   14bfc:	17fe                	slli	a5,a5,0x3f
   14bfe:	00f9c9b3          	xor	s3,s3,a5
   14c02:	02d00793          	li	a5,45
   14c06:	e5be                	sd	a5,200(sp)
   14c08:	b539                	j	14a16 <_vfprintf_r+0x15c6>
   14c0a:	0a10                	addi	a2,sp,272
   14c0c:	85d2                	mv	a1,s4
   14c0e:	8556                	mv	a0,s5
   14c10:	b63fd0ef          	jal	ra,12772 <__sprint_r>
   14c14:	bc051e63          	bnez	a0,13ff0 <_vfprintf_r+0xba0>
   14c18:	77a6                	ld	a5,104(sp)
   14c1a:	835e                	mv	t1,s7
   14c1c:	0007c603          	lbu	a2,0(a5)
   14c20:	7792                	ld	a5,288(sp)
   14c22:	9db2                	add	s11,s11,a2
   14c24:	b1b9                	j	14872 <_vfprintf_r+0x1422>
   14c26:	02d00793          	li	a5,45
   14c2a:	0cf10fa3          	sb	a5,223(sp)
   14c2e:	bc4d                	j	146e0 <_vfprintf_r+0x1290>
   14c30:	8776                	mv	a4,t4
   14c32:	11bc                	addi	a5,sp,232
   14c34:	0f810893          	addi	a7,sp,248
   14c38:	0ec10813          	addi	a6,sp,236
   14c3c:	4689                	li	a3,2
   14c3e:	85e2                	mv	a1,s8
   14c40:	864e                	mv	a2,s3
   14c42:	8556                	mv	a0,s5
   14c44:	f01a                	sd	t1,32(sp)
   14c46:	e476                	sd	t4,8(sp)
   14c48:	5c0020ef          	jal	ra,17208 <_ldtoa_r>
   14c4c:	7706                	ld	a4,96(sp)
   14c4e:	04700793          	li	a5,71
   14c52:	6ea2                	ld	t4,8(sp)
   14c54:	7302                	ld	t1,32(sp)
   14c56:	8caa                	mv	s9,a0
   14c58:	02f71d63          	bne	a4,a5,14c92 <_vfprintf_r+0x1842>
   14c5c:	67ea                	ld	a5,152(sp)
   14c5e:	8b85                	andi	a5,a5,1
   14c60:	18079b63          	bnez	a5,14df6 <_vfprintf_r+0x19a6>
   14c64:	04700713          	li	a4,71
   14c68:	77ee                	ld	a5,248(sp)
   14c6a:	f0ba                	sd	a4,96(sp)
   14c6c:	ceffe06f          	j	1395a <_vfprintf_r+0x50a>
   14c70:	8776                	mv	a4,t4
   14c72:	0f810893          	addi	a7,sp,248
   14c76:	0ec10813          	addi	a6,sp,236
   14c7a:	11bc                	addi	a5,sp,232
   14c7c:	468d                	li	a3,3
   14c7e:	85e2                	mv	a1,s8
   14c80:	864e                	mv	a2,s3
   14c82:	8556                	mv	a0,s5
   14c84:	f01a                	sd	t1,32(sp)
   14c86:	e476                	sd	t4,8(sp)
   14c88:	580020ef          	jal	ra,17208 <_ldtoa_r>
   14c8c:	6ea2                	ld	t4,8(sp)
   14c8e:	7302                	ld	t1,32(sp)
   14c90:	8caa                	mv	s9,a0
   14c92:	7706                	ld	a4,96(sp)
   14c94:	04600793          	li	a5,70
   14c98:	01dc88b3          	add	a7,s9,t4
   14c9c:	00f70463          	beq	a4,a5,14ca4 <_vfprintf_r+0x1854>
   14ca0:	c85fe06f          	j	13924 <_vfprintf_r+0x4d4>
   14ca4:	000cc703          	lbu	a4,0(s9)
   14ca8:	03000793          	li	a5,48
   14cac:	00f70663          	beq	a4,a5,14cb8 <_vfprintf_r+0x1868>
   14cb0:	572e                	lw	a4,232(sp)
   14cb2:	98ba                	add	a7,a7,a4
   14cb4:	c71fe06f          	j	13924 <_vfprintf_r+0x4d4>
   14cb8:	4601                	li	a2,0
   14cba:	4681                	li	a3,0
   14cbc:	8562                	mv	a0,s8
   14cbe:	85ce                	mv	a1,s3
   14cc0:	f846                	sd	a7,48(sp)
   14cc2:	f01a                	sd	t1,32(sp)
   14cc4:	e476                	sd	t4,8(sp)
   14cc6:	71f070ef          	jal	ra,1cbe4 <__eqtf2>
   14cca:	6ea2                	ld	t4,8(sp)
   14ccc:	7302                	ld	t1,32(sp)
   14cce:	78c2                	ld	a7,48(sp)
   14cd0:	d165                	beqz	a0,14cb0 <_vfprintf_r+0x1860>
   14cd2:	4785                	li	a5,1
   14cd4:	41d7873b          	subw	a4,a5,t4
   14cd8:	d5ba                	sw	a4,232(sp)
   14cda:	98ba                	add	a7,a7,a4
   14cdc:	c49fe06f          	j	13924 <_vfprintf_r+0x4d4>
   14ce0:	0a10                	addi	a2,sp,272
   14ce2:	85d2                	mv	a1,s4
   14ce4:	8556                	mv	a0,s5
   14ce6:	a8dfd0ef          	jal	ra,12772 <__sprint_r>
   14cea:	b0051363          	bnez	a0,13ff0 <_vfprintf_r+0xba0>
   14cee:	572e                	lw	a4,232(sp)
   14cf0:	7792                	ld	a5,288(sp)
   14cf2:	835e                	mv	t1,s7
   14cf4:	dc2ff06f          	j	142b6 <_vfprintf_r+0xe66>
   14cf8:	0df14783          	lbu	a5,223(sp)
   14cfc:	e836                	sd	a3,16(sp)
   14cfe:	e882                	sd	zero,80(sp)
   14d00:	f082                	sd	zero,96(sp)
   14d02:	ec82                	sd	zero,88(sp)
   14d04:	89f6                	mv	s3,t4
   14d06:	8c76                	mv	s8,t4
   14d08:	4e81                	li	t4,0
   14d0a:	c399                	beqz	a5,14d10 <_vfprintf_r+0x18c0>
   14d0c:	ac9fe06f          	j	137d4 <_vfprintf_r+0x384>
   14d10:	8f1fe06f          	j	13600 <_vfprintf_r+0x1b0>
   14d14:	7702                	ld	a4,32(sp)
   14d16:	77c6                	ld	a5,112(sp)
   14d18:	06700d93          	li	s11,103
   14d1c:	00e78c3b          	addw	s8,a5,a4
   14d20:	6766                	ld	a4,88(sp)
   14d22:	2ce05263          	blez	a4,14fe6 <_vfprintf_r+0x1b96>
   14d26:	67ea                	ld	a5,152(sp)
   14d28:	4007f793          	andi	a5,a5,1024
   14d2c:	1a079663          	bnez	a5,14ed8 <_vfprintf_r+0x1a88>
   14d30:	fffc4993          	not	s3,s8
   14d34:	43f9d993          	srai	s3,s3,0x3f
   14d38:	013c79b3          	and	s3,s8,s3
   14d3c:	2981                	sext.w	s3,s3
   14d3e:	bd79                	j	14bdc <_vfprintf_r+0x178c>
   14d40:	67ea                	ld	a5,152(sp)
   14d42:	6766                	ld	a4,88(sp)
   14d44:	8b85                	andi	a5,a5,1
   14d46:	00fee7b3          	or	a5,t4,a5
   14d4a:	2ae05c63          	blez	a4,15002 <_vfprintf_r+0x1bb2>
   14d4e:	26079d63          	bnez	a5,14fc8 <_vfprintf_r+0x1b78>
   14d52:	6c66                	ld	s8,88(sp)
   14d54:	06600d93          	li	s11,102
   14d58:	b7f9                	j	14d26 <_vfprintf_r+0x18d6>
   14d5a:	0a10                	addi	a2,sp,272
   14d5c:	85d2                	mv	a1,s4
   14d5e:	8556                	mv	a0,s5
   14d60:	a13fd0ef          	jal	ra,12772 <__sprint_r>
   14d64:	a8051663          	bnez	a0,13ff0 <_vfprintf_r+0xba0>
   14d68:	56ae                	lw	a3,232(sp)
   14d6a:	7702                	ld	a4,32(sp)
   14d6c:	7792                	ld	a5,288(sp)
   14d6e:	835e                	mv	t1,s7
   14d70:	40d706bb          	subw	a3,a4,a3
   14d74:	d82ff06f          	j	142f6 <_vfprintf_r+0xea6>
   14d78:	57fd                	li	a5,-1
   14d7a:	e03e                	sd	a5,0(sp)
   14d7c:	985fe06f          	j	13700 <_vfprintf_r+0x2b0>
   14d80:	56c1                	li	a3,-16
   14d82:	40c00c3b          	negw	s8,a2
   14d86:	02d65f63          	bge	a2,a3,14dc4 <_vfprintf_r+0x1974>
   14d8a:	4d9d                	li	s11,7
   14d8c:	a021                	j	14d94 <_vfprintf_r+0x1944>
   14d8e:	3c41                	addiw	s8,s8,-16
   14d90:	038d5a63          	bge	s10,s8,14dc4 <_vfprintf_r+0x1974>
   14d94:	2705                	addiw	a4,a4,1
   14d96:	07c1                	addi	a5,a5,16
   14d98:	01233023          	sd	s2,0(t1)
   14d9c:	01a33423          	sd	s10,8(t1)
   14da0:	f23e                	sd	a5,288(sp)
   14da2:	10e12c23          	sw	a4,280(sp)
   14da6:	0341                	addi	t1,t1,16
   14da8:	feedd3e3          	bge	s11,a4,14d8e <_vfprintf_r+0x193e>
   14dac:	0a10                	addi	a2,sp,272
   14dae:	85d2                	mv	a1,s4
   14db0:	8556                	mv	a0,s5
   14db2:	9c1fd0ef          	jal	ra,12772 <__sprint_r>
   14db6:	a2051d63          	bnez	a0,13ff0 <_vfprintf_r+0xba0>
   14dba:	7792                	ld	a5,288(sp)
   14dbc:	11812703          	lw	a4,280(sp)
   14dc0:	835e                	mv	t1,s7
   14dc2:	b7f1                	j	14d8e <_vfprintf_r+0x193e>
   14dc4:	2705                	addiw	a4,a4,1
   14dc6:	97e2                	add	a5,a5,s8
   14dc8:	01233023          	sd	s2,0(t1)
   14dcc:	01833423          	sd	s8,8(t1)
   14dd0:	f23e                	sd	a5,288(sp)
   14dd2:	10e12c23          	sw	a4,280(sp)
   14dd6:	469d                	li	a3,7
   14dd8:	8ae6d8e3          	bge	a3,a4,14688 <_vfprintf_r+0x1238>
   14ddc:	0a10                	addi	a2,sp,272
   14dde:	85d2                	mv	a1,s4
   14de0:	8556                	mv	a0,s5
   14de2:	991fd0ef          	jal	ra,12772 <__sprint_r>
   14de6:	a0051563          	bnez	a0,13ff0 <_vfprintf_r+0xba0>
   14dea:	7792                	ld	a5,288(sp)
   14dec:	11812703          	lw	a4,280(sp)
   14df0:	835e                	mv	t1,s7
   14df2:	cedfe06f          	j	13ade <_vfprintf_r+0x68e>
   14df6:	04700793          	li	a5,71
   14dfa:	01dc88b3          	add	a7,s9,t4
   14dfe:	f0be                	sd	a5,96(sp)
   14e00:	b25fe06f          	j	13924 <_vfprintf_r+0x4d4>
   14e04:	8826                	mv	a6,s1
   14e06:	accff06f          	j	140d2 <_vfprintf_r+0xc82>
   14e0a:	03000793          	li	a5,48
   14e0e:	0ef10023          	sb	a5,224(sp)
   14e12:	07800713          	li	a4,120
   14e16:	bec1                	j	149e6 <_vfprintf_r+0x1596>
   14e18:	77aa                	ld	a5,168(sp)
   14e1a:	8762                	mv	a4,s8
   14e1c:	fdbe                	sd	a5,248(sp)
   14e1e:	67c6                	ld	a5,80(sp)
   14e20:	fffc4683          	lbu	a3,-1(s8)
   14e24:	00f7c603          	lbu	a2,15(a5)
   14e28:	00d61e63          	bne	a2,a3,14e44 <_vfprintf_r+0x19f4>
   14e2c:	03000593          	li	a1,48
   14e30:	feb70fa3          	sb	a1,-1(a4)
   14e34:	776e                	ld	a4,248(sp)
   14e36:	fff70693          	addi	a3,a4,-1
   14e3a:	fdb6                	sd	a3,248(sp)
   14e3c:	fff74683          	lbu	a3,-1(a4)
   14e40:	fed608e3          	beq	a2,a3,14e30 <_vfprintf_r+0x19e0>
   14e44:	0016861b          	addiw	a2,a3,1
   14e48:	03900593          	li	a1,57
   14e4c:	0ff67613          	zext.b	a2,a2
   14e50:	00b68563          	beq	a3,a1,14e5a <_vfprintf_r+0x1a0a>
   14e54:	fec70fa3          	sb	a2,-1(a4)
   14e58:	bb39                	j	14b76 <_vfprintf_r+0x1726>
   14e5a:	67c6                	ld	a5,80(sp)
   14e5c:	00a7c603          	lbu	a2,10(a5)
   14e60:	fec70fa3          	sb	a2,-1(a4)
   14e64:	bb09                	j	14b76 <_vfprintf_r+0x1726>
   14e66:	001e859b          	addiw	a1,t4,1
   14e6a:	8556                	mv	a0,s5
   14e6c:	ec1a                	sd	t1,24(sp)
   14e6e:	e476                	sd	t4,8(sp)
   14e70:	8e8fd0ef          	jal	ra,11f58 <_malloc_r>
   14e74:	6ea2                	ld	t4,8(sp)
   14e76:	6362                	ld	t1,24(sp)
   14e78:	8caa                	mv	s9,a0
   14e7a:	1e050063          	beqz	a0,1505a <_vfprintf_r+0x1c0a>
   14e7e:	ec2a                	sd	a0,24(sp)
   14e80:	b641                	j	14a00 <_vfprintf_r+0x15b0>
   14e82:	000e9363          	bnez	t4,14e88 <_vfprintf_r+0x1a38>
   14e86:	4e85                	li	t4,1
   14e88:	69b2                	ld	s3,264(sp)
   14e8a:	1004ef93          	ori	t6,s1,256
   14e8e:	6c12                	ld	s8,256(sp)
   14e90:	2f81                	sext.w	t6,t6
   14e92:	d609c1e3          	bltz	s3,14bf4 <_vfprintf_r+0x17a4>
   14e96:	8776                	mv	a4,t4
   14e98:	0f810893          	addi	a7,sp,248
   14e9c:	0ec10813          	addi	a6,sp,236
   14ea0:	11bc                	addi	a5,sp,232
   14ea2:	4689                	li	a3,2
   14ea4:	85e2                	mv	a1,s8
   14ea6:	864e                	mv	a2,s3
   14ea8:	8556                	mv	a0,s5
   14eaa:	ec7e                	sd	t6,24(sp)
   14eac:	f01a                	sd	t1,32(sp)
   14eae:	e476                	sd	t4,8(sp)
   14eb0:	358020ef          	jal	ra,17208 <_ldtoa_r>
   14eb4:	6fe2                	ld	t6,24(sp)
   14eb6:	ed26                	sd	s1,152(sp)
   14eb8:	6ea2                	ld	t4,8(sp)
   14eba:	7302                	ld	t1,32(sp)
   14ebc:	8caa                	mv	s9,a0
   14ebe:	84fe                	mv	s1,t6
   14ec0:	ec02                	sd	zero,24(sp)
   14ec2:	e582                	sd	zero,200(sp)
   14ec4:	bb61                	j	14c5c <_vfprintf_r+0x180c>
   14ec6:	4e99                	li	t4,6
   14ec8:	9fbfe06f          	j	138c2 <_vfprintf_r+0x472>
   14ecc:	c31c                	sw	a5,0(a4)
   14ece:	8ca2                	mv	s9,s0
   14ed0:	813fe06f          	j	136e2 <_vfprintf_r+0x292>
   14ed4:	06700d93          	li	s11,103
   14ed8:	77a6                	ld	a5,104(sp)
   14eda:	0ff00713          	li	a4,255
   14ede:	e882                	sd	zero,80(sp)
   14ee0:	0007c783          	lbu	a5,0(a5)
   14ee4:	f082                	sd	zero,96(sp)
   14ee6:	02e78863          	beq	a5,a4,14f16 <_vfprintf_r+0x1ac6>
   14eea:	0ff00693          	li	a3,255
   14eee:	6666                	ld	a2,88(sp)
   14ef0:	0007871b          	sext.w	a4,a5
   14ef4:	02c7d163          	bge	a5,a2,14f16 <_vfprintf_r+0x1ac6>
   14ef8:	75a6                	ld	a1,104(sp)
   14efa:	40e6073b          	subw	a4,a2,a4
   14efe:	ecba                	sd	a4,88(sp)
   14f00:	0015c783          	lbu	a5,1(a1)
   14f04:	cf8d                	beqz	a5,14f3e <_vfprintf_r+0x1aee>
   14f06:	7706                	ld	a4,96(sp)
   14f08:	2705                	addiw	a4,a4,1
   14f0a:	f0ba                	sd	a4,96(sp)
   14f0c:	00158713          	addi	a4,a1,1
   14f10:	f4ba                	sd	a4,104(sp)
   14f12:	fcd79ee3          	bne	a5,a3,14eee <_vfprintf_r+0x1a9e>
   14f16:	7706                	ld	a4,96(sp)
   14f18:	67c6                	ld	a5,80(sp)
   14f1a:	9fb9                	addw	a5,a5,a4
   14f1c:	672a                	ld	a4,136(sp)
   14f1e:	02e787bb          	mulw	a5,a5,a4
   14f22:	018787bb          	addw	a5,a5,s8
   14f26:	00078c1b          	sext.w	s8,a5
   14f2a:	fffc4993          	not	s3,s8
   14f2e:	43f9d993          	srai	s3,s3,0x3f
   14f32:	0137f7b3          	and	a5,a5,s3
   14f36:	0007899b          	sext.w	s3,a5
   14f3a:	b29fe06f          	j	13a62 <_vfprintf_r+0x612>
   14f3e:	6746                	ld	a4,80(sp)
   14f40:	77a6                	ld	a5,104(sp)
   14f42:	2705                	addiw	a4,a4,1
   14f44:	0007c783          	lbu	a5,0(a5)
   14f48:	e8ba                	sd	a4,80(sp)
   14f4a:	b7e1                	j	14f12 <_vfprintf_r+0x1ac2>
   14f4c:	ec02                	sd	zero,24(sp)
   14f4e:	84be                	mv	s1,a5
   14f50:	b16d                	j	14bfa <_vfprintf_r+0x17aa>
   14f52:	85ce                	mv	a1,s3
   14f54:	8562                	mv	a0,s8
   14f56:	fc1a                	sd	t1,56(sp)
   14f58:	f876                	sd	t4,48(sp)
   14f5a:	62f080ef          	jal	ra,1dd88 <__trunctfdf2>
   14f5e:	11a8                	addi	a0,sp,232
   14f60:	6e0040ef          	jal	ra,19640 <frexp>
   14f64:	565080ef          	jal	ra,1dcc8 <__extenddftf2>
   14f68:	00009797          	auipc	a5,0x9
   14f6c:	78878793          	addi	a5,a5,1928 # 1e6f0 <zeroes.4521+0x38>
   14f70:	6390                	ld	a2,0(a5)
   14f72:	6794                	ld	a3,8(a5)
   14f74:	655070ef          	jal	ra,1cdc8 <__multf3>
   14f78:	4601                	li	a2,0
   14f7a:	4681                	li	a3,0
   14f7c:	f02a                	sd	a0,32(sp)
   14f7e:	e42e                	sd	a1,8(sp)
   14f80:	465070ef          	jal	ra,1cbe4 <__eqtf2>
   14f84:	62a2                	ld	t0,8(sp)
   14f86:	7702                	ld	a4,32(sp)
   14f88:	7ec2                	ld	t4,48(sp)
   14f8a:	7362                	ld	t1,56(sp)
   14f8c:	e119                	bnez	a0,14f92 <_vfprintf_r+0x1b42>
   14f8e:	4785                	li	a5,1
   14f90:	d5be                	sw	a5,232(sp)
   14f92:	00009797          	auipc	a5,0x9
   14f96:	3ce78793          	addi	a5,a5,974 # 1e360 <__func__.4057+0x2c0>
   14f9a:	e8be                	sd	a5,80(sp)
   14f9c:	bce1                	j	14a74 <_vfprintf_r+0x1624>
   14f9e:	0f210713          	addi	a4,sp,242
   14fa2:	e699                	bnez	a3,14fb0 <_vfprintf_r+0x1b60>
   14fa4:	03000713          	li	a4,48
   14fa8:	0ee10923          	sb	a4,242(sp)
   14fac:	0f310713          	addi	a4,sp,243
   14fb0:	0c14                	addi	a3,sp,528
   14fb2:	0307879b          	addiw	a5,a5,48
   14fb6:	40d706b3          	sub	a3,a4,a3
   14fba:	00f70023          	sb	a5,0(a4)
   14fbe:	1216879b          	addiw	a5,a3,289
   14fc2:	e13e                	sd	a5,128(sp)
   14fc4:	a65fe06f          	j	13a28 <_vfprintf_r+0x5d8>
   14fc8:	77c6                	ld	a5,112(sp)
   14fca:	06600d93          	li	s11,102
   14fce:	00e78c3b          	addw	s8,a5,a4
   14fd2:	01dc0c3b          	addw	s8,s8,t4
   14fd6:	bb81                	j	14d26 <_vfprintf_r+0x18d6>
   14fd8:	676a                	ld	a4,152(sp)
   14fda:	8b05                	andi	a4,a4,1
   14fdc:	e319                	bnez	a4,14fe2 <_vfprintf_r+0x1b92>
   14fde:	a65fe06f          	j	13a42 <_vfprintf_r+0x5f2>
   14fe2:	a5bfe06f          	j	13a3c <_vfprintf_r+0x5ec>
   14fe6:	40ec07bb          	subw	a5,s8,a4
   14fea:	2785                	addiw	a5,a5,1
   14fec:	00078c1b          	sext.w	s8,a5
   14ff0:	fffc4993          	not	s3,s8
   14ff4:	43f9d993          	srai	s3,s3,0x3f
   14ff8:	0137f7b3          	and	a5,a5,s3
   14ffc:	0007899b          	sext.w	s3,a5
   15000:	bef1                	j	14bdc <_vfprintf_r+0x178c>
   15002:	e791                	bnez	a5,1500e <_vfprintf_r+0x1bbe>
   15004:	4985                	li	s3,1
   15006:	06600d93          	li	s11,102
   1500a:	4c05                	li	s8,1
   1500c:	bec1                	j	14bdc <_vfprintf_r+0x178c>
   1500e:	77c6                	ld	a5,112(sp)
   15010:	06600d93          	li	s11,102
   15014:	2785                	addiw	a5,a5,1
   15016:	01d78ebb          	addw	t4,a5,t4
   1501a:	000e8c1b          	sext.w	s8,t4
   1501e:	fffc4993          	not	s3,s8
   15022:	43f9d993          	srai	s3,s3,0x3f
   15026:	013efeb3          	and	t4,t4,s3
   1502a:	000e899b          	sext.w	s3,t4
   1502e:	b67d                	j	14bdc <_vfprintf_r+0x178c>
   15030:	871a                	mv	a4,t1
   15032:	c9aff06f          	j	144cc <_vfprintf_r+0x107c>
   15036:	66c2                	ld	a3,16(sp)
   15038:	4298                	lw	a4,0(a3)
   1503a:	06a1                	addi	a3,a3,8
   1503c:	00070e9b          	sext.w	t4,a4
   15040:	00075363          	bgez	a4,15046 <_vfprintf_r+0x1bf6>
   15044:	5efd                	li	t4,-1
   15046:	00144f03          	lbu	t5,1(s0)
   1504a:	e836                	sd	a3,16(sp)
   1504c:	843e                	mv	s0,a5
   1504e:	d36fe06f          	j	13584 <_vfprintf_r+0x134>
   15052:	4789                	li	a5,2
   15054:	e13e                	sd	a5,128(sp)
   15056:	9d3fe06f          	j	13a28 <_vfprintf_r+0x5d8>
   1505a:	010a5783          	lhu	a5,16(s4)
   1505e:	0407e793          	ori	a5,a5,64
   15062:	00fa1823          	sh	a5,16(s4)
   15066:	e8cfe06f          	j	136f2 <_vfprintf_r+0x2a2>

000000000001506a <vfprintf>:
   1506a:	86b2                	mv	a3,a2
   1506c:	862e                	mv	a2,a1
   1506e:	85aa                	mv	a1,a0
   15070:	8901b503          	ld	a0,-1904(gp) # 21280 <_impure_ptr>
   15074:	bdcfe06f          	j	13450 <_vfprintf_r>

0000000000015078 <__sbprintf>:
   15078:	0105d783          	lhu	a5,16(a1)
   1507c:	0ac5ae03          	lw	t3,172(a1)
   15080:	0125d303          	lhu	t1,18(a1)
   15084:	0305b883          	ld	a7,48(a1)
   15088:	0405b803          	ld	a6,64(a1)
   1508c:	b3010113          	addi	sp,sp,-1232
   15090:	9bf5                	andi	a5,a5,-3
   15092:	40000713          	li	a4,1024
   15096:	4c813023          	sd	s0,1216(sp)
   1509a:	00f11823          	sh	a5,16(sp)
   1509e:	842e                	mv	s0,a1
   150a0:	191c                	addi	a5,sp,176
   150a2:	858a                	mv	a1,sp
   150a4:	4a913c23          	sd	s1,1208(sp)
   150a8:	4b213823          	sd	s2,1200(sp)
   150ac:	4c113423          	sd	ra,1224(sp)
   150b0:	892a                	mv	s2,a0
   150b2:	d772                	sw	t3,172(sp)
   150b4:	00611923          	sh	t1,18(sp)
   150b8:	f846                	sd	a7,48(sp)
   150ba:	e0c2                	sd	a6,64(sp)
   150bc:	e03e                	sd	a5,0(sp)
   150be:	ec3e                	sd	a5,24(sp)
   150c0:	c63a                	sw	a4,12(sp)
   150c2:	d03a                	sw	a4,32(sp)
   150c4:	d402                	sw	zero,40(sp)
   150c6:	b8afe0ef          	jal	ra,13450 <_vfprintf_r>
   150ca:	84aa                	mv	s1,a0
   150cc:	02055963          	bgez	a0,150fe <__sbprintf+0x86>
   150d0:	01015783          	lhu	a5,16(sp)
   150d4:	0407f793          	andi	a5,a5,64
   150d8:	c799                	beqz	a5,150e6 <__sbprintf+0x6e>
   150da:	01045783          	lhu	a5,16(s0)
   150de:	0407e793          	ori	a5,a5,64
   150e2:	00f41823          	sh	a5,16(s0)
   150e6:	4c813083          	ld	ra,1224(sp)
   150ea:	4c013403          	ld	s0,1216(sp)
   150ee:	4b013903          	ld	s2,1200(sp)
   150f2:	8526                	mv	a0,s1
   150f4:	4b813483          	ld	s1,1208(sp)
   150f8:	4d010113          	addi	sp,sp,1232
   150fc:	8082                	ret
   150fe:	858a                	mv	a1,sp
   15100:	854a                	mv	a0,s2
   15102:	370000ef          	jal	ra,15472 <_fflush_r>
   15106:	d569                	beqz	a0,150d0 <__sbprintf+0x58>
   15108:	54fd                	li	s1,-1
   1510a:	b7d9                	j	150d0 <__sbprintf+0x58>

000000000001510c <__swsetup_r>:
   1510c:	1101                	addi	sp,sp,-32
   1510e:	e822                	sd	s0,16(sp)
   15110:	e426                	sd	s1,8(sp)
   15112:	ec06                	sd	ra,24(sp)
   15114:	8901b783          	ld	a5,-1904(gp) # 21280 <_impure_ptr>
   15118:	84aa                	mv	s1,a0
   1511a:	842e                	mv	s0,a1
   1511c:	c399                	beqz	a5,15122 <__swsetup_r+0x16>
   1511e:	4bb8                	lw	a4,80(a5)
   15120:	cf49                	beqz	a4,151ba <__swsetup_r+0xae>
   15122:	01041703          	lh	a4,16(s0)
   15126:	03071793          	slli	a5,a4,0x30
   1512a:	00877693          	andi	a3,a4,8
   1512e:	93c1                	srli	a5,a5,0x30
   15130:	c29d                	beqz	a3,15156 <__swsetup_r+0x4a>
   15132:	6c14                	ld	a3,24(s0)
   15134:	ce9d                	beqz	a3,15172 <__swsetup_r+0x66>
   15136:	0017f613          	andi	a2,a5,1
   1513a:	ce39                	beqz	a2,15198 <__swsetup_r+0x8c>
   1513c:	5010                	lw	a2,32(s0)
   1513e:	00042623          	sw	zero,12(s0)
   15142:	4501                	li	a0,0
   15144:	40c0063b          	negw	a2,a2
   15148:	d410                	sw	a2,40(s0)
   1514a:	ceb9                	beqz	a3,151a8 <__swsetup_r+0x9c>
   1514c:	60e2                	ld	ra,24(sp)
   1514e:	6442                	ld	s0,16(sp)
   15150:	64a2                	ld	s1,8(sp)
   15152:	6105                	addi	sp,sp,32
   15154:	8082                	ret
   15156:	0107f693          	andi	a3,a5,16
   1515a:	cac1                	beqz	a3,151ea <__swsetup_r+0xde>
   1515c:	8b91                	andi	a5,a5,4
   1515e:	e3b5                	bnez	a5,151c2 <__swsetup_r+0xb6>
   15160:	6c14                	ld	a3,24(s0)
   15162:	00876713          	ori	a4,a4,8
   15166:	03071793          	slli	a5,a4,0x30
   1516a:	00e41823          	sh	a4,16(s0)
   1516e:	93c1                	srli	a5,a5,0x30
   15170:	f2f9                	bnez	a3,15136 <__swsetup_r+0x2a>
   15172:	2807f613          	andi	a2,a5,640
   15176:	20000593          	li	a1,512
   1517a:	fab60ee3          	beq	a2,a1,15136 <__swsetup_r+0x2a>
   1517e:	85a2                	mv	a1,s0
   15180:	8526                	mv	a0,s1
   15182:	03c030ef          	jal	ra,181be <__smakebuf_r>
   15186:	01041703          	lh	a4,16(s0)
   1518a:	6c14                	ld	a3,24(s0)
   1518c:	03071793          	slli	a5,a4,0x30
   15190:	93c1                	srli	a5,a5,0x30
   15192:	0017f613          	andi	a2,a5,1
   15196:	f25d                	bnez	a2,1513c <__swsetup_r+0x30>
   15198:	0027f613          	andi	a2,a5,2
   1519c:	4581                	li	a1,0
   1519e:	e211                	bnez	a2,151a2 <__swsetup_r+0x96>
   151a0:	500c                	lw	a1,32(s0)
   151a2:	c44c                	sw	a1,12(s0)
   151a4:	4501                	li	a0,0
   151a6:	f2dd                	bnez	a3,1514c <__swsetup_r+0x40>
   151a8:	0807f793          	andi	a5,a5,128
   151ac:	d3c5                	beqz	a5,1514c <__swsetup_r+0x40>
   151ae:	04076713          	ori	a4,a4,64
   151b2:	00e41823          	sh	a4,16(s0)
   151b6:	557d                	li	a0,-1
   151b8:	bf51                	j	1514c <__swsetup_r+0x40>
   151ba:	853e                	mv	a0,a5
   151bc:	54e000ef          	jal	ra,1570a <__sinit>
   151c0:	b78d                	j	15122 <__swsetup_r+0x16>
   151c2:	6c2c                	ld	a1,88(s0)
   151c4:	cd81                	beqz	a1,151dc <__swsetup_r+0xd0>
   151c6:	07440793          	addi	a5,s0,116
   151ca:	00f58763          	beq	a1,a5,151d8 <__swsetup_r+0xcc>
   151ce:	8526                	mv	a0,s1
   151d0:	7b6000ef          	jal	ra,15986 <_free_r>
   151d4:	01041703          	lh	a4,16(s0)
   151d8:	04043c23          	sd	zero,88(s0)
   151dc:	6c14                	ld	a3,24(s0)
   151de:	fdb77713          	andi	a4,a4,-37
   151e2:	00042423          	sw	zero,8(s0)
   151e6:	e014                	sd	a3,0(s0)
   151e8:	bfad                	j	15162 <__swsetup_r+0x56>
   151ea:	47a5                	li	a5,9
   151ec:	c09c                	sw	a5,0(s1)
   151ee:	04076713          	ori	a4,a4,64
   151f2:	00e41823          	sh	a4,16(s0)
   151f6:	557d                	li	a0,-1
   151f8:	bf91                	j	1514c <__swsetup_r+0x40>

00000000000151fa <__call_exitprocs>:
   151fa:	715d                	addi	sp,sp,-80
   151fc:	f052                	sd	s4,32(sp)
   151fe:	8701ba03          	ld	s4,-1936(gp) # 21260 <_global_impure_ptr>
   15202:	f84a                	sd	s2,48(sp)
   15204:	1f8a3903          	ld	s2,504(s4)
   15208:	e486                	sd	ra,72(sp)
   1520a:	e0a2                	sd	s0,64(sp)
   1520c:	fc26                	sd	s1,56(sp)
   1520e:	f44e                	sd	s3,40(sp)
   15210:	ec56                	sd	s5,24(sp)
   15212:	e85a                	sd	s6,16(sp)
   15214:	e45e                	sd	s7,8(sp)
   15216:	e062                	sd	s8,0(sp)
   15218:	02090863          	beqz	s2,15248 <__call_exitprocs+0x4e>
   1521c:	8b2a                	mv	s6,a0
   1521e:	8bae                	mv	s7,a1
   15220:	4a85                	li	s5,1
   15222:	59fd                	li	s3,-1
   15224:	00892483          	lw	s1,8(s2)
   15228:	fff4841b          	addiw	s0,s1,-1
   1522c:	00044e63          	bltz	s0,15248 <__call_exitprocs+0x4e>
   15230:	048e                	slli	s1,s1,0x3
   15232:	94ca                	add	s1,s1,s2
   15234:	020b8663          	beqz	s7,15260 <__call_exitprocs+0x66>
   15238:	2084b783          	ld	a5,520(s1)
   1523c:	03778263          	beq	a5,s7,15260 <__call_exitprocs+0x66>
   15240:	347d                	addiw	s0,s0,-1
   15242:	14e1                	addi	s1,s1,-8
   15244:	ff3418e3          	bne	s0,s3,15234 <__call_exitprocs+0x3a>
   15248:	60a6                	ld	ra,72(sp)
   1524a:	6406                	ld	s0,64(sp)
   1524c:	74e2                	ld	s1,56(sp)
   1524e:	7942                	ld	s2,48(sp)
   15250:	79a2                	ld	s3,40(sp)
   15252:	7a02                	ld	s4,32(sp)
   15254:	6ae2                	ld	s5,24(sp)
   15256:	6b42                	ld	s6,16(sp)
   15258:	6ba2                	ld	s7,8(sp)
   1525a:	6c02                	ld	s8,0(sp)
   1525c:	6161                	addi	sp,sp,80
   1525e:	8082                	ret
   15260:	00892783          	lw	a5,8(s2)
   15264:	6498                	ld	a4,8(s1)
   15266:	37fd                	addiw	a5,a5,-1
   15268:	04878463          	beq	a5,s0,152b0 <__call_exitprocs+0xb6>
   1526c:	0004b423          	sd	zero,8(s1)
   15270:	db61                	beqz	a4,15240 <__call_exitprocs+0x46>
   15272:	31092783          	lw	a5,784(s2)
   15276:	008a96bb          	sllw	a3,s5,s0
   1527a:	00892c03          	lw	s8,8(s2)
   1527e:	8ff5                	and	a5,a5,a3
   15280:	2781                	sext.w	a5,a5
   15282:	ef89                	bnez	a5,1529c <__call_exitprocs+0xa2>
   15284:	9702                	jalr	a4
   15286:	00892703          	lw	a4,8(s2)
   1528a:	1f8a3783          	ld	a5,504(s4)
   1528e:	01871463          	bne	a4,s8,15296 <__call_exitprocs+0x9c>
   15292:	faf907e3          	beq	s2,a5,15240 <__call_exitprocs+0x46>
   15296:	dbcd                	beqz	a5,15248 <__call_exitprocs+0x4e>
   15298:	893e                	mv	s2,a5
   1529a:	b769                	j	15224 <__call_exitprocs+0x2a>
   1529c:	31492783          	lw	a5,788(s2)
   152a0:	1084b583          	ld	a1,264(s1)
   152a4:	8ff5                	and	a5,a5,a3
   152a6:	2781                	sext.w	a5,a5
   152a8:	e799                	bnez	a5,152b6 <__call_exitprocs+0xbc>
   152aa:	855a                	mv	a0,s6
   152ac:	9702                	jalr	a4
   152ae:	bfe1                	j	15286 <__call_exitprocs+0x8c>
   152b0:	00892423          	sw	s0,8(s2)
   152b4:	bf75                	j	15270 <__call_exitprocs+0x76>
   152b6:	852e                	mv	a0,a1
   152b8:	9702                	jalr	a4
   152ba:	b7f1                	j	15286 <__call_exitprocs+0x8c>

00000000000152bc <abort>:
   152bc:	1141                	addi	sp,sp,-16
   152be:	4519                	li	a0,6
   152c0:	e406                	sd	ra,8(sp)
   152c2:	572040ef          	jal	ra,19834 <raise>
   152c6:	4505                	li	a0,1
   152c8:	70a070ef          	jal	ra,1c9d2 <_exit>

00000000000152cc <atexit>:
   152cc:	85aa                	mv	a1,a0
   152ce:	4681                	li	a3,0
   152d0:	4601                	li	a2,0
   152d2:	4501                	li	a0,0
   152d4:	0070606f          	j	1bada <__register_exitproc>

00000000000152d8 <__sflush_r>:
   152d8:	01059783          	lh	a5,16(a1)
   152dc:	7179                	addi	sp,sp,-48
   152de:	f022                	sd	s0,32(sp)
   152e0:	e44e                	sd	s3,8(sp)
   152e2:	f406                	sd	ra,40(sp)
   152e4:	ec26                	sd	s1,24(sp)
   152e6:	e84a                	sd	s2,16(sp)
   152e8:	0087f693          	andi	a3,a5,8
   152ec:	842e                	mv	s0,a1
   152ee:	89aa                	mv	s3,a0
   152f0:	eecd                	bnez	a3,153aa <__sflush_r+0xd2>
   152f2:	6705                	lui	a4,0x1
   152f4:	80070713          	addi	a4,a4,-2048 # 800 <register_fini-0xf8e8>
   152f8:	4594                	lw	a3,8(a1)
   152fa:	8fd9                	or	a5,a5,a4
   152fc:	00f59823          	sh	a5,16(a1)
   15300:	10d05363          	blez	a3,15406 <__sflush_r+0x12e>
   15304:	6438                	ld	a4,72(s0)
   15306:	cb51                	beqz	a4,1539a <__sflush_r+0xc2>
   15308:	0009a483          	lw	s1,0(s3)
   1530c:	03079693          	slli	a3,a5,0x30
   15310:	0009a023          	sw	zero,0(s3)
   15314:	03379613          	slli	a2,a5,0x33
   15318:	780c                	ld	a1,48(s0)
   1531a:	92c1                	srli	a3,a3,0x30
   1531c:	0e064963          	bltz	a2,1540e <__sflush_r+0x136>
   15320:	4601                	li	a2,0
   15322:	4685                	li	a3,1
   15324:	854e                	mv	a0,s3
   15326:	9702                	jalr	a4
   15328:	57fd                	li	a5,-1
   1532a:	862a                	mv	a2,a0
   1532c:	10f50963          	beq	a0,a5,1543e <__sflush_r+0x166>
   15330:	01045683          	lhu	a3,16(s0)
   15334:	6438                	ld	a4,72(s0)
   15336:	780c                	ld	a1,48(s0)
   15338:	8a91                	andi	a3,a3,4
   1533a:	c699                	beqz	a3,15348 <__sflush_r+0x70>
   1533c:	4414                	lw	a3,8(s0)
   1533e:	6c3c                	ld	a5,88(s0)
   15340:	8e15                	sub	a2,a2,a3
   15342:	c399                	beqz	a5,15348 <__sflush_r+0x70>
   15344:	583c                	lw	a5,112(s0)
   15346:	8e1d                	sub	a2,a2,a5
   15348:	4681                	li	a3,0
   1534a:	854e                	mv	a0,s3
   1534c:	9702                	jalr	a4
   1534e:	57fd                	li	a5,-1
   15350:	0cf51163          	bne	a0,a5,15412 <__sflush_r+0x13a>
   15354:	0009a703          	lw	a4,0(s3)
   15358:	01041783          	lh	a5,16(s0)
   1535c:	0e070f63          	beqz	a4,1545a <__sflush_r+0x182>
   15360:	46f5                	li	a3,29
   15362:	00d70563          	beq	a4,a3,1536c <__sflush_r+0x94>
   15366:	46d9                	li	a3,22
   15368:	0ed71f63          	bne	a4,a3,15466 <__sflush_r+0x18e>
   1536c:	6c14                	ld	a3,24(s0)
   1536e:	777d                	lui	a4,0xfffff
   15370:	7ff70713          	addi	a4,a4,2047 # fffffffffffff7ff <__BSS_END__+0xffffffffffee8acf>
   15374:	8ff9                	and	a5,a5,a4
   15376:	00f41823          	sh	a5,16(s0)
   1537a:	00042423          	sw	zero,8(s0)
   1537e:	e014                	sd	a3,0(s0)
   15380:	6c2c                	ld	a1,88(s0)
   15382:	0099a023          	sw	s1,0(s3)
   15386:	c991                	beqz	a1,1539a <__sflush_r+0xc2>
   15388:	07440793          	addi	a5,s0,116
   1538c:	00f58563          	beq	a1,a5,15396 <__sflush_r+0xbe>
   15390:	854e                	mv	a0,s3
   15392:	5f4000ef          	jal	ra,15986 <_free_r>
   15396:	04043c23          	sd	zero,88(s0)
   1539a:	4501                	li	a0,0
   1539c:	70a2                	ld	ra,40(sp)
   1539e:	7402                	ld	s0,32(sp)
   153a0:	64e2                	ld	s1,24(sp)
   153a2:	6942                	ld	s2,16(sp)
   153a4:	69a2                	ld	s3,8(sp)
   153a6:	6145                	addi	sp,sp,48
   153a8:	8082                	ret
   153aa:	0185b903          	ld	s2,24(a1)
   153ae:	fe0906e3          	beqz	s2,1539a <__sflush_r+0xc2>
   153b2:	6184                	ld	s1,0(a1)
   153b4:	03079713          	slli	a4,a5,0x30
   153b8:	9341                	srli	a4,a4,0x30
   153ba:	8b0d                	andi	a4,a4,3
   153bc:	0125b023          	sd	s2,0(a1)
   153c0:	412484bb          	subw	s1,s1,s2
   153c4:	4781                	li	a5,0
   153c6:	e311                	bnez	a4,153ca <__sflush_r+0xf2>
   153c8:	519c                	lw	a5,32(a1)
   153ca:	c45c                	sw	a5,12(s0)
   153cc:	00904663          	bgtz	s1,153d8 <__sflush_r+0x100>
   153d0:	b7e9                	j	1539a <__sflush_r+0xc2>
   153d2:	992a                	add	s2,s2,a0
   153d4:	fc9053e3          	blez	s1,1539a <__sflush_r+0xc2>
   153d8:	603c                	ld	a5,64(s0)
   153da:	780c                	ld	a1,48(s0)
   153dc:	86a6                	mv	a3,s1
   153de:	864a                	mv	a2,s2
   153e0:	854e                	mv	a0,s3
   153e2:	9782                	jalr	a5
   153e4:	9c89                	subw	s1,s1,a0
   153e6:	fea046e3          	bgtz	a0,153d2 <__sflush_r+0xfa>
   153ea:	01045783          	lhu	a5,16(s0)
   153ee:	70a2                	ld	ra,40(sp)
   153f0:	64e2                	ld	s1,24(sp)
   153f2:	0407e793          	ori	a5,a5,64
   153f6:	00f41823          	sh	a5,16(s0)
   153fa:	7402                	ld	s0,32(sp)
   153fc:	6942                	ld	s2,16(sp)
   153fe:	69a2                	ld	s3,8(sp)
   15400:	557d                	li	a0,-1
   15402:	6145                	addi	sp,sp,48
   15404:	8082                	ret
   15406:	59b8                	lw	a4,112(a1)
   15408:	eee04ee3          	bgtz	a4,15304 <__sflush_r+0x2c>
   1540c:	b779                	j	1539a <__sflush_r+0xc2>
   1540e:	6850                	ld	a2,144(s0)
   15410:	b725                	j	15338 <__sflush_r+0x60>
   15412:	01045783          	lhu	a5,16(s0)
   15416:	777d                	lui	a4,0xfffff
   15418:	7ff70713          	addi	a4,a4,2047 # fffffffffffff7ff <__BSS_END__+0xffffffffffee8acf>
   1541c:	8ff9                	and	a5,a5,a4
   1541e:	6c14                	ld	a3,24(s0)
   15420:	0107979b          	slliw	a5,a5,0x10
   15424:	4107d79b          	sraiw	a5,a5,0x10
   15428:	00f41823          	sh	a5,16(s0)
   1542c:	00042423          	sw	zero,8(s0)
   15430:	e014                	sd	a3,0(s0)
   15432:	03379713          	slli	a4,a5,0x33
   15436:	f40755e3          	bgez	a4,15380 <__sflush_r+0xa8>
   1543a:	e848                	sd	a0,144(s0)
   1543c:	b791                	j	15380 <__sflush_r+0xa8>
   1543e:	0009a783          	lw	a5,0(s3)
   15442:	ee0787e3          	beqz	a5,15330 <__sflush_r+0x58>
   15446:	4775                	li	a4,29
   15448:	00e78563          	beq	a5,a4,15452 <__sflush_r+0x17a>
   1544c:	4759                	li	a4,22
   1544e:	f8e79ee3          	bne	a5,a4,153ea <__sflush_r+0x112>
   15452:	0099a023          	sw	s1,0(s3)
   15456:	4501                	li	a0,0
   15458:	b791                	j	1539c <__sflush_r+0xc4>
   1545a:	777d                	lui	a4,0xfffff
   1545c:	7ff70713          	addi	a4,a4,2047 # fffffffffffff7ff <__BSS_END__+0xffffffffffee8acf>
   15460:	6c14                	ld	a3,24(s0)
   15462:	8ff9                	and	a5,a5,a4
   15464:	b7d1                	j	15428 <__sflush_r+0x150>
   15466:	0407e793          	ori	a5,a5,64
   1546a:	00f41823          	sh	a5,16(s0)
   1546e:	557d                	li	a0,-1
   15470:	b735                	j	1539c <__sflush_r+0xc4>

0000000000015472 <_fflush_r>:
   15472:	1101                	addi	sp,sp,-32
   15474:	e822                	sd	s0,16(sp)
   15476:	ec06                	sd	ra,24(sp)
   15478:	842a                	mv	s0,a0
   1547a:	c119                	beqz	a0,15480 <_fflush_r+0xe>
   1547c:	493c                	lw	a5,80(a0)
   1547e:	cb89                	beqz	a5,15490 <_fflush_r+0x1e>
   15480:	01059783          	lh	a5,16(a1)
   15484:	ef89                	bnez	a5,1549e <_fflush_r+0x2c>
   15486:	60e2                	ld	ra,24(sp)
   15488:	6442                	ld	s0,16(sp)
   1548a:	4501                	li	a0,0
   1548c:	6105                	addi	sp,sp,32
   1548e:	8082                	ret
   15490:	e42e                	sd	a1,8(sp)
   15492:	278000ef          	jal	ra,1570a <__sinit>
   15496:	65a2                	ld	a1,8(sp)
   15498:	01059783          	lh	a5,16(a1)
   1549c:	d7ed                	beqz	a5,15486 <_fflush_r+0x14>
   1549e:	8522                	mv	a0,s0
   154a0:	6442                	ld	s0,16(sp)
   154a2:	60e2                	ld	ra,24(sp)
   154a4:	6105                	addi	sp,sp,32
   154a6:	bd0d                	j	152d8 <__sflush_r>

00000000000154a8 <fflush>:
   154a8:	85aa                	mv	a1,a0
   154aa:	c501                	beqz	a0,154b2 <fflush+0xa>
   154ac:	8901b503          	ld	a0,-1904(gp) # 21280 <_impure_ptr>
   154b0:	b7c9                	j	15472 <_fflush_r>
   154b2:	00000597          	auipc	a1,0x0
   154b6:	fc058593          	addi	a1,a1,-64 # 15472 <_fflush_r>
   154ba:	8701b503          	ld	a0,-1936(gp) # 21260 <_global_impure_ptr>
   154be:	2c50006f          	j	15f82 <_fwalk_reent>

00000000000154c2 <__fp_lock>:
   154c2:	4501                	li	a0,0
   154c4:	8082                	ret

00000000000154c6 <_cleanup_r>:
   154c6:	00006597          	auipc	a1,0x6
   154ca:	6c258593          	addi	a1,a1,1730 # 1bb88 <_fclose_r>
   154ce:	2b50006f          	j	15f82 <_fwalk_reent>

00000000000154d2 <__sinit.part.0>:
   154d2:	7139                	addi	sp,sp,-64
   154d4:	fc06                	sd	ra,56(sp)
   154d6:	f822                	sd	s0,48(sp)
   154d8:	f426                	sd	s1,40(sp)
   154da:	f04a                	sd	s2,32(sp)
   154dc:	ec4e                	sd	s3,24(sp)
   154de:	e852                	sd	s4,16(sp)
   154e0:	e456                	sd	s5,8(sp)
   154e2:	e05a                	sd	s6,0(sp)
   154e4:	6500                	ld	s0,8(a0)
   154e6:	00000717          	auipc	a4,0x0
   154ea:	fe070713          	addi	a4,a4,-32 # 154c6 <_cleanup_r>
   154ee:	ed38                	sd	a4,88(a0)
   154f0:	53850793          	addi	a5,a0,1336
   154f4:	470d                	li	a4,3
   154f6:	52e52423          	sw	a4,1320(a0)
   154fa:	52f53823          	sd	a5,1328(a0)
   154fe:	52053023          	sd	zero,1312(a0)
   15502:	4791                	li	a5,4
   15504:	892a                	mv	s2,a0
   15506:	c81c                	sw	a5,16(s0)
   15508:	4621                	li	a2,8
   1550a:	4581                	li	a1,0
   1550c:	0a042623          	sw	zero,172(s0)
   15510:	00043023          	sd	zero,0(s0)
   15514:	00043423          	sd	zero,8(s0)
   15518:	00043c23          	sd	zero,24(s0)
   1551c:	02042023          	sw	zero,32(s0)
   15520:	02042423          	sw	zero,40(s0)
   15524:	0a440513          	addi	a0,s0,164
   15528:	85efd0ef          	jal	ra,12586 <memset>
   1552c:	01093483          	ld	s1,16(s2)
   15530:	00004b17          	auipc	s6,0x4
   15534:	442b0b13          	addi	s6,s6,1090 # 19972 <__sread>
   15538:	00004a97          	auipc	s5,0x4
   1553c:	476a8a93          	addi	s5,s5,1142 # 199ae <__swrite>
   15540:	00004a17          	auipc	s4,0x4
   15544:	4c2a0a13          	addi	s4,s4,1218 # 19a02 <__sseek>
   15548:	00004997          	auipc	s3,0x4
   1554c:	4fc98993          	addi	s3,s3,1276 # 19a44 <__sclose>
   15550:	67c1                	lui	a5,0x10
   15552:	03643c23          	sd	s6,56(s0)
   15556:	05543023          	sd	s5,64(s0)
   1555a:	05443423          	sd	s4,72(s0)
   1555e:	05343823          	sd	s3,80(s0)
   15562:	f800                	sd	s0,48(s0)
   15564:	07a5                	addi	a5,a5,9
   15566:	c89c                	sw	a5,16(s1)
   15568:	4621                	li	a2,8
   1556a:	4581                	li	a1,0
   1556c:	0a04a623          	sw	zero,172(s1)
   15570:	0004b023          	sd	zero,0(s1)
   15574:	0004b423          	sd	zero,8(s1)
   15578:	0004bc23          	sd	zero,24(s1)
   1557c:	0204a023          	sw	zero,32(s1)
   15580:	0204a423          	sw	zero,40(s1)
   15584:	0a448513          	addi	a0,s1,164
   15588:	ffffc0ef          	jal	ra,12586 <memset>
   1558c:	01893403          	ld	s0,24(s2)
   15590:	000207b7          	lui	a5,0x20
   15594:	0364bc23          	sd	s6,56(s1)
   15598:	0554b023          	sd	s5,64(s1)
   1559c:	0544b423          	sd	s4,72(s1)
   155a0:	0534b823          	sd	s3,80(s1)
   155a4:	f884                	sd	s1,48(s1)
   155a6:	07c9                	addi	a5,a5,18
   155a8:	c81c                	sw	a5,16(s0)
   155aa:	0a042623          	sw	zero,172(s0)
   155ae:	00043023          	sd	zero,0(s0)
   155b2:	00043423          	sd	zero,8(s0)
   155b6:	00043c23          	sd	zero,24(s0)
   155ba:	02042023          	sw	zero,32(s0)
   155be:	02042423          	sw	zero,40(s0)
   155c2:	0a440513          	addi	a0,s0,164
   155c6:	4621                	li	a2,8
   155c8:	4581                	li	a1,0
   155ca:	fbdfc0ef          	jal	ra,12586 <memset>
   155ce:	70e2                	ld	ra,56(sp)
   155d0:	03643c23          	sd	s6,56(s0)
   155d4:	05543023          	sd	s5,64(s0)
   155d8:	05443423          	sd	s4,72(s0)
   155dc:	05343823          	sd	s3,80(s0)
   155e0:	f800                	sd	s0,48(s0)
   155e2:	7442                	ld	s0,48(sp)
   155e4:	4785                	li	a5,1
   155e6:	04f92823          	sw	a5,80(s2)
   155ea:	74a2                	ld	s1,40(sp)
   155ec:	7902                	ld	s2,32(sp)
   155ee:	69e2                	ld	s3,24(sp)
   155f0:	6a42                	ld	s4,16(sp)
   155f2:	6aa2                	ld	s5,8(sp)
   155f4:	6b02                	ld	s6,0(sp)
   155f6:	6121                	addi	sp,sp,64
   155f8:	8082                	ret

00000000000155fa <__fp_unlock>:
   155fa:	4501                	li	a0,0
   155fc:	8082                	ret

00000000000155fe <__sfmoreglue>:
   155fe:	1101                	addi	sp,sp,-32
   15600:	e426                	sd	s1,8(sp)
   15602:	0b000613          	li	a2,176
   15606:	fff5849b          	addiw	s1,a1,-1
   1560a:	02c484b3          	mul	s1,s1,a2
   1560e:	e04a                	sd	s2,0(sp)
   15610:	892e                	mv	s2,a1
   15612:	e822                	sd	s0,16(sp)
   15614:	ec06                	sd	ra,24(sp)
   15616:	0c848593          	addi	a1,s1,200
   1561a:	93ffc0ef          	jal	ra,11f58 <_malloc_r>
   1561e:	842a                	mv	s0,a0
   15620:	cd01                	beqz	a0,15638 <__sfmoreglue+0x3a>
   15622:	0561                	addi	a0,a0,24
   15624:	00043023          	sd	zero,0(s0)
   15628:	01242423          	sw	s2,8(s0)
   1562c:	e808                	sd	a0,16(s0)
   1562e:	0b048613          	addi	a2,s1,176
   15632:	4581                	li	a1,0
   15634:	f53fc0ef          	jal	ra,12586 <memset>
   15638:	60e2                	ld	ra,24(sp)
   1563a:	8522                	mv	a0,s0
   1563c:	6442                	ld	s0,16(sp)
   1563e:	64a2                	ld	s1,8(sp)
   15640:	6902                	ld	s2,0(sp)
   15642:	6105                	addi	sp,sp,32
   15644:	8082                	ret

0000000000015646 <__sfp>:
   15646:	7179                	addi	sp,sp,-48
   15648:	ec26                	sd	s1,24(sp)
   1564a:	8701b483          	ld	s1,-1936(gp) # 21260 <_global_impure_ptr>
   1564e:	48bc                	lw	a5,80(s1)
   15650:	e84a                	sd	s2,16(sp)
   15652:	f406                	sd	ra,40(sp)
   15654:	f022                	sd	s0,32(sp)
   15656:	e44e                	sd	s3,8(sp)
   15658:	892a                	mv	s2,a0
   1565a:	c3c9                	beqz	a5,156dc <__sfp+0x96>
   1565c:	52048493          	addi	s1,s1,1312
   15660:	0b000993          	li	s3,176
   15664:	449c                	lw	a5,8(s1)
   15666:	6880                	ld	s0,16(s1)
   15668:	06f05663          	blez	a5,156d4 <__sfp+0x8e>
   1566c:	37fd                	addiw	a5,a5,-1
   1566e:	1782                	slli	a5,a5,0x20
   15670:	9381                	srli	a5,a5,0x20
   15672:	0785                	addi	a5,a5,1
   15674:	033787b3          	mul	a5,a5,s3
   15678:	97a2                	add	a5,a5,s0
   1567a:	a029                	j	15684 <__sfp+0x3e>
   1567c:	0b040413          	addi	s0,s0,176
   15680:	04878a63          	beq	a5,s0,156d4 <__sfp+0x8e>
   15684:	01041703          	lh	a4,16(s0)
   15688:	fb75                	bnez	a4,1567c <__sfp+0x36>
   1568a:	77c1                	lui	a5,0xffff0
   1568c:	0785                	addi	a5,a5,1
   1568e:	0a042623          	sw	zero,172(s0)
   15692:	00043023          	sd	zero,0(s0)
   15696:	00043423          	sd	zero,8(s0)
   1569a:	c81c                	sw	a5,16(s0)
   1569c:	00043c23          	sd	zero,24(s0)
   156a0:	02042023          	sw	zero,32(s0)
   156a4:	02042423          	sw	zero,40(s0)
   156a8:	4621                	li	a2,8
   156aa:	4581                	li	a1,0
   156ac:	0a440513          	addi	a0,s0,164
   156b0:	ed7fc0ef          	jal	ra,12586 <memset>
   156b4:	04043c23          	sd	zero,88(s0)
   156b8:	06042023          	sw	zero,96(s0)
   156bc:	06043c23          	sd	zero,120(s0)
   156c0:	08042023          	sw	zero,128(s0)
   156c4:	70a2                	ld	ra,40(sp)
   156c6:	8522                	mv	a0,s0
   156c8:	7402                	ld	s0,32(sp)
   156ca:	64e2                	ld	s1,24(sp)
   156cc:	6942                	ld	s2,16(sp)
   156ce:	69a2                	ld	s3,8(sp)
   156d0:	6145                	addi	sp,sp,48
   156d2:	8082                	ret
   156d4:	6080                	ld	s0,0(s1)
   156d6:	c419                	beqz	s0,156e4 <__sfp+0x9e>
   156d8:	84a2                	mv	s1,s0
   156da:	b769                	j	15664 <__sfp+0x1e>
   156dc:	8526                	mv	a0,s1
   156de:	df5ff0ef          	jal	ra,154d2 <__sinit.part.0>
   156e2:	bfad                	j	1565c <__sfp+0x16>
   156e4:	4591                	li	a1,4
   156e6:	854a                	mv	a0,s2
   156e8:	f17ff0ef          	jal	ra,155fe <__sfmoreglue>
   156ec:	e088                	sd	a0,0(s1)
   156ee:	842a                	mv	s0,a0
   156f0:	f565                	bnez	a0,156d8 <__sfp+0x92>
   156f2:	47b1                	li	a5,12
   156f4:	00f92023          	sw	a5,0(s2)
   156f8:	b7f1                	j	156c4 <__sfp+0x7e>

00000000000156fa <_cleanup>:
   156fa:	00006597          	auipc	a1,0x6
   156fe:	48e58593          	addi	a1,a1,1166 # 1bb88 <_fclose_r>
   15702:	8701b503          	ld	a0,-1936(gp) # 21260 <_global_impure_ptr>
   15706:	07d0006f          	j	15f82 <_fwalk_reent>

000000000001570a <__sinit>:
   1570a:	493c                	lw	a5,80(a0)
   1570c:	c391                	beqz	a5,15710 <__sinit+0x6>
   1570e:	8082                	ret
   15710:	b3c9                	j	154d2 <__sinit.part.0>

0000000000015712 <__sfp_lock_acquire>:
   15712:	8082                	ret

0000000000015714 <__sfp_lock_release>:
   15714:	8082                	ret

0000000000015716 <__sinit_lock_acquire>:
   15716:	8082                	ret

0000000000015718 <__sinit_lock_release>:
   15718:	8082                	ret

000000000001571a <__fp_lock_all>:
   1571a:	00000597          	auipc	a1,0x0
   1571e:	da858593          	addi	a1,a1,-600 # 154c2 <__fp_lock>
   15722:	8901b503          	ld	a0,-1904(gp) # 21280 <_impure_ptr>
   15726:	7da0006f          	j	15f00 <_fwalk>

000000000001572a <__fp_unlock_all>:
   1572a:	00000597          	auipc	a1,0x0
   1572e:	ed058593          	addi	a1,a1,-304 # 155fa <__fp_unlock>
   15732:	8901b503          	ld	a0,-1904(gp) # 21280 <_impure_ptr>
   15736:	7ca0006f          	j	15f00 <_fwalk>

000000000001573a <__libc_fini_array>:
   1573a:	1101                	addi	sp,sp,-32
   1573c:	e822                	sd	s0,16(sp)
   1573e:	0000b797          	auipc	a5,0xb
   15742:	9b278793          	addi	a5,a5,-1614 # 200f0 <impure_data>
   15746:	0000b417          	auipc	s0,0xb
   1574a:	9a240413          	addi	s0,s0,-1630 # 200e8 <__do_global_dtors_aux_fini_array_entry>
   1574e:	8f81                	sub	a5,a5,s0
   15750:	e426                	sd	s1,8(sp)
   15752:	ec06                	sd	ra,24(sp)
   15754:	4037d493          	srai	s1,a5,0x3
   15758:	c881                	beqz	s1,15768 <__libc_fini_array+0x2e>
   1575a:	17e1                	addi	a5,a5,-8
   1575c:	943e                	add	s0,s0,a5
   1575e:	601c                	ld	a5,0(s0)
   15760:	14fd                	addi	s1,s1,-1
   15762:	1461                	addi	s0,s0,-8
   15764:	9782                	jalr	a5
   15766:	fce5                	bnez	s1,1575e <__libc_fini_array+0x24>
   15768:	60e2                	ld	ra,24(sp)
   1576a:	6442                	ld	s0,16(sp)
   1576c:	64a2                	ld	s1,8(sp)
   1576e:	6105                	addi	sp,sp,32
   15770:	8082                	ret

0000000000015772 <__fputwc>:
   15772:	715d                	addi	sp,sp,-80
   15774:	e0a2                	sd	s0,64(sp)
   15776:	f44e                	sd	s3,40(sp)
   15778:	e85a                	sd	s6,16(sp)
   1577a:	e486                	sd	ra,72(sp)
   1577c:	fc26                	sd	s1,56(sp)
   1577e:	f84a                	sd	s2,48(sp)
   15780:	f052                	sd	s4,32(sp)
   15782:	ec56                	sd	s5,24(sp)
   15784:	8b2a                	mv	s6,a0
   15786:	89ae                	mv	s3,a1
   15788:	8432                	mv	s0,a2
   1578a:	185020ef          	jal	ra,1810e <__locale_mb_cur_max>
   1578e:	4785                	li	a5,1
   15790:	00f51e63          	bne	a0,a5,157ac <__fputwc+0x3a>
   15794:	fff9879b          	addiw	a5,s3,-1
   15798:	0fe00713          	li	a4,254
   1579c:	00f76863          	bltu	a4,a5,157ac <__fputwc+0x3a>
   157a0:	0ff9f713          	zext.b	a4,s3
   157a4:	00e10423          	sb	a4,8(sp)
   157a8:	4905                	li	s2,1
   157aa:	a839                	j	157c8 <__fputwc+0x56>
   157ac:	0a440693          	addi	a3,s0,164
   157b0:	864e                	mv	a2,s3
   157b2:	002c                	addi	a1,sp,8
   157b4:	855a                	mv	a0,s6
   157b6:	21a060ef          	jal	ra,1b9d0 <_wcrtomb_r>
   157ba:	57fd                	li	a5,-1
   157bc:	892a                	mv	s2,a0
   157be:	06f50963          	beq	a0,a5,15830 <__fputwc+0xbe>
   157c2:	c525                	beqz	a0,1582a <__fputwc+0xb8>
   157c4:	00814703          	lbu	a4,8(sp)
   157c8:	4481                	li	s1,0
   157ca:	5a7d                	li	s4,-1
   157cc:	4aa9                	li	s5,10
   157ce:	a831                	j	157ea <__fputwc+0x78>
   157d0:	601c                	ld	a5,0(s0)
   157d2:	00178693          	addi	a3,a5,1
   157d6:	e014                	sd	a3,0(s0)
   157d8:	00e78023          	sb	a4,0(a5)
   157dc:	0485                	addi	s1,s1,1
   157de:	003c                	addi	a5,sp,8
   157e0:	97a6                	add	a5,a5,s1
   157e2:	0524f463          	bgeu	s1,s2,1582a <__fputwc+0xb8>
   157e6:	0007c703          	lbu	a4,0(a5)
   157ea:	445c                	lw	a5,12(s0)
   157ec:	37fd                	addiw	a5,a5,-1
   157ee:	c45c                	sw	a5,12(s0)
   157f0:	02079613          	slli	a2,a5,0x20
   157f4:	0007869b          	sext.w	a3,a5
   157f8:	fc065ce3          	bgez	a2,157d0 <__fputwc+0x5e>
   157fc:	541c                	lw	a5,40(s0)
   157fe:	85ba                	mv	a1,a4
   15800:	8622                	mv	a2,s0
   15802:	855a                	mv	a0,s6
   15804:	00f6c463          	blt	a3,a5,1580c <__fputwc+0x9a>
   15808:	fd5714e3          	bne	a4,s5,157d0 <__fputwc+0x5e>
   1580c:	0bc060ef          	jal	ra,1b8c8 <__swbuf_r>
   15810:	fd4516e3          	bne	a0,s4,157dc <__fputwc+0x6a>
   15814:	557d                	li	a0,-1
   15816:	60a6                	ld	ra,72(sp)
   15818:	6406                	ld	s0,64(sp)
   1581a:	74e2                	ld	s1,56(sp)
   1581c:	7942                	ld	s2,48(sp)
   1581e:	79a2                	ld	s3,40(sp)
   15820:	7a02                	ld	s4,32(sp)
   15822:	6ae2                	ld	s5,24(sp)
   15824:	6b42                	ld	s6,16(sp)
   15826:	6161                	addi	sp,sp,80
   15828:	8082                	ret
   1582a:	0009851b          	sext.w	a0,s3
   1582e:	b7e5                	j	15816 <__fputwc+0xa4>
   15830:	01045783          	lhu	a5,16(s0)
   15834:	557d                	li	a0,-1
   15836:	0407e793          	ori	a5,a5,64
   1583a:	00f41823          	sh	a5,16(s0)
   1583e:	bfe1                	j	15816 <__fputwc+0xa4>

0000000000015840 <_fputwc_r>:
   15840:	01061783          	lh	a5,16(a2)
   15844:	03279713          	slli	a4,a5,0x32
   15848:	00074c63          	bltz	a4,15860 <_fputwc_r+0x20>
   1584c:	0ac62703          	lw	a4,172(a2)
   15850:	6689                	lui	a3,0x2
   15852:	8fd5                	or	a5,a5,a3
   15854:	6689                	lui	a3,0x2
   15856:	8f55                	or	a4,a4,a3
   15858:	00f61823          	sh	a5,16(a2)
   1585c:	0ae62623          	sw	a4,172(a2)
   15860:	bf09                	j	15772 <__fputwc>

0000000000015862 <fputwc>:
   15862:	1101                	addi	sp,sp,-32
   15864:	e822                	sd	s0,16(sp)
   15866:	ec06                	sd	ra,24(sp)
   15868:	8901b403          	ld	s0,-1904(gp) # 21280 <_impure_ptr>
   1586c:	862e                	mv	a2,a1
   1586e:	85aa                	mv	a1,a0
   15870:	c019                	beqz	s0,15876 <fputwc+0x14>
   15872:	483c                	lw	a5,80(s0)
   15874:	c795                	beqz	a5,158a0 <fputwc+0x3e>
   15876:	01061783          	lh	a5,16(a2)
   1587a:	03279713          	slli	a4,a5,0x32
   1587e:	00074c63          	bltz	a4,15896 <fputwc+0x34>
   15882:	0ac62703          	lw	a4,172(a2)
   15886:	6689                	lui	a3,0x2
   15888:	8fd5                	or	a5,a5,a3
   1588a:	6689                	lui	a3,0x2
   1588c:	8f55                	or	a4,a4,a3
   1588e:	00f61823          	sh	a5,16(a2)
   15892:	0ae62623          	sw	a4,172(a2)
   15896:	8522                	mv	a0,s0
   15898:	6442                	ld	s0,16(sp)
   1589a:	60e2                	ld	ra,24(sp)
   1589c:	6105                	addi	sp,sp,32
   1589e:	bdd1                	j	15772 <__fputwc>
   158a0:	e02a                	sd	a0,0(sp)
   158a2:	8522                	mv	a0,s0
   158a4:	e432                	sd	a2,8(sp)
   158a6:	e65ff0ef          	jal	ra,1570a <__sinit>
   158aa:	6622                	ld	a2,8(sp)
   158ac:	6582                	ld	a1,0(sp)
   158ae:	b7e1                	j	15876 <fputwc+0x14>

00000000000158b0 <_malloc_trim_r>:
   158b0:	7179                	addi	sp,sp,-48
   158b2:	f022                	sd	s0,32(sp)
   158b4:	ec26                	sd	s1,24(sp)
   158b6:	e84a                	sd	s2,16(sp)
   158b8:	e44e                	sd	s3,8(sp)
   158ba:	e052                	sd	s4,0(sp)
   158bc:	89ae                	mv	s3,a1
   158be:	f406                	sd	ra,40(sp)
   158c0:	0000ba17          	auipc	s4,0xb
   158c4:	f78a0a13          	addi	s4,s4,-136 # 20838 <__malloc_av_>
   158c8:	892a                	mv	s2,a0
   158ca:	d67fc0ef          	jal	ra,12630 <__malloc_lock>
   158ce:	010a3703          	ld	a4,16(s4)
   158d2:	6785                	lui	a5,0x1
   158d4:	fdf78413          	addi	s0,a5,-33 # fdf <register_fini-0xf109>
   158d8:	6704                	ld	s1,8(a4)
   158da:	41340433          	sub	s0,s0,s3
   158de:	98f1                	andi	s1,s1,-4
   158e0:	9426                	add	s0,s0,s1
   158e2:	8031                	srli	s0,s0,0xc
   158e4:	147d                	addi	s0,s0,-1
   158e6:	0432                	slli	s0,s0,0xc
   158e8:	00f44b63          	blt	s0,a5,158fe <_malloc_trim_r+0x4e>
   158ec:	4581                	li	a1,0
   158ee:	854a                	mv	a0,s2
   158f0:	da7fc0ef          	jal	ra,12696 <_sbrk_r>
   158f4:	010a3783          	ld	a5,16(s4)
   158f8:	97a6                	add	a5,a5,s1
   158fa:	00f50e63          	beq	a0,a5,15916 <_malloc_trim_r+0x66>
   158fe:	854a                	mv	a0,s2
   15900:	d33fc0ef          	jal	ra,12632 <__malloc_unlock>
   15904:	70a2                	ld	ra,40(sp)
   15906:	7402                	ld	s0,32(sp)
   15908:	64e2                	ld	s1,24(sp)
   1590a:	6942                	ld	s2,16(sp)
   1590c:	69a2                	ld	s3,8(sp)
   1590e:	6a02                	ld	s4,0(sp)
   15910:	4501                	li	a0,0
   15912:	6145                	addi	sp,sp,48
   15914:	8082                	ret
   15916:	408005b3          	neg	a1,s0
   1591a:	854a                	mv	a0,s2
   1591c:	d7bfc0ef          	jal	ra,12696 <_sbrk_r>
   15920:	57fd                	li	a5,-1
   15922:	02f50c63          	beq	a0,a5,1595a <_malloc_trim_r+0xaa>
   15926:	00101717          	auipc	a4,0x101
   1592a:	3ba70713          	addi	a4,a4,954 # 116ce0 <__malloc_current_mallinfo>
   1592e:	431c                	lw	a5,0(a4)
   15930:	010a3683          	ld	a3,16(s4)
   15934:	8c81                	sub	s1,s1,s0
   15936:	0014e493          	ori	s1,s1,1
   1593a:	4087843b          	subw	s0,a5,s0
   1593e:	854a                	mv	a0,s2
   15940:	e684                	sd	s1,8(a3)
   15942:	c300                	sw	s0,0(a4)
   15944:	ceffc0ef          	jal	ra,12632 <__malloc_unlock>
   15948:	70a2                	ld	ra,40(sp)
   1594a:	7402                	ld	s0,32(sp)
   1594c:	64e2                	ld	s1,24(sp)
   1594e:	6942                	ld	s2,16(sp)
   15950:	69a2                	ld	s3,8(sp)
   15952:	6a02                	ld	s4,0(sp)
   15954:	4505                	li	a0,1
   15956:	6145                	addi	sp,sp,48
   15958:	8082                	ret
   1595a:	4581                	li	a1,0
   1595c:	854a                	mv	a0,s2
   1595e:	d39fc0ef          	jal	ra,12696 <_sbrk_r>
   15962:	010a3703          	ld	a4,16(s4)
   15966:	46fd                	li	a3,31
   15968:	40e507b3          	sub	a5,a0,a4
   1596c:	f8f6d9e3          	bge	a3,a5,158fe <_malloc_trim_r+0x4e>
   15970:	8981b683          	ld	a3,-1896(gp) # 21288 <__malloc_sbrk_base>
   15974:	8d15                	sub	a0,a0,a3
   15976:	0017e793          	ori	a5,a5,1
   1597a:	00101697          	auipc	a3,0x101
   1597e:	36a6a323          	sw	a0,870(a3) # 116ce0 <__malloc_current_mallinfo>
   15982:	e71c                	sd	a5,8(a4)
   15984:	bfad                	j	158fe <_malloc_trim_r+0x4e>

0000000000015986 <_free_r>:
   15986:	c5f5                	beqz	a1,15a72 <_free_r+0xec>
   15988:	1101                	addi	sp,sp,-32
   1598a:	e822                	sd	s0,16(sp)
   1598c:	e426                	sd	s1,8(sp)
   1598e:	842e                	mv	s0,a1
   15990:	84aa                	mv	s1,a0
   15992:	ec06                	sd	ra,24(sp)
   15994:	c9dfc0ef          	jal	ra,12630 <__malloc_lock>
   15998:	ff843583          	ld	a1,-8(s0)
   1599c:	ff040713          	addi	a4,s0,-16
   159a0:	0000b517          	auipc	a0,0xb
   159a4:	e9850513          	addi	a0,a0,-360 # 20838 <__malloc_av_>
   159a8:	ffe5f793          	andi	a5,a1,-2
   159ac:	00f70633          	add	a2,a4,a5
   159b0:	6614                	ld	a3,8(a2)
   159b2:	01053803          	ld	a6,16(a0)
   159b6:	9af1                	andi	a3,a3,-4
   159b8:	14c80063          	beq	a6,a2,15af8 <_free_r+0x172>
   159bc:	e614                	sd	a3,8(a2)
   159be:	8985                	andi	a1,a1,1
   159c0:	00d60833          	add	a6,a2,a3
   159c4:	e1c1                	bnez	a1,15a44 <_free_r+0xbe>
   159c6:	ff043303          	ld	t1,-16(s0)
   159ca:	00883583          	ld	a1,8(a6)
   159ce:	0000b897          	auipc	a7,0xb
   159d2:	e7a88893          	addi	a7,a7,-390 # 20848 <__malloc_av_+0x10>
   159d6:	40670733          	sub	a4,a4,t1
   159da:	01073803          	ld	a6,16(a4)
   159de:	979a                	add	a5,a5,t1
   159e0:	8985                	andi	a1,a1,1
   159e2:	0f180863          	beq	a6,a7,15ad2 <_free_r+0x14c>
   159e6:	01873303          	ld	t1,24(a4)
   159ea:	00683c23          	sd	t1,24(a6)
   159ee:	01033823          	sd	a6,16(t1)
   159f2:	14058d63          	beqz	a1,15b4c <_free_r+0x1c6>
   159f6:	0017e693          	ori	a3,a5,1
   159fa:	e714                	sd	a3,8(a4)
   159fc:	e21c                	sd	a5,0(a2)
   159fe:	1ff00693          	li	a3,511
   15a02:	08f6e263          	bltu	a3,a5,15a86 <_free_r+0x100>
   15a06:	838d                	srli	a5,a5,0x3
   15a08:	0017869b          	addiw	a3,a5,1
   15a0c:	0016969b          	slliw	a3,a3,0x1
   15a10:	068e                	slli	a3,a3,0x3
   15a12:	00853803          	ld	a6,8(a0)
   15a16:	96aa                	add	a3,a3,a0
   15a18:	628c                	ld	a1,0(a3)
   15a1a:	4027d61b          	sraiw	a2,a5,0x2
   15a1e:	4785                	li	a5,1
   15a20:	00c797b3          	sll	a5,a5,a2
   15a24:	0107e7b3          	or	a5,a5,a6
   15a28:	ff068613          	addi	a2,a3,-16
   15a2c:	ef10                	sd	a2,24(a4)
   15a2e:	eb0c                	sd	a1,16(a4)
   15a30:	e51c                	sd	a5,8(a0)
   15a32:	e298                	sd	a4,0(a3)
   15a34:	ed98                	sd	a4,24(a1)
   15a36:	6442                	ld	s0,16(sp)
   15a38:	60e2                	ld	ra,24(sp)
   15a3a:	8526                	mv	a0,s1
   15a3c:	64a2                	ld	s1,8(sp)
   15a3e:	6105                	addi	sp,sp,32
   15a40:	bf3fc06f          	j	12632 <__malloc_unlock>
   15a44:	00883583          	ld	a1,8(a6)
   15a48:	8985                	andi	a1,a1,1
   15a4a:	e58d                	bnez	a1,15a74 <_free_r+0xee>
   15a4c:	97b6                	add	a5,a5,a3
   15a4e:	0000b897          	auipc	a7,0xb
   15a52:	dfa88893          	addi	a7,a7,-518 # 20848 <__malloc_av_+0x10>
   15a56:	6a14                	ld	a3,16(a2)
   15a58:	0017e813          	ori	a6,a5,1
   15a5c:	00f705b3          	add	a1,a4,a5
   15a60:	11168063          	beq	a3,a7,15b60 <_free_r+0x1da>
   15a64:	6e10                	ld	a2,24(a2)
   15a66:	ee90                	sd	a2,24(a3)
   15a68:	ea14                	sd	a3,16(a2)
   15a6a:	01073423          	sd	a6,8(a4)
   15a6e:	e19c                	sd	a5,0(a1)
   15a70:	b779                	j	159fe <_free_r+0x78>
   15a72:	8082                	ret
   15a74:	0017e693          	ori	a3,a5,1
   15a78:	fed43c23          	sd	a3,-8(s0)
   15a7c:	e21c                	sd	a5,0(a2)
   15a7e:	1ff00693          	li	a3,511
   15a82:	f8f6f2e3          	bgeu	a3,a5,15a06 <_free_r+0x80>
   15a86:	0097d693          	srli	a3,a5,0x9
   15a8a:	4611                	li	a2,4
   15a8c:	08d66f63          	bltu	a2,a3,15b2a <_free_r+0x1a4>
   15a90:	0067d693          	srli	a3,a5,0x6
   15a94:	0396859b          	addiw	a1,a3,57
   15a98:	0015959b          	slliw	a1,a1,0x1
   15a9c:	0386861b          	addiw	a2,a3,56
   15aa0:	058e                	slli	a1,a1,0x3
   15aa2:	95aa                	add	a1,a1,a0
   15aa4:	6194                	ld	a3,0(a1)
   15aa6:	15c1                	addi	a1,a1,-16
   15aa8:	0cd58663          	beq	a1,a3,15b74 <_free_r+0x1ee>
   15aac:	6690                	ld	a2,8(a3)
   15aae:	9a71                	andi	a2,a2,-4
   15ab0:	00c7f563          	bgeu	a5,a2,15aba <_free_r+0x134>
   15ab4:	6a94                	ld	a3,16(a3)
   15ab6:	fed59be3          	bne	a1,a3,15aac <_free_r+0x126>
   15aba:	6e8c                	ld	a1,24(a3)
   15abc:	ef0c                	sd	a1,24(a4)
   15abe:	eb14                	sd	a3,16(a4)
   15ac0:	6442                	ld	s0,16(sp)
   15ac2:	60e2                	ld	ra,24(sp)
   15ac4:	e998                	sd	a4,16(a1)
   15ac6:	8526                	mv	a0,s1
   15ac8:	64a2                	ld	s1,8(sp)
   15aca:	ee98                	sd	a4,24(a3)
   15acc:	6105                	addi	sp,sp,32
   15ace:	b65fc06f          	j	12632 <__malloc_unlock>
   15ad2:	0e059d63          	bnez	a1,15bcc <_free_r+0x246>
   15ad6:	6e0c                	ld	a1,24(a2)
   15ad8:	6a10                	ld	a2,16(a2)
   15ada:	97b6                	add	a5,a5,a3
   15adc:	6442                	ld	s0,16(sp)
   15ade:	ee0c                	sd	a1,24(a2)
   15ae0:	e990                	sd	a2,16(a1)
   15ae2:	0017e693          	ori	a3,a5,1
   15ae6:	60e2                	ld	ra,24(sp)
   15ae8:	e714                	sd	a3,8(a4)
   15aea:	8526                	mv	a0,s1
   15aec:	973e                	add	a4,a4,a5
   15aee:	64a2                	ld	s1,8(sp)
   15af0:	e31c                	sd	a5,0(a4)
   15af2:	6105                	addi	sp,sp,32
   15af4:	b3ffc06f          	j	12632 <__malloc_unlock>
   15af8:	8985                	andi	a1,a1,1
   15afa:	97b6                	add	a5,a5,a3
   15afc:	e989                	bnez	a1,15b0e <_free_r+0x188>
   15afe:	ff043583          	ld	a1,-16(s0)
   15b02:	8f0d                	sub	a4,a4,a1
   15b04:	6f14                	ld	a3,24(a4)
   15b06:	6b10                	ld	a2,16(a4)
   15b08:	97ae                	add	a5,a5,a1
   15b0a:	ee14                	sd	a3,24(a2)
   15b0c:	ea90                	sd	a2,16(a3)
   15b0e:	0017e693          	ori	a3,a5,1
   15b12:	e714                	sd	a3,8(a4)
   15b14:	e918                	sd	a4,16(a0)
   15b16:	8a01b703          	ld	a4,-1888(gp) # 21290 <__malloc_trim_threshold>
   15b1a:	f0e7eee3          	bltu	a5,a4,15a36 <_free_r+0xb0>
   15b1e:	8c81b583          	ld	a1,-1848(gp) # 212b8 <__malloc_top_pad>
   15b22:	8526                	mv	a0,s1
   15b24:	d8dff0ef          	jal	ra,158b0 <_malloc_trim_r>
   15b28:	b739                	j	15a36 <_free_r+0xb0>
   15b2a:	4651                	li	a2,20
   15b2c:	02d67263          	bgeu	a2,a3,15b50 <_free_r+0x1ca>
   15b30:	05400613          	li	a2,84
   15b34:	04d66b63          	bltu	a2,a3,15b8a <_free_r+0x204>
   15b38:	00c7d693          	srli	a3,a5,0xc
   15b3c:	06f6859b          	addiw	a1,a3,111
   15b40:	0015959b          	slliw	a1,a1,0x1
   15b44:	06e6861b          	addiw	a2,a3,110
   15b48:	058e                	slli	a1,a1,0x3
   15b4a:	bfa1                	j	15aa2 <_free_r+0x11c>
   15b4c:	97b6                	add	a5,a5,a3
   15b4e:	b721                	j	15a56 <_free_r+0xd0>
   15b50:	05c6859b          	addiw	a1,a3,92
   15b54:	0015959b          	slliw	a1,a1,0x1
   15b58:	05b6861b          	addiw	a2,a3,91
   15b5c:	058e                	slli	a1,a1,0x3
   15b5e:	b791                	j	15aa2 <_free_r+0x11c>
   15b60:	f518                	sd	a4,40(a0)
   15b62:	f118                	sd	a4,32(a0)
   15b64:	01173c23          	sd	a7,24(a4)
   15b68:	01173823          	sd	a7,16(a4)
   15b6c:	01073423          	sd	a6,8(a4)
   15b70:	e19c                	sd	a5,0(a1)
   15b72:	b5d1                	j	15a36 <_free_r+0xb0>
   15b74:	00853803          	ld	a6,8(a0)
   15b78:	4026561b          	sraiw	a2,a2,0x2
   15b7c:	4785                	li	a5,1
   15b7e:	00c79633          	sll	a2,a5,a2
   15b82:	01066633          	or	a2,a2,a6
   15b86:	e510                	sd	a2,8(a0)
   15b88:	bf15                	j	15abc <_free_r+0x136>
   15b8a:	15400613          	li	a2,340
   15b8e:	00d66c63          	bltu	a2,a3,15ba6 <_free_r+0x220>
   15b92:	00f7d693          	srli	a3,a5,0xf
   15b96:	0786859b          	addiw	a1,a3,120
   15b9a:	0015959b          	slliw	a1,a1,0x1
   15b9e:	0776861b          	addiw	a2,a3,119
   15ba2:	058e                	slli	a1,a1,0x3
   15ba4:	bdfd                	j	15aa2 <_free_r+0x11c>
   15ba6:	55400613          	li	a2,1364
   15baa:	00d66c63          	bltu	a2,a3,15bc2 <_free_r+0x23c>
   15bae:	0127d693          	srli	a3,a5,0x12
   15bb2:	07d6859b          	addiw	a1,a3,125
   15bb6:	0015959b          	slliw	a1,a1,0x1
   15bba:	07c6861b          	addiw	a2,a3,124
   15bbe:	058e                	slli	a1,a1,0x3
   15bc0:	b5cd                	j	15aa2 <_free_r+0x11c>
   15bc2:	7f000593          	li	a1,2032
   15bc6:	07e00613          	li	a2,126
   15bca:	bde1                	j	15aa2 <_free_r+0x11c>
   15bcc:	0017e693          	ori	a3,a5,1
   15bd0:	e714                	sd	a3,8(a4)
   15bd2:	e21c                	sd	a5,0(a2)
   15bd4:	b58d                	j	15a36 <_free_r+0xb0>

0000000000015bd6 <__sfvwrite_r>:
   15bd6:	6a1c                	ld	a5,16(a2)
   15bd8:	1a078c63          	beqz	a5,15d90 <__sfvwrite_r+0x1ba>
   15bdc:	0105d783          	lhu	a5,16(a1)
   15be0:	711d                	addi	sp,sp,-96
   15be2:	e8a2                	sd	s0,80(sp)
   15be4:	f852                	sd	s4,48(sp)
   15be6:	f456                	sd	s5,40(sp)
   15be8:	ec86                	sd	ra,88(sp)
   15bea:	e4a6                	sd	s1,72(sp)
   15bec:	e0ca                	sd	s2,64(sp)
   15bee:	fc4e                	sd	s3,56(sp)
   15bf0:	f05a                	sd	s6,32(sp)
   15bf2:	ec5e                	sd	s7,24(sp)
   15bf4:	e862                	sd	s8,16(sp)
   15bf6:	e466                	sd	s9,8(sp)
   15bf8:	e06a                	sd	s10,0(sp)
   15bfa:	0087f713          	andi	a4,a5,8
   15bfe:	8a32                	mv	s4,a2
   15c00:	8aaa                	mv	s5,a0
   15c02:	842e                	mv	s0,a1
   15c04:	c325                	beqz	a4,15c64 <__sfvwrite_r+0x8e>
   15c06:	6d98                	ld	a4,24(a1)
   15c08:	cf31                	beqz	a4,15c64 <__sfvwrite_r+0x8e>
   15c0a:	0027f713          	andi	a4,a5,2
   15c0e:	000a3903          	ld	s2,0(s4)
   15c12:	c735                	beqz	a4,15c7e <__sfvwrite_r+0xa8>
   15c14:	603c                	ld	a5,64(s0)
   15c16:	780c                	ld	a1,48(s0)
   15c18:	80000b37          	lui	s6,0x80000
   15c1c:	4981                	li	s3,0
   15c1e:	4481                	li	s1,0
   15c20:	c00b4b13          	xori	s6,s6,-1024
   15c24:	864e                	mv	a2,s3
   15c26:	8556                	mv	a0,s5
   15c28:	c885                	beqz	s1,15c58 <__sfvwrite_r+0x82>
   15c2a:	86a6                	mv	a3,s1
   15c2c:	009b7363          	bgeu	s6,s1,15c32 <__sfvwrite_r+0x5c>
   15c30:	86da                	mv	a3,s6
   15c32:	2681                	sext.w	a3,a3
   15c34:	9782                	jalr	a5
   15c36:	14a05563          	blez	a0,15d80 <__sfvwrite_r+0x1aa>
   15c3a:	010a3783          	ld	a5,16(s4)
   15c3e:	99aa                	add	s3,s3,a0
   15c40:	8c89                	sub	s1,s1,a0
   15c42:	40a78533          	sub	a0,a5,a0
   15c46:	00aa3823          	sd	a0,16(s4)
   15c4a:	10050763          	beqz	a0,15d58 <__sfvwrite_r+0x182>
   15c4e:	603c                	ld	a5,64(s0)
   15c50:	780c                	ld	a1,48(s0)
   15c52:	864e                	mv	a2,s3
   15c54:	8556                	mv	a0,s5
   15c56:	f8f1                	bnez	s1,15c2a <__sfvwrite_r+0x54>
   15c58:	00093983          	ld	s3,0(s2)
   15c5c:	00893483          	ld	s1,8(s2)
   15c60:	0941                	addi	s2,s2,16
   15c62:	b7c9                	j	15c24 <__sfvwrite_r+0x4e>
   15c64:	85a2                	mv	a1,s0
   15c66:	8556                	mv	a0,s5
   15c68:	ca4ff0ef          	jal	ra,1510c <__swsetup_r>
   15c6c:	28051863          	bnez	a0,15efc <__sfvwrite_r+0x326>
   15c70:	01045783          	lhu	a5,16(s0)
   15c74:	000a3903          	ld	s2,0(s4)
   15c78:	0027f713          	andi	a4,a5,2
   15c7c:	ff41                	bnez	a4,15c14 <__sfvwrite_r+0x3e>
   15c7e:	0017f713          	andi	a4,a5,1
   15c82:	eb35                	bnez	a4,15cf6 <__sfvwrite_r+0x120>
   15c84:	4444                	lw	s1,12(s0)
   15c86:	6008                	ld	a0,0(s0)
   15c88:	80000b37          	lui	s6,0x80000
   15c8c:	ffeb4b93          	xori	s7,s6,-2
   15c90:	4c01                	li	s8,0
   15c92:	4981                	li	s3,0
   15c94:	fffb4b13          	not	s6,s6
   15c98:	8ca6                	mv	s9,s1
   15c9a:	04098863          	beqz	s3,15cea <__sfvwrite_r+0x114>
   15c9e:	2007f713          	andi	a4,a5,512
   15ca2:	12070a63          	beqz	a4,15dd6 <__sfvwrite_r+0x200>
   15ca6:	8d26                	mv	s10,s1
   15ca8:	1899f763          	bgeu	s3,s1,15e36 <__sfvwrite_r+0x260>
   15cac:	8cce                	mv	s9,s3
   15cae:	8d4e                	mv	s10,s3
   15cb0:	866a                	mv	a2,s10
   15cb2:	85e2                	mv	a1,s8
   15cb4:	78c020ef          	jal	ra,18440 <memmove>
   15cb8:	4458                	lw	a4,12(s0)
   15cba:	601c                	ld	a5,0(s0)
   15cbc:	84ce                	mv	s1,s3
   15cbe:	41970cbb          	subw	s9,a4,s9
   15cc2:	97ea                	add	a5,a5,s10
   15cc4:	01942623          	sw	s9,12(s0)
   15cc8:	e01c                	sd	a5,0(s0)
   15cca:	4981                	li	s3,0
   15ccc:	010a3603          	ld	a2,16(s4)
   15cd0:	9c26                	add	s8,s8,s1
   15cd2:	409604b3          	sub	s1,a2,s1
   15cd6:	009a3823          	sd	s1,16(s4)
   15cda:	ccbd                	beqz	s1,15d58 <__sfvwrite_r+0x182>
   15cdc:	4444                	lw	s1,12(s0)
   15cde:	6008                	ld	a0,0(s0)
   15ce0:	01045783          	lhu	a5,16(s0)
   15ce4:	8ca6                	mv	s9,s1
   15ce6:	fa099ce3          	bnez	s3,15c9e <__sfvwrite_r+0xc8>
   15cea:	00093c03          	ld	s8,0(s2)
   15cee:	00893983          	ld	s3,8(s2)
   15cf2:	0941                	addi	s2,s2,16
   15cf4:	b755                	j	15c98 <__sfvwrite_r+0xc2>
   15cf6:	4981                	li	s3,0
   15cf8:	4501                	li	a0,0
   15cfa:	4c81                	li	s9,0
   15cfc:	4c01                	li	s8,0
   15cfe:	080c0b63          	beqz	s8,15d94 <__sfvwrite_r+0x1be>
   15d02:	c145                	beqz	a0,15da2 <__sfvwrite_r+0x1cc>
   15d04:	8bce                	mv	s7,s3
   15d06:	013c7363          	bgeu	s8,s3,15d0c <__sfvwrite_r+0x136>
   15d0a:	8be2                	mv	s7,s8
   15d0c:	6008                	ld	a0,0(s0)
   15d0e:	6c1c                	ld	a5,24(s0)
   15d10:	5014                	lw	a3,32(s0)
   15d12:	84de                	mv	s1,s7
   15d14:	00a7f763          	bgeu	a5,a0,15d22 <__sfvwrite_r+0x14c>
   15d18:	445c                	lw	a5,12(s0)
   15d1a:	00d78b3b          	addw	s6,a5,a3
   15d1e:	097b4d63          	blt	s6,s7,15db8 <__sfvwrite_r+0x1e2>
   15d22:	18dbc463          	blt	s7,a3,15eaa <__sfvwrite_r+0x2d4>
   15d26:	603c                	ld	a5,64(s0)
   15d28:	780c                	ld	a1,48(s0)
   15d2a:	8666                	mv	a2,s9
   15d2c:	8556                	mv	a0,s5
   15d2e:	9782                	jalr	a5
   15d30:	84aa                	mv	s1,a0
   15d32:	04a05763          	blez	a0,15d80 <__sfvwrite_r+0x1aa>
   15d36:	0005079b          	sext.w	a5,a0
   15d3a:	40f989bb          	subw	s3,s3,a5
   15d3e:	4505                	li	a0,1
   15d40:	02098b63          	beqz	s3,15d76 <__sfvwrite_r+0x1a0>
   15d44:	010a3783          	ld	a5,16(s4)
   15d48:	9ca6                	add	s9,s9,s1
   15d4a:	409c0c33          	sub	s8,s8,s1
   15d4e:	409784b3          	sub	s1,a5,s1
   15d52:	009a3823          	sd	s1,16(s4)
   15d56:	f4c5                	bnez	s1,15cfe <__sfvwrite_r+0x128>
   15d58:	4501                	li	a0,0
   15d5a:	60e6                	ld	ra,88(sp)
   15d5c:	6446                	ld	s0,80(sp)
   15d5e:	64a6                	ld	s1,72(sp)
   15d60:	6906                	ld	s2,64(sp)
   15d62:	79e2                	ld	s3,56(sp)
   15d64:	7a42                	ld	s4,48(sp)
   15d66:	7aa2                	ld	s5,40(sp)
   15d68:	7b02                	ld	s6,32(sp)
   15d6a:	6be2                	ld	s7,24(sp)
   15d6c:	6c42                	ld	s8,16(sp)
   15d6e:	6ca2                	ld	s9,8(sp)
   15d70:	6d02                	ld	s10,0(sp)
   15d72:	6125                	addi	sp,sp,96
   15d74:	8082                	ret
   15d76:	85a2                	mv	a1,s0
   15d78:	8556                	mv	a0,s5
   15d7a:	ef8ff0ef          	jal	ra,15472 <_fflush_r>
   15d7e:	d179                	beqz	a0,15d44 <__sfvwrite_r+0x16e>
   15d80:	01041783          	lh	a5,16(s0)
   15d84:	0407e793          	ori	a5,a5,64
   15d88:	00f41823          	sh	a5,16(s0)
   15d8c:	557d                	li	a0,-1
   15d8e:	b7f1                	j	15d5a <__sfvwrite_r+0x184>
   15d90:	4501                	li	a0,0
   15d92:	8082                	ret
   15d94:	00893c03          	ld	s8,8(s2)
   15d98:	00093c83          	ld	s9,0(s2)
   15d9c:	0941                	addi	s2,s2,16
   15d9e:	fe0c0be3          	beqz	s8,15d94 <__sfvwrite_r+0x1be>
   15da2:	8662                	mv	a2,s8
   15da4:	45a9                	li	a1,10
   15da6:	8566                	mv	a0,s9
   15da8:	51c020ef          	jal	ra,182c4 <memchr>
   15dac:	12050f63          	beqz	a0,15eea <__sfvwrite_r+0x314>
   15db0:	0505                	addi	a0,a0,1
   15db2:	419509bb          	subw	s3,a0,s9
   15db6:	b7b9                	j	15d04 <__sfvwrite_r+0x12e>
   15db8:	85e6                	mv	a1,s9
   15dba:	865a                	mv	a2,s6
   15dbc:	684020ef          	jal	ra,18440 <memmove>
   15dc0:	601c                	ld	a5,0(s0)
   15dc2:	85a2                	mv	a1,s0
   15dc4:	8556                	mv	a0,s5
   15dc6:	97da                	add	a5,a5,s6
   15dc8:	e01c                	sd	a5,0(s0)
   15dca:	ea8ff0ef          	jal	ra,15472 <_fflush_r>
   15dce:	f94d                	bnez	a0,15d80 <__sfvwrite_r+0x1aa>
   15dd0:	87da                	mv	a5,s6
   15dd2:	84da                	mv	s1,s6
   15dd4:	b79d                	j	15d3a <__sfvwrite_r+0x164>
   15dd6:	6c1c                	ld	a5,24(s0)
   15dd8:	02a7e863          	bltu	a5,a0,15e08 <__sfvwrite_r+0x232>
   15ddc:	501c                	lw	a5,32(s0)
   15dde:	02f9e563          	bltu	s3,a5,15e08 <__sfvwrite_r+0x232>
   15de2:	86ce                	mv	a3,s3
   15de4:	013bf363          	bgeu	s7,s3,15dea <__sfvwrite_r+0x214>
   15de8:	86da                	mv	a3,s6
   15dea:	02f6c6bb          	divw	a3,a3,a5
   15dee:	6038                	ld	a4,64(s0)
   15df0:	780c                	ld	a1,48(s0)
   15df2:	8662                	mv	a2,s8
   15df4:	8556                	mv	a0,s5
   15df6:	02f686bb          	mulw	a3,a3,a5
   15dfa:	9702                	jalr	a4
   15dfc:	84aa                	mv	s1,a0
   15dfe:	f8a051e3          	blez	a0,15d80 <__sfvwrite_r+0x1aa>
   15e02:	409989b3          	sub	s3,s3,s1
   15e06:	b5d9                	j	15ccc <__sfvwrite_r+0xf6>
   15e08:	0099f363          	bgeu	s3,s1,15e0e <__sfvwrite_r+0x238>
   15e0c:	84ce                	mv	s1,s3
   15e0e:	8626                	mv	a2,s1
   15e10:	85e2                	mv	a1,s8
   15e12:	62e020ef          	jal	ra,18440 <memmove>
   15e16:	445c                	lw	a5,12(s0)
   15e18:	6018                	ld	a4,0(s0)
   15e1a:	409786bb          	subw	a3,a5,s1
   15e1e:	9726                	add	a4,a4,s1
   15e20:	c454                	sw	a3,12(s0)
   15e22:	e018                	sd	a4,0(s0)
   15e24:	fef9                	bnez	a3,15e02 <__sfvwrite_r+0x22c>
   15e26:	85a2                	mv	a1,s0
   15e28:	8556                	mv	a0,s5
   15e2a:	e48ff0ef          	jal	ra,15472 <_fflush_r>
   15e2e:	f929                	bnez	a0,15d80 <__sfvwrite_r+0x1aa>
   15e30:	409989b3          	sub	s3,s3,s1
   15e34:	bd61                	j	15ccc <__sfvwrite_r+0xf6>
   15e36:	4807f713          	andi	a4,a5,1152
   15e3a:	e6070be3          	beqz	a4,15cb0 <__sfvwrite_r+0xda>
   15e3e:	5004                	lw	s1,32(s0)
   15e40:	6c0c                	ld	a1,24(s0)
   15e42:	00198713          	addi	a4,s3,1
   15e46:	0014969b          	slliw	a3,s1,0x1
   15e4a:	9ea5                	addw	a3,a3,s1
   15e4c:	8d0d                	sub	a0,a0,a1
   15e4e:	01f6d49b          	srliw	s1,a3,0x1f
   15e52:	00050d1b          	sext.w	s10,a0
   15e56:	9cb5                	addw	s1,s1,a3
   15e58:	4014d49b          	sraiw	s1,s1,0x1
   15e5c:	976a                	add	a4,a4,s10
   15e5e:	00e4f563          	bgeu	s1,a4,15e68 <__sfvwrite_r+0x292>
   15e62:	0019849b          	addiw	s1,s3,1
   15e66:	9ca9                	addw	s1,s1,a0
   15e68:	4007f793          	andi	a5,a5,1024
   15e6c:	cfa9                	beqz	a5,15ec6 <__sfvwrite_r+0x2f0>
   15e6e:	85a6                	mv	a1,s1
   15e70:	8556                	mv	a0,s5
   15e72:	8e6fc0ef          	jal	ra,11f58 <_malloc_r>
   15e76:	8caa                	mv	s9,a0
   15e78:	cd25                	beqz	a0,15ef0 <__sfvwrite_r+0x31a>
   15e7a:	6c0c                	ld	a1,24(s0)
   15e7c:	866a                	mv	a2,s10
   15e7e:	4e4020ef          	jal	ra,18362 <memcpy>
   15e82:	01045783          	lhu	a5,16(s0)
   15e86:	b7f7f793          	andi	a5,a5,-1153
   15e8a:	0807e793          	ori	a5,a5,128
   15e8e:	00f41823          	sh	a5,16(s0)
   15e92:	01ac8533          	add	a0,s9,s10
   15e96:	41a487bb          	subw	a5,s1,s10
   15e9a:	01943c23          	sd	s9,24(s0)
   15e9e:	e008                	sd	a0,0(s0)
   15ea0:	d004                	sw	s1,32(s0)
   15ea2:	8cce                	mv	s9,s3
   15ea4:	c45c                	sw	a5,12(s0)
   15ea6:	8d4e                	mv	s10,s3
   15ea8:	b521                	j	15cb0 <__sfvwrite_r+0xda>
   15eaa:	865e                	mv	a2,s7
   15eac:	85e6                	mv	a1,s9
   15eae:	592020ef          	jal	ra,18440 <memmove>
   15eb2:	4458                	lw	a4,12(s0)
   15eb4:	6010                	ld	a2,0(s0)
   15eb6:	000b879b          	sext.w	a5,s7
   15eba:	4177073b          	subw	a4,a4,s7
   15ebe:	965e                	add	a2,a2,s7
   15ec0:	c458                	sw	a4,12(s0)
   15ec2:	e010                	sd	a2,0(s0)
   15ec4:	bd9d                	j	15d3a <__sfvwrite_r+0x164>
   15ec6:	8626                	mv	a2,s1
   15ec8:	8556                	mv	a0,s5
   15eca:	2a2030ef          	jal	ra,1916c <_realloc_r>
   15ece:	8caa                	mv	s9,a0
   15ed0:	f169                	bnez	a0,15e92 <__sfvwrite_r+0x2bc>
   15ed2:	6c0c                	ld	a1,24(s0)
   15ed4:	8556                	mv	a0,s5
   15ed6:	ab1ff0ef          	jal	ra,15986 <_free_r>
   15eda:	01041783          	lh	a5,16(s0)
   15ede:	4731                	li	a4,12
   15ee0:	00eaa023          	sw	a4,0(s5)
   15ee4:	f7f7f793          	andi	a5,a5,-129
   15ee8:	bd71                	j	15d84 <__sfvwrite_r+0x1ae>
   15eea:	001c099b          	addiw	s3,s8,1
   15eee:	bd19                	j	15d04 <__sfvwrite_r+0x12e>
   15ef0:	4731                	li	a4,12
   15ef2:	01041783          	lh	a5,16(s0)
   15ef6:	00eaa023          	sw	a4,0(s5)
   15efa:	b569                	j	15d84 <__sfvwrite_r+0x1ae>
   15efc:	557d                	li	a0,-1
   15efe:	bdb1                	j	15d5a <__sfvwrite_r+0x184>

0000000000015f00 <_fwalk>:
   15f00:	715d                	addi	sp,sp,-80
   15f02:	f84a                	sd	s2,48(sp)
   15f04:	f44e                	sd	s3,40(sp)
   15f06:	f052                	sd	s4,32(sp)
   15f08:	ec56                	sd	s5,24(sp)
   15f0a:	e85a                	sd	s6,16(sp)
   15f0c:	e45e                	sd	s7,8(sp)
   15f0e:	e486                	sd	ra,72(sp)
   15f10:	e0a2                	sd	s0,64(sp)
   15f12:	fc26                	sd	s1,56(sp)
   15f14:	8a2e                	mv	s4,a1
   15f16:	52050913          	addi	s2,a0,1312
   15f1a:	4b01                	li	s6,0
   15f1c:	0b000a93          	li	s5,176
   15f20:	4b85                	li	s7,1
   15f22:	59fd                	li	s3,-1
   15f24:	00892783          	lw	a5,8(s2)
   15f28:	01093403          	ld	s0,16(s2)
   15f2c:	02f05b63          	blez	a5,15f62 <_fwalk+0x62>
   15f30:	fff7849b          	addiw	s1,a5,-1
   15f34:	1482                	slli	s1,s1,0x20
   15f36:	9081                	srli	s1,s1,0x20
   15f38:	0485                	addi	s1,s1,1
   15f3a:	035484b3          	mul	s1,s1,s5
   15f3e:	94a2                	add	s1,s1,s0
   15f40:	01045783          	lhu	a5,16(s0)
   15f44:	00fbfb63          	bgeu	s7,a5,15f5a <_fwalk+0x5a>
   15f48:	01241783          	lh	a5,18(s0)
   15f4c:	8522                	mv	a0,s0
   15f4e:	01378663          	beq	a5,s3,15f5a <_fwalk+0x5a>
   15f52:	9a02                	jalr	s4
   15f54:	01656b33          	or	s6,a0,s6
   15f58:	2b01                	sext.w	s6,s6
   15f5a:	0b040413          	addi	s0,s0,176
   15f5e:	fe8491e3          	bne	s1,s0,15f40 <_fwalk+0x40>
   15f62:	00093903          	ld	s2,0(s2)
   15f66:	fa091fe3          	bnez	s2,15f24 <_fwalk+0x24>
   15f6a:	60a6                	ld	ra,72(sp)
   15f6c:	6406                	ld	s0,64(sp)
   15f6e:	74e2                	ld	s1,56(sp)
   15f70:	7942                	ld	s2,48(sp)
   15f72:	79a2                	ld	s3,40(sp)
   15f74:	7a02                	ld	s4,32(sp)
   15f76:	6ae2                	ld	s5,24(sp)
   15f78:	6ba2                	ld	s7,8(sp)
   15f7a:	855a                	mv	a0,s6
   15f7c:	6b42                	ld	s6,16(sp)
   15f7e:	6161                	addi	sp,sp,80
   15f80:	8082                	ret

0000000000015f82 <_fwalk_reent>:
   15f82:	715d                	addi	sp,sp,-80
   15f84:	f84a                	sd	s2,48(sp)
   15f86:	f44e                	sd	s3,40(sp)
   15f88:	f052                	sd	s4,32(sp)
   15f8a:	ec56                	sd	s5,24(sp)
   15f8c:	e85a                	sd	s6,16(sp)
   15f8e:	e45e                	sd	s7,8(sp)
   15f90:	e062                	sd	s8,0(sp)
   15f92:	e486                	sd	ra,72(sp)
   15f94:	e0a2                	sd	s0,64(sp)
   15f96:	fc26                	sd	s1,56(sp)
   15f98:	8c2a                	mv	s8,a0
   15f9a:	8a2e                	mv	s4,a1
   15f9c:	52050913          	addi	s2,a0,1312
   15fa0:	4b01                	li	s6,0
   15fa2:	0b000a93          	li	s5,176
   15fa6:	4b85                	li	s7,1
   15fa8:	59fd                	li	s3,-1
   15faa:	00892783          	lw	a5,8(s2)
   15fae:	01093403          	ld	s0,16(s2)
   15fb2:	02f05c63          	blez	a5,15fea <_fwalk_reent+0x68>
   15fb6:	fff7849b          	addiw	s1,a5,-1
   15fba:	1482                	slli	s1,s1,0x20
   15fbc:	9081                	srli	s1,s1,0x20
   15fbe:	0485                	addi	s1,s1,1
   15fc0:	035484b3          	mul	s1,s1,s5
   15fc4:	94a2                	add	s1,s1,s0
   15fc6:	01045783          	lhu	a5,16(s0)
   15fca:	00fbfc63          	bgeu	s7,a5,15fe2 <_fwalk_reent+0x60>
   15fce:	01241783          	lh	a5,18(s0)
   15fd2:	85a2                	mv	a1,s0
   15fd4:	8562                	mv	a0,s8
   15fd6:	01378663          	beq	a5,s3,15fe2 <_fwalk_reent+0x60>
   15fda:	9a02                	jalr	s4
   15fdc:	01656b33          	or	s6,a0,s6
   15fe0:	2b01                	sext.w	s6,s6
   15fe2:	0b040413          	addi	s0,s0,176
   15fe6:	fe8490e3          	bne	s1,s0,15fc6 <_fwalk_reent+0x44>
   15fea:	00093903          	ld	s2,0(s2)
   15fee:	fa091ee3          	bnez	s2,15faa <_fwalk_reent+0x28>
   15ff2:	60a6                	ld	ra,72(sp)
   15ff4:	6406                	ld	s0,64(sp)
   15ff6:	74e2                	ld	s1,56(sp)
   15ff8:	7942                	ld	s2,48(sp)
   15ffa:	79a2                	ld	s3,40(sp)
   15ffc:	7a02                	ld	s4,32(sp)
   15ffe:	6ae2                	ld	s5,24(sp)
   16000:	6ba2                	ld	s7,8(sp)
   16002:	6c02                	ld	s8,0(sp)
   16004:	855a                	mv	a0,s6
   16006:	6b42                	ld	s6,16(sp)
   16008:	6161                	addi	sp,sp,80
   1600a:	8082                	ret

000000000001600c <eshdn1>:
   1600c:	00450693          	addi	a3,a0,4
   16010:	4781                	li	a5,0
   16012:	0569                	addi	a0,a0,26
   16014:	7861                	lui	a6,0xffff8
   16016:	a811                	j	1602a <eshdn1+0x1e>
   16018:	0017979b          	slliw	a5,a5,0x1
   1601c:	00e69023          	sh	a4,0(a3)
   16020:	17c2                	slli	a5,a5,0x30
   16022:	0689                	addi	a3,a3,2
   16024:	93c1                	srli	a5,a5,0x30
   16026:	02d50863          	beq	a0,a3,16056 <eshdn1+0x4a>
   1602a:	0006d703          	lhu	a4,0(a3)
   1602e:	00177613          	andi	a2,a4,1
   16032:	c219                	beqz	a2,16038 <eshdn1+0x2c>
   16034:	0017e793          	ori	a5,a5,1
   16038:	8305                	srli	a4,a4,0x1
   1603a:	0027f613          	andi	a2,a5,2
   1603e:	010765b3          	or	a1,a4,a6
   16042:	da79                	beqz	a2,16018 <eshdn1+0xc>
   16044:	0017979b          	slliw	a5,a5,0x1
   16048:	00b69023          	sh	a1,0(a3)
   1604c:	17c2                	slli	a5,a5,0x30
   1604e:	0689                	addi	a3,a3,2
   16050:	93c1                	srli	a5,a5,0x30
   16052:	fcd51ce3          	bne	a0,a3,1602a <eshdn1+0x1e>
   16056:	8082                	ret

0000000000016058 <eshup1>:
   16058:	01850693          	addi	a3,a0,24
   1605c:	4701                	li	a4,0
   1605e:	0509                	addi	a0,a0,2
   16060:	a811                	j	16074 <eshup1+0x1c>
   16062:	0017171b          	slliw	a4,a4,0x1
   16066:	00f69023          	sh	a5,0(a3)
   1606a:	1742                	slli	a4,a4,0x30
   1606c:	16f9                	addi	a3,a3,-2
   1606e:	9341                	srli	a4,a4,0x30
   16070:	04d50063          	beq	a0,a3,160b0 <eshup1+0x58>
   16074:	0006d783          	lhu	a5,0(a3)
   16078:	0107961b          	slliw	a2,a5,0x10
   1607c:	4106561b          	sraiw	a2,a2,0x10
   16080:	02061593          	slli	a1,a2,0x20
   16084:	0017979b          	slliw	a5,a5,0x1
   16088:	0005d463          	bgez	a1,16090 <eshup1+0x38>
   1608c:	00176713          	ori	a4,a4,1
   16090:	17c2                	slli	a5,a5,0x30
   16092:	93c1                	srli	a5,a5,0x30
   16094:	00277613          	andi	a2,a4,2
   16098:	0017e593          	ori	a1,a5,1
   1609c:	d279                	beqz	a2,16062 <eshup1+0xa>
   1609e:	0017171b          	slliw	a4,a4,0x1
   160a2:	00b69023          	sh	a1,0(a3)
   160a6:	1742                	slli	a4,a4,0x30
   160a8:	16f9                	addi	a3,a3,-2
   160aa:	9341                	srli	a4,a4,0x30
   160ac:	fcd514e3          	bne	a0,a3,16074 <eshup1+0x1c>
   160b0:	8082                	ret

00000000000160b2 <m16m>:
   160b2:	1101                	addi	sp,sp,-32
   160b4:	6e41                	lui	t3,0x10
   160b6:	00011b23          	sh	zero,22(sp)
   160ba:	00011c23          	sh	zero,24(sp)
   160be:	05e1                	addi	a1,a1,24
   160c0:	083c                	addi	a5,sp,24
   160c2:	00410813          	addi	a6,sp,4
   160c6:	1e7d                	addi	t3,t3,-1
   160c8:	0005d703          	lhu	a4,0(a1)
   160cc:	17f9                	addi	a5,a5,-2
   160ce:	15f9                	addi	a1,a1,-2
   160d0:	e315                	bnez	a4,160f4 <m16m+0x42>
   160d2:	fe079f23          	sh	zero,-2(a5)
   160d6:	ff0799e3          	bne	a5,a6,160c8 <m16m+0x16>
   160da:	0611                	addi	a2,a2,4
   160dc:	01a10693          	addi	a3,sp,26
   160e0:	0007d703          	lhu	a4,0(a5)
   160e4:	0789                	addi	a5,a5,2
   160e6:	0609                	addi	a2,a2,2
   160e8:	fee61f23          	sh	a4,-2(a2)
   160ec:	fed79ae3          	bne	a5,a3,160e0 <m16m+0x2e>
   160f0:	6105                	addi	sp,sp,32
   160f2:	8082                	ret
   160f4:	02a70733          	mul	a4,a4,a0
   160f8:	0027d883          	lhu	a7,2(a5)
   160fc:	0007d303          	lhu	t1,0(a5)
   16100:	01c776b3          	and	a3,a4,t3
   16104:	96c6                	add	a3,a3,a7
   16106:	8341                	srli	a4,a4,0x10
   16108:	0106d893          	srli	a7,a3,0x10
   1610c:	971a                	add	a4,a4,t1
   1610e:	9746                	add	a4,a4,a7
   16110:	01075893          	srli	a7,a4,0x10
   16114:	00d79123          	sh	a3,2(a5)
   16118:	00e79023          	sh	a4,0(a5)
   1611c:	ff179f23          	sh	a7,-2(a5)
   16120:	fb0794e3          	bne	a5,a6,160c8 <m16m+0x16>
   16124:	bf5d                	j	160da <m16m+0x28>

0000000000016126 <eisnan.part.0>:
   16126:	01250713          	addi	a4,a0,18
   1612a:	00055783          	lhu	a5,0(a0)
   1612e:	0509                	addi	a0,a0,2
   16130:	e789                	bnez	a5,1613a <eisnan.part.0+0x14>
   16132:	fee51ce3          	bne	a0,a4,1612a <eisnan.part.0+0x4>
   16136:	4501                	li	a0,0
   16138:	8082                	ret
   1613a:	4505                	li	a0,1
   1613c:	8082                	ret

000000000001613e <eneg>:
   1613e:	1101                	addi	sp,sp,-32
   16140:	e426                	sd	s1,8(sp)
   16142:	01255483          	lhu	s1,18(a0)
   16146:	e822                	sd	s0,16(sp)
   16148:	ec06                	sd	ra,24(sp)
   1614a:	fff4c793          	not	a5,s1
   1614e:	03179713          	slli	a4,a5,0x31
   16152:	842a                	mv	s0,a0
   16154:	e701                	bnez	a4,1615c <eneg+0x1e>
   16156:	fd1ff0ef          	jal	ra,16126 <eisnan.part.0>
   1615a:	e509                	bnez	a0,16164 <eneg+0x26>
   1615c:	77e1                	lui	a5,0xffff8
   1615e:	8cbd                	xor	s1,s1,a5
   16160:	00941923          	sh	s1,18(s0)
   16164:	60e2                	ld	ra,24(sp)
   16166:	6442                	ld	s0,16(sp)
   16168:	64a2                	ld	s1,8(sp)
   1616a:	6105                	addi	sp,sp,32
   1616c:	8082                	ret

000000000001616e <eisneg>:
   1616e:	1141                	addi	sp,sp,-16
   16170:	e022                	sd	s0,0(sp)
   16172:	01255403          	lhu	s0,18(a0)
   16176:	e406                	sd	ra,8(sp)
   16178:	fff44793          	not	a5,s0
   1617c:	03179713          	slli	a4,a5,0x31
   16180:	e711                	bnez	a4,1618c <eisneg+0x1e>
   16182:	fa5ff0ef          	jal	ra,16126 <eisnan.part.0>
   16186:	87aa                	mv	a5,a0
   16188:	4501                	li	a0,0
   1618a:	e399                	bnez	a5,16190 <eisneg+0x22>
   1618c:	00f45513          	srli	a0,s0,0xf
   16190:	60a2                	ld	ra,8(sp)
   16192:	6402                	ld	s0,0(sp)
   16194:	0141                	addi	sp,sp,16
   16196:	8082                	ret

0000000000016198 <emovi>:
   16198:	01255783          	lhu	a5,18(a0)
   1619c:	7139                	addi	sp,sp,-64
   1619e:	f822                	sd	s0,48(sp)
   161a0:	00f7d79b          	srliw	a5,a5,0xf
   161a4:	f426                	sd	s1,40(sp)
   161a6:	fc06                	sd	ra,56(sp)
   161a8:	f04a                	sd	s2,32(sp)
   161aa:	ec4e                	sd	s3,24(sp)
   161ac:	40f007bb          	negw	a5,a5
   161b0:	00f59023          	sh	a5,0(a1)
   161b4:	01255783          	lhu	a5,18(a0)
   161b8:	6721                	lui	a4,0x8
   161ba:	177d                	addi	a4,a4,-1
   161bc:	8ff9                	and	a5,a5,a4
   161be:	00f59123          	sh	a5,2(a1)
   161c2:	84aa                	mv	s1,a0
   161c4:	01050413          	addi	s0,a0,16
   161c8:	02e78863          	beq	a5,a4,161f8 <emovi+0x60>
   161cc:	00658793          	addi	a5,a1,6
   161d0:	00059223          	sh	zero,4(a1)
   161d4:	1579                	addi	a0,a0,-2
   161d6:	00045703          	lhu	a4,0(s0)
   161da:	1479                	addi	s0,s0,-2
   161dc:	0789                	addi	a5,a5,2
   161de:	fee79f23          	sh	a4,-2(a5) # ffffffffffff7ffe <__BSS_END__+0xffffffffffee12ce>
   161e2:	fe851ae3          	bne	a0,s0,161d6 <emovi+0x3e>
   161e6:	00059c23          	sh	zero,24(a1)
   161ea:	70e2                	ld	ra,56(sp)
   161ec:	7442                	ld	s0,48(sp)
   161ee:	74a2                	ld	s1,40(sp)
   161f0:	7902                	ld	s2,32(sp)
   161f2:	69e2                	ld	s3,24(sp)
   161f4:	6121                	addi	sp,sp,64
   161f6:	8082                	ret
   161f8:	0007869b          	sext.w	a3,a5
   161fc:	01255783          	lhu	a5,18(a0)
   16200:	00458913          	addi	s2,a1,4
   16204:	8ff5                	and	a5,a5,a3
   16206:	02d79663          	bne	a5,a3,16232 <emovi+0x9a>
   1620a:	e42e                	sd	a1,8(sp)
   1620c:	f1bff0ef          	jal	ra,16126 <eisnan.part.0>
   16210:	65a2                	ld	a1,8(sp)
   16212:	c105                	beqz	a0,16232 <emovi+0x9a>
   16214:	00658793          	addi	a5,a1,6
   16218:	00059223          	sh	zero,4(a1)
   1621c:	ffc48513          	addi	a0,s1,-4
   16220:	00045703          	lhu	a4,0(s0)
   16224:	1479                	addi	s0,s0,-2
   16226:	0789                	addi	a5,a5,2
   16228:	fee79f23          	sh	a4,-2(a5)
   1622c:	fe851ae3          	bne	a0,s0,16220 <emovi+0x88>
   16230:	bf6d                	j	161ea <emovi+0x52>
   16232:	01a58993          	addi	s3,a1,26
   16236:	0909                	addi	s2,s2,2
   16238:	fe091f23          	sh	zero,-2(s2)
   1623c:	ff299de3          	bne	s3,s2,16236 <emovi+0x9e>
   16240:	70e2                	ld	ra,56(sp)
   16242:	7442                	ld	s0,48(sp)
   16244:	74a2                	ld	s1,40(sp)
   16246:	7902                	ld	s2,32(sp)
   16248:	69e2                	ld	s3,24(sp)
   1624a:	6121                	addi	sp,sp,64
   1624c:	8082                	ret

000000000001624e <ecmp>:
   1624e:	01255783          	lhu	a5,18(a0)
   16252:	711d                	addi	sp,sp,-96
   16254:	e8a2                	sd	s0,80(sp)
   16256:	fff7c793          	not	a5,a5
   1625a:	e4a6                	sd	s1,72(sp)
   1625c:	ec86                	sd	ra,88(sp)
   1625e:	03179713          	slli	a4,a5,0x31
   16262:	84aa                	mv	s1,a0
   16264:	842e                	mv	s0,a1
   16266:	e701                	bnez	a4,1626e <ecmp+0x20>
   16268:	ebfff0ef          	jal	ra,16126 <eisnan.part.0>
   1626c:	ed39                	bnez	a0,162ca <ecmp+0x7c>
   1626e:	01245783          	lhu	a5,18(s0)
   16272:	fff7c793          	not	a5,a5
   16276:	03179713          	slli	a4,a5,0x31
   1627a:	c721                	beqz	a4,162c2 <ecmp+0x74>
   1627c:	858a                	mv	a1,sp
   1627e:	8526                	mv	a0,s1
   16280:	f19ff0ef          	jal	ra,16198 <emovi>
   16284:	100c                	addi	a1,sp,32
   16286:	8522                	mv	a0,s0
   16288:	f11ff0ef          	jal	ra,16198 <emovi>
   1628c:	00015583          	lhu	a1,0(sp)
   16290:	02015783          	lhu	a5,32(sp)
   16294:	02b78d63          	beq	a5,a1,162ce <ecmp+0x80>
   16298:	00210793          	addi	a5,sp,2
   1629c:	02210713          	addi	a4,sp,34
   162a0:	0830                	addi	a2,sp,24
   162a2:	0007d683          	lhu	a3,0(a5)
   162a6:	0789                	addi	a5,a5,2
   162a8:	e2ad                	bnez	a3,1630a <ecmp+0xbc>
   162aa:	00075683          	lhu	a3,0(a4) # 8000 <register_fini-0x80e8>
   162ae:	0709                	addi	a4,a4,2
   162b0:	eea9                	bnez	a3,1630a <ecmp+0xbc>
   162b2:	fec798e3          	bne	a5,a2,162a2 <ecmp+0x54>
   162b6:	4501                	li	a0,0
   162b8:	60e6                	ld	ra,88(sp)
   162ba:	6446                	ld	s0,80(sp)
   162bc:	64a6                	ld	s1,72(sp)
   162be:	6125                	addi	sp,sp,96
   162c0:	8082                	ret
   162c2:	8522                	mv	a0,s0
   162c4:	e63ff0ef          	jal	ra,16126 <eisnan.part.0>
   162c8:	d955                	beqz	a0,1627c <ecmp+0x2e>
   162ca:	5579                	li	a0,-2
   162cc:	b7f5                	j	162b8 <ecmp+0x6a>
   162ce:	4505                	li	a0,1
   162d0:	e1a9                	bnez	a1,16312 <ecmp+0xc4>
   162d2:	00215603          	lhu	a2,2(sp)
   162d6:	02215683          	lhu	a3,34(sp)
   162da:	00210713          	addi	a4,sp,2
   162de:	02210793          	addi	a5,sp,34
   162e2:	182c                	addi	a1,sp,56
   162e4:	0789                	addi	a5,a5,2
   162e6:	0709                	addi	a4,a4,2
   162e8:	00d61c63          	bne	a2,a3,16300 <ecmp+0xb2>
   162ec:	fcb785e3          	beq	a5,a1,162b6 <ecmp+0x68>
   162f0:	00075603          	lhu	a2,0(a4)
   162f4:	0007d683          	lhu	a3,0(a5)
   162f8:	0709                	addi	a4,a4,2
   162fa:	0789                	addi	a5,a5,2
   162fc:	fed608e3          	beq	a2,a3,162ec <ecmp+0x9e>
   16300:	fac6ece3          	bltu	a3,a2,162b8 <ecmp+0x6a>
   16304:	40a0053b          	negw	a0,a0
   16308:	bf45                	j	162b8 <ecmp+0x6a>
   1630a:	4505                	li	a0,1
   1630c:	d5d5                	beqz	a1,162b8 <ecmp+0x6a>
   1630e:	557d                	li	a0,-1
   16310:	b765                	j	162b8 <ecmp+0x6a>
   16312:	557d                	li	a0,-1
   16314:	bf7d                	j	162d2 <ecmp+0x84>

0000000000016316 <eisinf.part.0>:
   16316:	1141                	addi	sp,sp,-16
   16318:	e406                	sd	ra,8(sp)
   1631a:	e0dff0ef          	jal	ra,16126 <eisnan.part.0>
   1631e:	60a2                	ld	ra,8(sp)
   16320:	00153513          	seqz	a0,a0
   16324:	0141                	addi	sp,sp,16
   16326:	8082                	ret

0000000000016328 <eshift.part.0>:
   16328:	7179                	addi	sp,sp,-48
   1632a:	f022                	sd	s0,32(sp)
   1632c:	ec26                	sd	s1,24(sp)
   1632e:	f406                	sd	ra,40(sp)
   16330:	e84a                	sd	s2,16(sp)
   16332:	e44e                	sd	s3,8(sp)
   16334:	84ae                	mv	s1,a1
   16336:	842a                	mv	s0,a0
   16338:	0605cb63          	bltz	a1,163ae <eshift.part.0+0x86>
   1633c:	47bd                	li	a5,15
   1633e:	862e                	mv	a2,a1
   16340:	0511                	addi	a0,a0,4
   16342:	01840693          	addi	a3,s0,24
   16346:	45bd                	li	a1,15
   16348:	0297d063          	bge	a5,s1,16368 <eshift.part.0+0x40>
   1634c:	87aa                	mv	a5,a0
   1634e:	0027d703          	lhu	a4,2(a5)
   16352:	0789                	addi	a5,a5,2
   16354:	fee79f23          	sh	a4,-2(a5)
   16358:	fed79be3          	bne	a5,a3,1634e <eshift.part.0+0x26>
   1635c:	00041c23          	sh	zero,24(s0)
   16360:	3641                	addiw	a2,a2,-16
   16362:	fec5c5e3          	blt	a1,a2,1634c <eshift.part.0+0x24>
   16366:	88bd                	andi	s1,s1,15
   16368:	479d                	li	a5,7
   1636a:	0297d463          	bge	a5,s1,16392 <eshift.part.0+0x6a>
   1636e:	01840713          	addi	a4,s0,24
   16372:	00240593          	addi	a1,s0,2
   16376:	4781                	li	a5,0
   16378:	00075683          	lhu	a3,0(a4)
   1637c:	1779                	addi	a4,a4,-2
   1637e:	00869613          	slli	a2,a3,0x8
   16382:	8fd1                	or	a5,a5,a2
   16384:	00f71123          	sh	a5,2(a4)
   16388:	0086d793          	srli	a5,a3,0x8
   1638c:	feb716e3          	bne	a4,a1,16378 <eshift.part.0+0x50>
   16390:	34e1                	addiw	s1,s1,-8
   16392:	c491                	beqz	s1,1639e <eshift.part.0+0x76>
   16394:	34fd                	addiw	s1,s1,-1
   16396:	8522                	mv	a0,s0
   16398:	cc1ff0ef          	jal	ra,16058 <eshup1>
   1639c:	fce5                	bnez	s1,16394 <eshift.part.0+0x6c>
   1639e:	4501                	li	a0,0
   163a0:	70a2                	ld	ra,40(sp)
   163a2:	7402                	ld	s0,32(sp)
   163a4:	64e2                	ld	s1,24(sp)
   163a6:	6942                	ld	s2,16(sp)
   163a8:	69a2                	ld	s3,8(sp)
   163aa:	6145                	addi	sp,sp,48
   163ac:	8082                	ret
   163ae:	57c5                	li	a5,-15
   163b0:	40b0093b          	negw	s2,a1
   163b4:	0ef5d463          	bge	a1,a5,1649c <eshift.part.0+0x174>
   163b8:	01850593          	addi	a1,a0,24
   163bc:	4981                	li	s3,0
   163be:	00450693          	addi	a3,a0,4
   163c2:	463d                	li	a2,15
   163c4:	01845703          	lhu	a4,24(s0)
   163c8:	87ae                	mv	a5,a1
   163ca:	00e9e9b3          	or	s3,s3,a4
   163ce:	ffe7d703          	lhu	a4,-2(a5)
   163d2:	17f9                	addi	a5,a5,-2
   163d4:	00e79123          	sh	a4,2(a5)
   163d8:	fed79be3          	bne	a5,a3,163ce <eshift.part.0+0xa6>
   163dc:	00041223          	sh	zero,4(s0)
   163e0:	3941                	addiw	s2,s2,-16
   163e2:	ff2641e3          	blt	a2,s2,163c4 <eshift.part.0+0x9c>
   163e6:	57c1                	li	a5,-16
   163e8:	5745                	li	a4,-15
   163ea:	9f85                	subw	a5,a5,s1
   163ec:	4901                	li	s2,0
   163ee:	08e4c063          	blt	s1,a4,1646e <eshift.part.0+0x146>
   163f2:	00f9093b          	addw	s2,s2,a5
   163f6:	479d                	li	a5,7
   163f8:	0327df63          	bge	a5,s2,16436 <eshift.part.0+0x10e>
   163fc:	0109999b          	slliw	s3,s3,0x10
   16400:	4109d99b          	sraiw	s3,s3,0x10
   16404:	01844783          	lbu	a5,24(s0)
   16408:	01a40593          	addi	a1,s0,26
   1640c:	00f9e9b3          	or	s3,s3,a5
   16410:	19c2                	slli	s3,s3,0x30
   16412:	0309d993          	srli	s3,s3,0x30
   16416:	4781                	li	a5,0
   16418:	0006d603          	lhu	a2,0(a3)
   1641c:	0689                	addi	a3,a3,2
   1641e:	0086571b          	srliw	a4,a2,0x8
   16422:	8f5d                	or	a4,a4,a5
   16424:	0086179b          	slliw	a5,a2,0x8
   16428:	17c2                	slli	a5,a5,0x30
   1642a:	fee69f23          	sh	a4,-2(a3)
   1642e:	93c1                	srli	a5,a5,0x30
   16430:	feb694e3          	bne	a3,a1,16418 <eshift.part.0+0xf0>
   16434:	3961                	addiw	s2,s2,-8
   16436:	04090b63          	beqz	s2,1648c <eshift.part.0+0x164>
   1643a:	01845783          	lhu	a5,24(s0)
   1643e:	397d                	addiw	s2,s2,-1
   16440:	8522                	mv	a0,s0
   16442:	8b85                	andi	a5,a5,1
   16444:	0137e9b3          	or	s3,a5,s3
   16448:	bc5ff0ef          	jal	ra,1600c <eshdn1>
   1644c:	fe0917e3          	bnez	s2,1643a <eshift.part.0+0x112>
   16450:	0109979b          	slliw	a5,s3,0x10
   16454:	4107d79b          	sraiw	a5,a5,0x10
   16458:	e78d                	bnez	a5,16482 <eshift.part.0+0x15a>
   1645a:	03099513          	slli	a0,s3,0x30
   1645e:	9141                	srli	a0,a0,0x30
   16460:	70a2                	ld	ra,40(sp)
   16462:	7402                	ld	s0,32(sp)
   16464:	64e2                	ld	s1,24(sp)
   16466:	6942                	ld	s2,16(sp)
   16468:	69a2                	ld	s3,8(sp)
   1646a:	6145                	addi	sp,sp,48
   1646c:	8082                	ret
   1646e:	ff07f913          	andi	s2,a5,-16
   16472:	4120093b          	negw	s2,s2
   16476:	00f9093b          	addw	s2,s2,a5
   1647a:	479d                	li	a5,7
   1647c:	fb27dde3          	bge	a5,s2,16436 <eshift.part.0+0x10e>
   16480:	bfb5                	j	163fc <eshift.part.0+0xd4>
   16482:	4985                	li	s3,1
   16484:	03099513          	slli	a0,s3,0x30
   16488:	9141                	srli	a0,a0,0x30
   1648a:	bfd9                	j	16460 <eshift.part.0+0x138>
   1648c:	854e                	mv	a0,s3
   1648e:	00099563          	bnez	s3,16498 <eshift.part.0+0x170>
   16492:	1542                	slli	a0,a0,0x30
   16494:	9141                	srli	a0,a0,0x30
   16496:	b729                	j	163a0 <eshift.part.0+0x78>
   16498:	4505                	li	a0,1
   1649a:	bfe5                	j	16492 <eshift.part.0+0x16a>
   1649c:	57e5                	li	a5,-7
   1649e:	4981                	li	s3,0
   164a0:	f8f5dde3          	bge	a1,a5,1643a <eshift.part.0+0x112>
   164a4:	00440693          	addi	a3,s0,4
   164a8:	bfb1                	j	16404 <eshift.part.0+0xdc>

00000000000164aa <enormlz>:
   164aa:	00455783          	lhu	a5,4(a0)
   164ae:	1101                	addi	sp,sp,-32
   164b0:	e426                	sd	s1,8(sp)
   164b2:	ec06                	sd	ra,24(sp)
   164b4:	e822                	sd	s0,16(sp)
   164b6:	e04a                	sd	s2,0(sp)
   164b8:	84aa                	mv	s1,a0
   164ba:	ebc5                	bnez	a5,1656a <enormlz+0xc0>
   164bc:	00655703          	lhu	a4,6(a0)
   164c0:	4401                	li	s0,0
   164c2:	0107179b          	slliw	a5,a4,0x10
   164c6:	4107d79b          	sraiw	a5,a5,0x10
   164ca:	02079693          	slli	a3,a5,0x20
   164ce:	0806c763          	bltz	a3,1655c <enormlz+0xb2>
   164d2:	01a50693          	addi	a3,a0,26
   164d6:	0a000613          	li	a2,160
   164da:	e31d                	bnez	a4,16500 <enormlz+0x56>
   164dc:	00648793          	addi	a5,s1,6
   164e0:	a019                	j	164e6 <enormlz+0x3c>
   164e2:	0007d703          	lhu	a4,0(a5)
   164e6:	0789                	addi	a5,a5,2
   164e8:	fee79e23          	sh	a4,-4(a5)
   164ec:	fef69be3          	bne	a3,a5,164e2 <enormlz+0x38>
   164f0:	00049c23          	sh	zero,24(s1)
   164f4:	2441                	addiw	s0,s0,16
   164f6:	06c40363          	beq	s0,a2,1655c <enormlz+0xb2>
   164fa:	0064d703          	lhu	a4,6(s1)
   164fe:	df79                	beqz	a4,164dc <enormlz+0x32>
   16500:	f0077793          	andi	a5,a4,-256
   16504:	eb8d                	bnez	a5,16536 <enormlz+0x8c>
   16506:	01848513          	addi	a0,s1,24
   1650a:	00248593          	addi	a1,s1,2
   1650e:	4781                	li	a5,0
   16510:	872a                	mv	a4,a0
   16512:	00075683          	lhu	a3,0(a4)
   16516:	1779                	addi	a4,a4,-2
   16518:	00869613          	slli	a2,a3,0x8
   1651c:	8fd1                	or	a5,a5,a2
   1651e:	00f71123          	sh	a5,2(a4)
   16522:	0086d793          	srli	a5,a3,0x8
   16526:	fee596e3          	bne	a1,a4,16512 <enormlz+0x68>
   1652a:	0064d703          	lhu	a4,6(s1)
   1652e:	2421                	addiw	s0,s0,8
   16530:	f0077793          	andi	a5,a4,-256
   16534:	dfe9                	beqz	a5,1650e <enormlz+0x64>
   16536:	0a000913          	li	s2,160
   1653a:	a801                	j	1654a <enormlz+0xa0>
   1653c:	2405                	addiw	s0,s0,1
   1653e:	b1bff0ef          	jal	ra,16058 <eshup1>
   16542:	00894d63          	blt	s2,s0,1655c <enormlz+0xb2>
   16546:	0064d703          	lhu	a4,6(s1)
   1654a:	0107171b          	slliw	a4,a4,0x10
   1654e:	4107571b          	sraiw	a4,a4,0x10
   16552:	02071793          	slli	a5,a4,0x20
   16556:	8526                	mv	a0,s1
   16558:	fe07d2e3          	bgez	a5,1653c <enormlz+0x92>
   1655c:	60e2                	ld	ra,24(sp)
   1655e:	8522                	mv	a0,s0
   16560:	6442                	ld	s0,16(sp)
   16562:	64a2                	ld	s1,8(sp)
   16564:	6902                	ld	s2,0(sp)
   16566:	6105                	addi	sp,sp,32
   16568:	8082                	ret
   1656a:	f007f713          	andi	a4,a5,-256
   1656e:	4401                	li	s0,0
   16570:	e705                	bnez	a4,16598 <enormlz+0xee>
   16572:	f6f00913          	li	s2,-145
   16576:	a801                	j	16586 <enormlz+0xdc>
   16578:	347d                	addiw	s0,s0,-1
   1657a:	a93ff0ef          	jal	ra,1600c <eshdn1>
   1657e:	fd240fe3          	beq	s0,s2,1655c <enormlz+0xb2>
   16582:	0044d783          	lhu	a5,4(s1)
   16586:	8526                	mv	a0,s1
   16588:	fbe5                	bnez	a5,16578 <enormlz+0xce>
   1658a:	60e2                	ld	ra,24(sp)
   1658c:	8522                	mv	a0,s0
   1658e:	6442                	ld	s0,16(sp)
   16590:	64a2                	ld	s1,8(sp)
   16592:	6902                	ld	s2,0(sp)
   16594:	6105                	addi	sp,sp,32
   16596:	8082                	ret
   16598:	00450693          	addi	a3,a0,4
   1659c:	01a50593          	addi	a1,a0,26
   165a0:	4701                	li	a4,0
   165a2:	a019                	j	165a8 <enormlz+0xfe>
   165a4:	0006d783          	lhu	a5,0(a3)
   165a8:	0087d61b          	srliw	a2,a5,0x8
   165ac:	8f51                	or	a4,a4,a2
   165ae:	0087979b          	slliw	a5,a5,0x8
   165b2:	00e69023          	sh	a4,0(a3)
   165b6:	03079713          	slli	a4,a5,0x30
   165ba:	0689                	addi	a3,a3,2
   165bc:	9341                	srli	a4,a4,0x30
   165be:	feb693e3          	bne	a3,a1,165a4 <enormlz+0xfa>
   165c2:	0044d783          	lhu	a5,4(s1)
   165c6:	5461                	li	s0,-8
   165c8:	b76d                	j	16572 <enormlz+0xc8>

00000000000165ca <emdnorm>:
   165ca:	7139                	addi	sp,sp,-64
   165cc:	f822                	sd	s0,48(sp)
   165ce:	f426                	sd	s1,40(sp)
   165d0:	f04a                	sd	s2,32(sp)
   165d2:	ec4e                	sd	s3,24(sp)
   165d4:	e852                	sd	s4,16(sp)
   165d6:	e456                	sd	s5,8(sp)
   165d8:	8936                	mv	s2,a3
   165da:	84be                	mv	s1,a5
   165dc:	fc06                	sd	ra,56(sp)
   165de:	842a                	mv	s0,a0
   165e0:	89ae                	mv	s3,a1
   165e2:	8a32                	mv	s4,a2
   165e4:	8aba                	mv	s5,a4
   165e6:	ec5ff0ef          	jal	ra,164aa <enormlz>
   165ea:	09000793          	li	a5,144
   165ee:	40a90933          	sub	s2,s2,a0
   165f2:	12a7db63          	bge	a5,a0,16728 <emdnorm+0x15e>
   165f6:	67a1                	lui	a5,0x8
   165f8:	17f9                	addi	a5,a5,-2
   165fa:	1927dd63          	bge	a5,s2,16794 <emdnorm+0x1ca>
   165fe:	160a8b63          	beqz	s5,16774 <emdnorm+0x1aa>
   16602:	40c8                	lw	a0,4(s1)
   16604:	409c                	lw	a5,0(s1)
   16606:	04a78e63          	beq	a5,a0,16662 <emdnorm+0x98>
   1660a:	01a48713          	addi	a4,s1,26
   1660e:	03448793          	addi	a5,s1,52
   16612:	0709                	addi	a4,a4,2
   16614:	fe071f23          	sh	zero,-2(a4)
   16618:	fef71de3          	bne	a4,a5,16612 <emdnorm+0x48>
   1661c:	03800793          	li	a5,56
   16620:	28f50263          	beq	a0,a5,168a4 <emdnorm+0x2da>
   16624:	12a7d163          	bge	a5,a0,16746 <emdnorm+0x17c>
   16628:	04000793          	li	a5,64
   1662c:	24f50c63          	beq	a0,a5,16884 <emdnorm+0x2ba>
   16630:	07100793          	li	a5,113
   16634:	28f51163          	bne	a0,a5,168b6 <emdnorm+0x2ec>
   16638:	47a9                	li	a5,10
   1663a:	40008737          	lui	a4,0x40008
   1663e:	177d                	addi	a4,a4,-1
   16640:	1782                	slli	a5,a5,0x20
   16642:	07a9                	addi	a5,a5,10
   16644:	c8d8                	sw	a4,20(s1)
   16646:	7761                	lui	a4,0xffff8
   16648:	00e49c23          	sh	a4,24(s1)
   1664c:	e49c                	sd	a5,8(s1)
   1664e:	6721                	lui	a4,0x8
   16650:	47a9                	li	a5,10
   16652:	07a1                	addi	a5,a5,8
   16654:	0786                	slli	a5,a5,0x1
   16656:	97a6                	add	a5,a5,s1
   16658:	00e79523          	sh	a4,10(a5) # 800a <register_fini-0x80de>
   1665c:	c088                	sw	a0,0(s1)
   1665e:	17205163          	blez	s2,167c0 <emdnorm+0x1f6>
   16662:	4494                	lw	a3,8(s1)
   16664:	0144d603          	lhu	a2,20(s1)
   16668:	08f00793          	li	a5,143
   1666c:	00169713          	slli	a4,a3,0x1
   16670:	00e40833          	add	a6,s0,a4
   16674:	00085883          	lhu	a7,0(a6) # ffffffffffff8000 <__BSS_END__+0xffffffffffee12d0>
   16678:	00c8f5b3          	and	a1,a7,a2
   1667c:	02a7ce63          	blt	a5,a0,166b8 <emdnorm+0xee>
   16680:	47ad                	li	a5,11
   16682:	02d7cb63          	blt	a5,a3,166b8 <emdnorm+0xee>
   16686:	9f95                	subw	a5,a5,a3
   16688:	1782                	slli	a5,a5,0x20
   1668a:	9381                	srli	a5,a5,0x20
   1668c:	97b6                	add	a5,a5,a3
   1668e:	00179693          	slli	a3,a5,0x1
   16692:	0709                	addi	a4,a4,2
   16694:	00440793          	addi	a5,s0,4
   16698:	9722                	add	a4,a4,s0
   1669a:	97b6                	add	a5,a5,a3
   1669c:	00075683          	lhu	a3,0(a4) # 8000 <register_fini-0x80e8>
   166a0:	c299                	beqz	a3,166a6 <emdnorm+0xdc>
   166a2:	0015e593          	ori	a1,a1,1
   166a6:	00071023          	sh	zero,0(a4)
   166aa:	0709                	addi	a4,a4,2
   166ac:	fee798e3          	bne	a5,a4,1669c <emdnorm+0xd2>
   166b0:	00085883          	lhu	a7,0(a6)
   166b4:	0144d603          	lhu	a2,20(s1)
   166b8:	fff64613          	not	a2,a2
   166bc:	01167633          	and	a2,a2,a7
   166c0:	00c81023          	sh	a2,0(a6)
   166c4:	0164d783          	lhu	a5,22(s1)
   166c8:	00b7f733          	and	a4,a5,a1
   166cc:	cb05                	beqz	a4,166fc <emdnorm+0x132>
   166ce:	12b78f63          	beq	a5,a1,1680c <emdnorm+0x242>
   166d2:	03248613          	addi	a2,s1,50
   166d6:	01840693          	addi	a3,s0,24
   166da:	04f1                	addi	s1,s1,28
   166dc:	4701                	li	a4,0
   166de:	00065783          	lhu	a5,0(a2)
   166e2:	0006d583          	lhu	a1,0(a3)
   166e6:	16f9                	addi	a3,a3,-2
   166e8:	1679                	addi	a2,a2,-2
   166ea:	97ae                	add	a5,a5,a1
   166ec:	97ba                	add	a5,a5,a4
   166ee:	0107d713          	srli	a4,a5,0x10
   166f2:	00f69123          	sh	a5,2(a3)
   166f6:	8b05                	andi	a4,a4,1
   166f8:	fe9613e3          	bne	a2,s1,166de <emdnorm+0x114>
   166fc:	13205663          	blez	s2,16828 <emdnorm+0x25e>
   16700:	00445783          	lhu	a5,4(s0)
   16704:	e7ed                	bnez	a5,167ee <emdnorm+0x224>
   16706:	67a1                	lui	a5,0x8
   16708:	00041c23          	sh	zero,24(s0)
   1670c:	17f9                	addi	a5,a5,-2
   1670e:	0727c563          	blt	a5,s2,16778 <emdnorm+0x1ae>
   16712:	01241123          	sh	s2,2(s0)
   16716:	70e2                	ld	ra,56(sp)
   16718:	7442                	ld	s0,48(sp)
   1671a:	74a2                	ld	s1,40(sp)
   1671c:	7902                	ld	s2,32(sp)
   1671e:	69e2                	ld	s3,24(sp)
   16720:	6a42                	ld	s4,16(sp)
   16722:	6aa2                	ld	s5,8(sp)
   16724:	6121                	addi	sp,sp,64
   16726:	8082                	ret
   16728:	0a095a63          	bgez	s2,167dc <emdnorm+0x212>
   1672c:	f7000793          	li	a5,-144
   16730:	06f95b63          	bge	s2,a5,167a6 <emdnorm+0x1dc>
   16734:	00240793          	addi	a5,s0,2
   16738:	0469                	addi	s0,s0,26
   1673a:	0789                	addi	a5,a5,2
   1673c:	fe079f23          	sh	zero,-2(a5) # 7ffe <register_fini-0x80ea>
   16740:	fe879de3          	bne	a5,s0,1673a <emdnorm+0x170>
   16744:	bfc9                	j	16716 <emdnorm+0x14c>
   16746:	47e1                	li	a5,24
   16748:	10f50f63          	beq	a0,a5,16866 <emdnorm+0x29c>
   1674c:	03500793          	li	a5,53
   16750:	16f51363          	bne	a0,a5,168b6 <emdnorm+0x2ec>
   16754:	040006b7          	lui	a3,0x4000
   16758:	6705                	lui	a4,0x1
   1675a:	7ff68693          	addi	a3,a3,2047 # 40007ff <__BSS_END__+0x3ee9acf>
   1675e:	4799                	li	a5,6
   16760:	80070713          	addi	a4,a4,-2048 # 800 <register_fini-0xf8e8>
   16764:	c8d4                	sw	a3,20(s1)
   16766:	1782                	slli	a5,a5,0x20
   16768:	0799                	addi	a5,a5,6
   1676a:	e49c                	sd	a5,8(s1)
   1676c:	00e49c23          	sh	a4,24(s1)
   16770:	4799                	li	a5,6
   16772:	b5c5                	j	16652 <emdnorm+0x88>
   16774:	00041c23          	sh	zero,24(s0)
   16778:	77e1                	lui	a5,0xffff8
   1677a:	fff7c793          	not	a5,a5
   1677e:	00f41123          	sh	a5,2(s0)
   16782:	00440793          	addi	a5,s0,4
   16786:	0461                	addi	s0,s0,24
   16788:	00079023          	sh	zero,0(a5) # ffffffffffff8000 <__BSS_END__+0xffffffffffee12d0>
   1678c:	0789                	addi	a5,a5,2
   1678e:	fef41de3          	bne	s0,a5,16788 <emdnorm+0x1be>
   16792:	b751                	j	16716 <emdnorm+0x14c>
   16794:	00240793          	addi	a5,s0,2
   16798:	0469                	addi	s0,s0,26
   1679a:	0789                	addi	a5,a5,2
   1679c:	fe079f23          	sh	zero,-2(a5)
   167a0:	fe879de3          	bne	a5,s0,1679a <emdnorm+0x1d0>
   167a4:	bf8d                	j	16716 <emdnorm+0x14c>
   167a6:	0009059b          	sext.w	a1,s2
   167aa:	8522                	mv	a0,s0
   167ac:	b7dff0ef          	jal	ra,16328 <eshift.part.0>
   167b0:	c111                	beqz	a0,167b4 <emdnorm+0x1ea>
   167b2:	4985                	li	s3,1
   167b4:	0a0a8463          	beqz	s5,1685c <emdnorm+0x292>
   167b8:	40c8                	lw	a0,4(s1)
   167ba:	409c                	lw	a5,0(s1)
   167bc:	e4a797e3          	bne	a5,a0,1660a <emdnorm+0x40>
   167c0:	09000793          	li	a5,144
   167c4:	08f50163          	beq	a0,a5,16846 <emdnorm+0x27c>
   167c8:	01845783          	lhu	a5,24(s0)
   167cc:	8522                	mv	a0,s0
   167ce:	8b85                	andi	a5,a5,1
   167d0:	00f9e9b3          	or	s3,s3,a5
   167d4:	839ff0ef          	jal	ra,1600c <eshdn1>
   167d8:	40c8                	lw	a0,4(s1)
   167da:	b561                	j	16662 <emdnorm+0x98>
   167dc:	f20a85e3          	beqz	s5,16706 <emdnorm+0x13c>
   167e0:	40c8                	lw	a0,4(s1)
   167e2:	409c                	lw	a5,0(s1)
   167e4:	e2a793e3          	bne	a5,a0,1660a <emdnorm+0x40>
   167e8:	e7204de3          	bgtz	s2,16662 <emdnorm+0x98>
   167ec:	bfd1                	j	167c0 <emdnorm+0x1f6>
   167ee:	8522                	mv	a0,s0
   167f0:	81dff0ef          	jal	ra,1600c <eshdn1>
   167f4:	67a1                	lui	a5,0x8
   167f6:	0905                	addi	s2,s2,1
   167f8:	00041c23          	sh	zero,24(s0)
   167fc:	17f9                	addi	a5,a5,-2
   167fe:	f727cde3          	blt	a5,s2,16778 <emdnorm+0x1ae>
   16802:	f00958e3          	bgez	s2,16712 <emdnorm+0x148>
   16806:	00041123          	sh	zero,2(s0)
   1680a:	b731                	j	16716 <emdnorm+0x14c>
   1680c:	08099963          	bnez	s3,1689e <emdnorm+0x2d4>
   16810:	44dc                	lw	a5,12(s1)
   16812:	0184d703          	lhu	a4,24(s1)
   16816:	0786                	slli	a5,a5,0x1
   16818:	97a2                	add	a5,a5,s0
   1681a:	0007d783          	lhu	a5,0(a5) # 8000 <register_fini-0x80e8>
   1681e:	8ff9                	and	a5,a5,a4
   16820:	ea0799e3          	bnez	a5,166d2 <emdnorm+0x108>
   16824:	ed204ee3          	bgtz	s2,16700 <emdnorm+0x136>
   16828:	09000793          	li	a5,144
   1682c:	00f50563          	beq	a0,a5,16836 <emdnorm+0x26c>
   16830:	8522                	mv	a0,s0
   16832:	827ff0ef          	jal	ra,16058 <eshup1>
   16836:	00445783          	lhu	a5,4(s0)
   1683a:	fbd5                	bnez	a5,167ee <emdnorm+0x224>
   1683c:	00041c23          	sh	zero,24(s0)
   16840:	fc0943e3          	bltz	s2,16806 <emdnorm+0x23c>
   16844:	b5f9                	j	16712 <emdnorm+0x148>
   16846:	0084a803          	lw	a6,8(s1)
   1684a:	0144d603          	lhu	a2,20(s1)
   1684e:	0806                	slli	a6,a6,0x1
   16850:	9822                	add	a6,a6,s0
   16852:	00085883          	lhu	a7,0(a6)
   16856:	011675b3          	and	a1,a2,a7
   1685a:	bdb9                	j	166b8 <emdnorm+0xee>
   1685c:	00041c23          	sh	zero,24(s0)
   16860:	00041123          	sh	zero,2(s0)
   16864:	bd4d                	j	16716 <emdnorm+0x14c>
   16866:	4791                	li	a5,4
   16868:	00800737          	lui	a4,0x800
   1686c:	0ff70713          	addi	a4,a4,255 # 8000ff <__BSS_END__+0x6e93cf>
   16870:	1782                	slli	a5,a5,0x20
   16872:	0791                	addi	a5,a5,4
   16874:	c8d8                	sw	a4,20(s1)
   16876:	10000713          	li	a4,256
   1687a:	e49c                	sd	a5,8(s1)
   1687c:	00e49c23          	sh	a4,24(s1)
   16880:	4791                	li	a5,4
   16882:	bbc1                	j	16652 <emdnorm+0x88>
   16884:	478d                	li	a5,3
   16886:	80010737          	lui	a4,0x80010
   1688a:	177d                	addi	a4,a4,-1
   1688c:	1786                	slli	a5,a5,0x21
   1688e:	079d                	addi	a5,a5,7
   16890:	c8d8                	sw	a4,20(s1)
   16892:	4705                	li	a4,1
   16894:	e49c                	sd	a5,8(s1)
   16896:	00e49c23          	sh	a4,24(s1)
   1689a:	4799                	li	a5,6
   1689c:	bb5d                	j	16652 <emdnorm+0x88>
   1689e:	e20a0ae3          	beqz	s4,166d2 <emdnorm+0x108>
   168a2:	bda9                	j	166fc <emdnorm+0x132>
   168a4:	00800737          	lui	a4,0x800
   168a8:	0ff70713          	addi	a4,a4,255 # 8000ff <__BSS_END__+0x6e93cf>
   168ac:	c8d8                	sw	a4,20(s1)
   168ae:	4799                	li	a5,6
   168b0:	10000713          	li	a4,256
   168b4:	bd4d                	j	16766 <emdnorm+0x19c>
   168b6:	47ad                	li	a5,11
   168b8:	80010737          	lui	a4,0x80010
   168bc:	177d                	addi	a4,a4,-1
   168be:	1782                	slli	a5,a5,0x20
   168c0:	07b1                	addi	a5,a5,12
   168c2:	c8d8                	sw	a4,20(s1)
   168c4:	4705                	li	a4,1
   168c6:	e49c                	sd	a5,8(s1)
   168c8:	00e49c23          	sh	a4,24(s1)
   168cc:	47ad                	li	a5,11
   168ce:	b351                	j	16652 <emdnorm+0x88>

00000000000168d0 <eiremain>:
   168d0:	711d                	addi	sp,sp,-96
   168d2:	e4a6                	sd	s1,72(sp)
   168d4:	fc4e                	sd	s3,56(sp)
   168d6:	84ae                	mv	s1,a1
   168d8:	00255983          	lhu	s3,2(a0)
   168dc:	ec86                	sd	ra,88(sp)
   168de:	e8a2                	sd	s0,80(sp)
   168e0:	e0ca                	sd	s2,64(sp)
   168e2:	f852                	sd	s4,48(sp)
   168e4:	8932                	mv	s2,a2
   168e6:	f456                	sd	s5,40(sp)
   168e8:	f05a                	sd	s6,32(sp)
   168ea:	ec5e                	sd	s7,24(sp)
   168ec:	e862                	sd	s8,16(sp)
   168ee:	e466                	sd	s9,8(sp)
   168f0:	e06a                	sd	s10,0(sp)
   168f2:	8a2a                	mv	s4,a0
   168f4:	bb7ff0ef          	jal	ra,164aa <enormlz>
   168f8:	0024d403          	lhu	s0,2(s1)
   168fc:	87aa                	mv	a5,a0
   168fe:	8526                	mv	a0,s1
   16900:	40f989b3          	sub	s3,s3,a5
   16904:	03490a93          	addi	s5,s2,52
   16908:	ba3ff0ef          	jal	ra,164aa <enormlz>
   1690c:	8c09                	sub	s0,s0,a0
   1690e:	04e90713          	addi	a4,s2,78
   16912:	87d6                	mv	a5,s5
   16914:	0789                	addi	a5,a5,2
   16916:	fe079f23          	sh	zero,-2(a5)
   1691a:	fee79de3          	bne	a5,a4,16914 <eiremain+0x44>
   1691e:	07344b63          	blt	s0,s3,16994 <eiremain+0xc4>
   16922:	004a0b93          	addi	s7,s4,4
   16926:	00448b13          	addi	s6,s1,4
   1692a:	19fd                	addi	s3,s3,-1
   1692c:	01aa0c93          	addi	s9,s4,26
   16930:	00248c13          	addi	s8,s1,2
   16934:	875a                	mv	a4,s6
   16936:	87de                	mv	a5,s7
   16938:	0007d603          	lhu	a2,0(a5)
   1693c:	00075683          	lhu	a3,0(a4) # ffffffff80010000 <__BSS_END__+0xffffffff7fef92d0>
   16940:	0789                	addi	a5,a5,2
   16942:	0709                	addi	a4,a4,2
   16944:	06d61c63          	bne	a2,a3,169bc <eiremain+0xec>
   16948:	fefc98e3          	bne	s9,a5,16938 <eiremain+0x68>
   1694c:	018a0613          	addi	a2,s4,24
   16950:	01848713          	addi	a4,s1,24
   16954:	4681                	li	a3,0
   16956:	00075783          	lhu	a5,0(a4)
   1695a:	00065583          	lhu	a1,0(a2)
   1695e:	1779                	addi	a4,a4,-2
   16960:	8f95                	sub	a5,a5,a3
   16962:	8f8d                	sub	a5,a5,a1
   16964:	0107d693          	srli	a3,a5,0x10
   16968:	00f71123          	sh	a5,2(a4)
   1696c:	8a85                	andi	a3,a3,1
   1696e:	1679                	addi	a2,a2,-2
   16970:	feec13e3          	bne	s8,a4,16956 <eiremain+0x86>
   16974:	4d05                	li	s10,1
   16976:	8556                	mv	a0,s5
   16978:	ee0ff0ef          	jal	ra,16058 <eshup1>
   1697c:	04c95783          	lhu	a5,76(s2)
   16980:	147d                	addi	s0,s0,-1
   16982:	8526                	mv	a0,s1
   16984:	00fd6d33          	or	s10,s10,a5
   16988:	05a91623          	sh	s10,76(s2)
   1698c:	eccff0ef          	jal	ra,16058 <eshup1>
   16990:	fb3412e3          	bne	s0,s3,16934 <eiremain+0x64>
   16994:	86a2                	mv	a3,s0
   16996:	6446                	ld	s0,80(sp)
   16998:	60e6                	ld	ra,88(sp)
   1699a:	79e2                	ld	s3,56(sp)
   1699c:	7a42                	ld	s4,48(sp)
   1699e:	7aa2                	ld	s5,40(sp)
   169a0:	7b02                	ld	s6,32(sp)
   169a2:	6be2                	ld	s7,24(sp)
   169a4:	6c42                	ld	s8,16(sp)
   169a6:	6ca2                	ld	s9,8(sp)
   169a8:	6d02                	ld	s10,0(sp)
   169aa:	87ca                	mv	a5,s2
   169ac:	8526                	mv	a0,s1
   169ae:	6906                	ld	s2,64(sp)
   169b0:	64a6                	ld	s1,72(sp)
   169b2:	4701                	li	a4,0
   169b4:	4601                	li	a2,0
   169b6:	4581                	li	a1,0
   169b8:	6125                	addi	sp,sp,96
   169ba:	b901                	j	165ca <emdnorm>
   169bc:	4d01                	li	s10,0
   169be:	fac6ece3          	bltu	a3,a2,16976 <eiremain+0xa6>
   169c2:	b769                	j	1694c <eiremain+0x7c>

00000000000169c4 <emovo.isra.0>:
   169c4:	00055703          	lhu	a4,0(a0)
   169c8:	00255783          	lhu	a5,2(a0)
   169cc:	c319                	beqz	a4,169d2 <emovo.isra.0+0xe>
   169ce:	6721                	lui	a4,0x8
   169d0:	8fd9                	or	a5,a5,a4
   169d2:	00f59923          	sh	a5,18(a1)
   169d6:	00255703          	lhu	a4,2(a0)
   169da:	67a1                	lui	a5,0x8
   169dc:	17fd                	addi	a5,a5,-1
   169de:	00f70f63          	beq	a4,a5,169fc <emovo.isra.0+0x38>
   169e2:	00650793          	addi	a5,a0,6
   169e6:	05c1                	addi	a1,a1,16
   169e8:	0561                	addi	a0,a0,24
   169ea:	0007d703          	lhu	a4,0(a5) # 8000 <register_fini-0x80e8>
   169ee:	0789                	addi	a5,a5,2
   169f0:	15f9                	addi	a1,a1,-2
   169f2:	00e59123          	sh	a4,2(a1)
   169f6:	fea79ae3          	bne	a5,a0,169ea <emovo.isra.0+0x26>
   169fa:	8082                	ret
   169fc:	00650793          	addi	a5,a0,6
   16a00:	0569                	addi	a0,a0,26
   16a02:	0007d703          	lhu	a4,0(a5)
   16a06:	0789                	addi	a5,a5,2
   16a08:	e31d                	bnez	a4,16a2e <emovo.isra.0+0x6a>
   16a0a:	fea79ce3          	bne	a5,a0,16a02 <emovo.isra.0+0x3e>
   16a0e:	01258713          	addi	a4,a1,18
   16a12:	87ae                	mv	a5,a1
   16a14:	0789                	addi	a5,a5,2
   16a16:	fe079f23          	sh	zero,-2(a5)
   16a1a:	fef71de3          	bne	a4,a5,16a14 <emovo.isra.0+0x50>
   16a1e:	0125d783          	lhu	a5,18(a1)
   16a22:	6721                	lui	a4,0x8
   16a24:	177d                	addi	a4,a4,-1
   16a26:	8fd9                	or	a5,a5,a4
   16a28:	00f59923          	sh	a5,18(a1)
   16a2c:	8082                	ret
   16a2e:	01058713          	addi	a4,a1,16
   16a32:	87ae                	mv	a5,a1
   16a34:	0789                	addi	a5,a5,2
   16a36:	fe079f23          	sh	zero,-2(a5)
   16a3a:	fef71de3          	bne	a4,a5,16a34 <emovo.isra.0+0x70>
   16a3e:	7fffc7b7          	lui	a5,0x7fffc
   16a42:	c99c                	sw	a5,16(a1)
   16a44:	8082                	ret

0000000000016a46 <emul>:
   16a46:	7131                	addi	sp,sp,-192
   16a48:	e556                	sd	s5,136(sp)
   16a4a:	01255a83          	lhu	s5,18(a0)
   16a4e:	67a1                	lui	a5,0x8
   16a50:	17fd                	addi	a5,a5,-1
   16a52:	f922                	sd	s0,176(sp)
   16a54:	f526                	sd	s1,168(sp)
   16a56:	f14a                	sd	s2,160(sp)
   16a58:	ed4e                	sd	s3,152(sp)
   16a5a:	e15a                	sd	s6,128(sp)
   16a5c:	fd06                	sd	ra,184(sp)
   16a5e:	e952                	sd	s4,144(sp)
   16a60:	fcde                	sd	s7,120(sp)
   16a62:	f8e2                	sd	s8,112(sp)
   16a64:	f4e6                	sd	s9,104(sp)
   16a66:	0157fb33          	and	s6,a5,s5
   16a6a:	84aa                	mv	s1,a0
   16a6c:	892e                	mv	s2,a1
   16a6e:	8432                	mv	s0,a2
   16a70:	89b6                	mv	s3,a3
   16a72:	0cfb1263          	bne	s6,a5,16b36 <emul+0xf0>
   16a76:	eb0ff0ef          	jal	ra,16126 <eisnan.part.0>
   16a7a:	1e051863          	bnez	a0,16c6a <emul+0x224>
   16a7e:	01295a03          	lhu	s4,18(s2)
   16a82:	014b77b3          	and	a5,s6,s4
   16a86:	1f678d63          	beq	a5,s6,16c80 <emul+0x23a>
   16a8a:	8526                	mv	a0,s1
   16a8c:	88bff0ef          	jal	ra,16316 <eisinf.part.0>
   16a90:	22050c63          	beqz	a0,16cc8 <emul+0x282>
   16a94:	00008597          	auipc	a1,0x8
   16a98:	ca458593          	addi	a1,a1,-860 # 1e738 <ezero>
   16a9c:	854a                	mv	a0,s2
   16a9e:	fb0ff0ef          	jal	ra,1624e <ecmp>
   16aa2:	28050963          	beqz	a0,16d34 <emul+0x2ee>
   16aa6:	01295a03          	lhu	s4,18(s2)
   16aaa:	67a1                	lui	a5,0x8
   16aac:	17fd                	addi	a5,a5,-1
   16aae:	0147fa33          	and	s4,a5,s4
   16ab2:	1a42                	slli	s4,s4,0x30
   16ab4:	030a5a13          	srli	s4,s4,0x30
   16ab8:	20fa1663          	bne	s4,a5,16cc4 <emul+0x27e>
   16abc:	854a                	mv	a0,s2
   16abe:	859ff0ef          	jal	ra,16316 <eisinf.part.0>
   16ac2:	24051a63          	bnez	a0,16d16 <emul+0x2d0>
   16ac6:	0124d783          	lhu	a5,18(s1)
   16aca:	00fa77b3          	and	a5,s4,a5
   16ace:	07479a63          	bne	a5,s4,16b42 <emul+0xfc>
   16ad2:	8526                	mv	a0,s1
   16ad4:	843ff0ef          	jal	ra,16316 <eisinf.part.0>
   16ad8:	e509                	bnez	a0,16ae2 <emul+0x9c>
   16ada:	854a                	mv	a0,s2
   16adc:	83bff0ef          	jal	ra,16316 <eisinf.part.0>
   16ae0:	c12d                	beqz	a0,16b42 <emul+0xfc>
   16ae2:	8526                	mv	a0,s1
   16ae4:	e8aff0ef          	jal	ra,1616e <eisneg>
   16ae8:	84aa                	mv	s1,a0
   16aea:	854a                	mv	a0,s2
   16aec:	e82ff0ef          	jal	ra,1616e <eisneg>
   16af0:	40a48533          	sub	a0,s1,a0
   16af4:	00a03533          	snez	a0,a0
   16af8:	053e                	slli	a0,a0,0xf
   16afa:	00a41923          	sh	a0,18(s0)
   16afe:	01240713          	addi	a4,s0,18
   16b02:	87a2                	mv	a5,s0
   16b04:	0789                	addi	a5,a5,2
   16b06:	fe079f23          	sh	zero,-2(a5) # 7ffe <register_fini-0x80ea>
   16b0a:	fef71de3          	bne	a4,a5,16b04 <emul+0xbe>
   16b0e:	01245783          	lhu	a5,18(s0)
   16b12:	6721                	lui	a4,0x8
   16b14:	177d                	addi	a4,a4,-1
   16b16:	8fd9                	or	a5,a5,a4
   16b18:	00f41923          	sh	a5,18(s0)
   16b1c:	70ea                	ld	ra,184(sp)
   16b1e:	744a                	ld	s0,176(sp)
   16b20:	74aa                	ld	s1,168(sp)
   16b22:	790a                	ld	s2,160(sp)
   16b24:	69ea                	ld	s3,152(sp)
   16b26:	6a4a                	ld	s4,144(sp)
   16b28:	6aaa                	ld	s5,136(sp)
   16b2a:	6b0a                	ld	s6,128(sp)
   16b2c:	7be6                	ld	s7,120(sp)
   16b2e:	7c46                	ld	s8,112(sp)
   16b30:	7ca6                	ld	s9,104(sp)
   16b32:	6129                	addi	sp,sp,192
   16b34:	8082                	ret
   16b36:	0125da03          	lhu	s4,18(a1)
   16b3a:	0147f733          	and	a4,a5,s4
   16b3e:	02f70f63          	beq	a4,a5,16b7c <emul+0x136>
   16b42:	8526                	mv	a0,s1
   16b44:	858a                	mv	a1,sp
   16b46:	e52ff0ef          	jal	ra,16198 <emovi>
   16b4a:	854a                	mv	a0,s2
   16b4c:	100c                	addi	a1,sp,32
   16b4e:	e4aff0ef          	jal	ra,16198 <emovi>
   16b52:	00215483          	lhu	s1,2(sp)
   16b56:	02215903          	lhu	s2,34(sp)
   16b5a:	e0a1                	bnez	s1,16b9a <emul+0x154>
   16b5c:	005c                	addi	a5,sp,4
   16b5e:	0834                	addi	a3,sp,24
   16b60:	18f68b63          	beq	a3,a5,16cf6 <emul+0x2b0>
   16b64:	0007d703          	lhu	a4,0(a5)
   16b68:	0789                	addi	a5,a5,2
   16b6a:	db7d                	beqz	a4,16b60 <emul+0x11a>
   16b6c:	850a                	mv	a0,sp
   16b6e:	93dff0ef          	jal	ra,164aa <enormlz>
   16b72:	02215703          	lhu	a4,34(sp)
   16b76:	40a004b3          	neg	s1,a0
   16b7a:	a00d                	j	16b9c <emul+0x156>
   16b7c:	852e                	mv	a0,a1
   16b7e:	da8ff0ef          	jal	ra,16126 <eisnan.part.0>
   16b82:	d505                	beqz	a0,16aaa <emul+0x64>
   16b84:	01490713          	addi	a4,s2,20
   16b88:	00095783          	lhu	a5,0(s2)
   16b8c:	0909                	addi	s2,s2,2
   16b8e:	0409                	addi	s0,s0,2
   16b90:	fef41f23          	sh	a5,-2(s0)
   16b94:	fee91ae3          	bne	s2,a4,16b88 <emul+0x142>
   16b98:	b751                	j	16b1c <emul+0xd6>
   16b9a:	874a                	mv	a4,s2
   16b9c:	8aca                	mv	s5,s2
   16b9e:	105c                	addi	a5,sp,36
   16ba0:	1834                	addi	a3,sp,56
   16ba2:	ef11                	bnez	a4,16bbe <emul+0x178>
   16ba4:	16f68163          	beq	a3,a5,16d06 <emul+0x2c0>
   16ba8:	0007d703          	lhu	a4,0(a5)
   16bac:	0789                	addi	a5,a5,2
   16bae:	db7d                	beqz	a4,16ba4 <emul+0x15e>
   16bb0:	1008                	addi	a0,sp,32
   16bb2:	8f9ff0ef          	jal	ra,164aa <enormlz>
   16bb6:	02215703          	lhu	a4,34(sp)
   16bba:	40a90ab3          	sub	s5,s2,a0
   16bbe:	02015783          	lhu	a5,32(sp)
   16bc2:	03898c13          	addi	s8,s3,56
   16bc6:	02e99b23          	sh	a4,54(s3)
   16bca:	02f99a23          	sh	a5,52(s3)
   16bce:	04e98713          	addi	a4,s3,78
   16bd2:	87e2                	mv	a5,s8
   16bd4:	00079023          	sh	zero,0(a5)
   16bd8:	0789                	addi	a5,a5,2
   16bda:	fef71de3          	bne	a4,a5,16bd4 <emul+0x18e>
   16bde:	04c98a13          	addi	s4,s3,76
   16be2:	4b81                	li	s7,0
   16be4:	01810913          	addi	s2,sp,24
   16be8:	00410c93          	addi	s9,sp,4
   16bec:	04210b13          	addi	s6,sp,66
   16bf0:	00095503          	lhu	a0,0(s2)
   16bf4:	1979                	addi	s2,s2,-2
   16bf6:	e145                	bnez	a0,16c96 <emul+0x250>
   16bf8:	04c9d703          	lhu	a4,76(s3)
   16bfc:	87d2                	mv	a5,s4
   16bfe:	00ebebb3          	or	s7,s7,a4
   16c02:	ffe7d703          	lhu	a4,-2(a5)
   16c06:	17f9                	addi	a5,a5,-2
   16c08:	00e79123          	sh	a4,2(a5)
   16c0c:	ff879be3          	bne	a5,s8,16c02 <emul+0x1bc>
   16c10:	02099c23          	sh	zero,56(s3)
   16c14:	fd991ee3          	bne	s2,s9,16bf0 <emul+0x1aa>
   16c18:	03498713          	addi	a4,s3,52
   16c1c:	101c                	addi	a5,sp,32
   16c1e:	03a10593          	addi	a1,sp,58
   16c22:	00075603          	lhu	a2,0(a4) # 8000 <register_fini-0x80e8>
   16c26:	0789                	addi	a5,a5,2
   16c28:	0709                	addi	a4,a4,2
   16c2a:	fec79f23          	sh	a2,-2(a5)
   16c2e:	fef59ae3          	bne	a1,a5,16c22 <emul+0x1dc>
   16c32:	76f1                	lui	a3,0xffffc
   16c34:	94d6                	add	s1,s1,s5
   16c36:	0689                	addi	a3,a3,2
   16c38:	85de                	mv	a1,s7
   16c3a:	1008                	addi	a0,sp,32
   16c3c:	87ce                	mv	a5,s3
   16c3e:	04000713          	li	a4,64
   16c42:	96a6                	add	a3,a3,s1
   16c44:	4601                	li	a2,0
   16c46:	985ff0ef          	jal	ra,165ca <emdnorm>
   16c4a:	02015703          	lhu	a4,32(sp)
   16c4e:	00015783          	lhu	a5,0(sp)
   16c52:	85a2                	mv	a1,s0
   16c54:	1008                	addi	a0,sp,32
   16c56:	8f99                	sub	a5,a5,a4
   16c58:	00f037b3          	snez	a5,a5
   16c5c:	40f007bb          	negw	a5,a5
   16c60:	02f11023          	sh	a5,32(sp)
   16c64:	d61ff0ef          	jal	ra,169c4 <emovo.isra.0>
   16c68:	bd55                	j	16b1c <emul+0xd6>
   16c6a:	01448713          	addi	a4,s1,20
   16c6e:	0004d783          	lhu	a5,0(s1)
   16c72:	0489                	addi	s1,s1,2
   16c74:	0409                	addi	s0,s0,2
   16c76:	fef41f23          	sh	a5,-2(s0)
   16c7a:	fee49ae3          	bne	s1,a4,16c6e <emul+0x228>
   16c7e:	bd79                	j	16b1c <emul+0xd6>
   16c80:	854a                	mv	a0,s2
   16c82:	ca4ff0ef          	jal	ra,16126 <eisnan.part.0>
   16c86:	ee051fe3          	bnez	a0,16b84 <emul+0x13e>
   16c8a:	8526                	mv	a0,s1
   16c8c:	e8aff0ef          	jal	ra,16316 <eisinf.part.0>
   16c90:	e0050de3          	beqz	a0,16aaa <emul+0x64>
   16c94:	b501                	j	16a94 <emul+0x4e>
   16c96:	0090                	addi	a2,sp,64
   16c98:	100c                	addi	a1,sp,32
   16c9a:	c18ff0ef          	jal	ra,160b2 <m16m>
   16c9e:	85d2                	mv	a1,s4
   16ca0:	4601                	li	a2,0
   16ca2:	08b8                	addi	a4,sp,88
   16ca4:	0005d803          	lhu	a6,0(a1)
   16ca8:	00075783          	lhu	a5,0(a4)
   16cac:	15f9                	addi	a1,a1,-2
   16cae:	1779                	addi	a4,a4,-2
   16cb0:	97c2                	add	a5,a5,a6
   16cb2:	97b2                	add	a5,a5,a2
   16cb4:	0107d613          	srli	a2,a5,0x10
   16cb8:	00f59123          	sh	a5,2(a1)
   16cbc:	8a05                	andi	a2,a2,1
   16cbe:	ff6713e3          	bne	a4,s6,16ca4 <emul+0x25e>
   16cc2:	bf1d                	j	16bf8 <emul+0x1b2>
   16cc4:	0124da83          	lhu	s5,18(s1)
   16cc8:	67a1                	lui	a5,0x8
   16cca:	17fd                	addi	a5,a5,-1
   16ccc:	0157fab3          	and	s5,a5,s5
   16cd0:	1ac2                	slli	s5,s5,0x30
   16cd2:	030ada93          	srli	s5,s5,0x30
   16cd6:	e6fa96e3          	bne	s5,a5,16b42 <emul+0xfc>
   16cda:	8526                	mv	a0,s1
   16cdc:	e3aff0ef          	jal	ra,16316 <eisinf.part.0>
   16ce0:	e00511e3          	bnez	a0,16ae2 <emul+0x9c>
   16ce4:	01295783          	lhu	a5,18(s2)
   16ce8:	fff7c793          	not	a5,a5
   16cec:	03179713          	slli	a4,a5,0x31
   16cf0:	e40719e3          	bnez	a4,16b42 <emul+0xfc>
   16cf4:	b3dd                	j	16ada <emul+0x94>
   16cf6:	01440793          	addi	a5,s0,20
   16cfa:	0409                	addi	s0,s0,2
   16cfc:	fe041f23          	sh	zero,-2(s0)
   16d00:	fef41de3          	bne	s0,a5,16cfa <emul+0x2b4>
   16d04:	bd21                	j	16b1c <emul+0xd6>
   16d06:	01440793          	addi	a5,s0,20
   16d0a:	0409                	addi	s0,s0,2
   16d0c:	fe041f23          	sh	zero,-2(s0)
   16d10:	fef41de3          	bne	s0,a5,16d0a <emul+0x2c4>
   16d14:	b521                	j	16b1c <emul+0xd6>
   16d16:	00008597          	auipc	a1,0x8
   16d1a:	a2258593          	addi	a1,a1,-1502 # 1e738 <ezero>
   16d1e:	8526                	mv	a0,s1
   16d20:	d2eff0ef          	jal	ra,1624e <ecmp>
   16d24:	c901                	beqz	a0,16d34 <emul+0x2ee>
   16d26:	0124d783          	lhu	a5,18(s1)
   16d2a:	00fa77b3          	and	a5,s4,a5
   16d2e:	fb4786e3          	beq	a5,s4,16cda <emul+0x294>
   16d32:	bf4d                	j	16ce4 <emul+0x29e>
   16d34:	01040713          	addi	a4,s0,16
   16d38:	87a2                	mv	a5,s0
   16d3a:	0789                	addi	a5,a5,2
   16d3c:	fe079f23          	sh	zero,-2(a5) # 7ffe <register_fini-0x80ea>
   16d40:	fee79de3          	bne	a5,a4,16d3a <emul+0x2f4>
   16d44:	7fffc7b7          	lui	a5,0x7fffc
   16d48:	c81c                	sw	a5,16(s0)
   16d4a:	bbc9                	j	16b1c <emul+0xd6>

0000000000016d4c <ediv>:
   16d4c:	01255783          	lhu	a5,18(a0)
   16d50:	7115                	addi	sp,sp,-224
   16d52:	e9a2                	sd	s0,208(sp)
   16d54:	fff7c793          	not	a5,a5
   16d58:	e5a6                	sd	s1,200(sp)
   16d5a:	e1ca                	sd	s2,192(sp)
   16d5c:	fd4e                	sd	s3,184(sp)
   16d5e:	ed86                	sd	ra,216(sp)
   16d60:	f952                	sd	s4,176(sp)
   16d62:	f556                	sd	s5,168(sp)
   16d64:	f15a                	sd	s6,160(sp)
   16d66:	ed5e                	sd	s7,152(sp)
   16d68:	e962                	sd	s8,144(sp)
   16d6a:	e566                	sd	s9,136(sp)
   16d6c:	e16a                	sd	s10,128(sp)
   16d6e:	fcee                	sd	s11,120(sp)
   16d70:	03179713          	slli	a4,a5,0x31
   16d74:	892a                	mv	s2,a0
   16d76:	89ae                	mv	s3,a1
   16d78:	8432                	mv	s0,a2
   16d7a:	84b6                	mv	s1,a3
   16d7c:	e709                	bnez	a4,16d86 <ediv+0x3a>
   16d7e:	ba8ff0ef          	jal	ra,16126 <eisnan.part.0>
   16d82:	2a051463          	bnez	a0,1702a <ediv+0x2de>
   16d86:	0129d783          	lhu	a5,18(s3)
   16d8a:	fff7c793          	not	a5,a5
   16d8e:	03179713          	slli	a4,a5,0x31
   16d92:	c72d                	beqz	a4,16dfc <ediv+0xb0>
   16d94:	00008597          	auipc	a1,0x8
   16d98:	9a458593          	addi	a1,a1,-1628 # 1e738 <ezero>
   16d9c:	854a                	mv	a0,s2
   16d9e:	cb0ff0ef          	jal	ra,1624e <ecmp>
   16da2:	cd55                	beqz	a0,16e5e <ediv+0x112>
   16da4:	01295a03          	lhu	s4,18(s2)
   16da8:	0129d703          	lhu	a4,18(s3)
   16dac:	67a1                	lui	a5,0x8
   16dae:	17fd                	addi	a5,a5,-1
   16db0:	0147fa33          	and	s4,a5,s4
   16db4:	00e7fab3          	and	s5,a5,a4
   16db8:	06fa1163          	bne	s4,a5,16e1a <ediv+0xce>
   16dbc:	854a                	mv	a0,s2
   16dbe:	d58ff0ef          	jal	ra,16316 <eisinf.part.0>
   16dc2:	c171                	beqz	a0,16e86 <ediv+0x13a>
   16dc4:	014a9663          	bne	s5,s4,16dd0 <ediv+0x84>
   16dc8:	854e                	mv	a0,s3
   16dca:	d4cff0ef          	jal	ra,16316 <eisinf.part.0>
   16dce:	e145                	bnez	a0,16e6e <ediv+0x122>
   16dd0:	01440793          	addi	a5,s0,20
   16dd4:	0409                	addi	s0,s0,2
   16dd6:	fe041f23          	sh	zero,-2(s0)
   16dda:	fef41de3          	bne	s0,a5,16dd4 <ediv+0x88>
   16dde:	60ee                	ld	ra,216(sp)
   16de0:	644e                	ld	s0,208(sp)
   16de2:	64ae                	ld	s1,200(sp)
   16de4:	690e                	ld	s2,192(sp)
   16de6:	79ea                	ld	s3,184(sp)
   16de8:	7a4a                	ld	s4,176(sp)
   16dea:	7aaa                	ld	s5,168(sp)
   16dec:	7b0a                	ld	s6,160(sp)
   16dee:	6bea                	ld	s7,152(sp)
   16df0:	6c4a                	ld	s8,144(sp)
   16df2:	6caa                	ld	s9,136(sp)
   16df4:	6d0a                	ld	s10,128(sp)
   16df6:	7de6                	ld	s11,120(sp)
   16df8:	612d                	addi	sp,sp,224
   16dfa:	8082                	ret
   16dfc:	854e                	mv	a0,s3
   16dfe:	b28ff0ef          	jal	ra,16126 <eisnan.part.0>
   16e02:	d949                	beqz	a0,16d94 <ediv+0x48>
   16e04:	01498713          	addi	a4,s3,20
   16e08:	0009d783          	lhu	a5,0(s3)
   16e0c:	0989                	addi	s3,s3,2
   16e0e:	0409                	addi	s0,s0,2
   16e10:	fef41f23          	sh	a5,-2(s0)
   16e14:	fee99ae3          	bne	s3,a4,16e08 <ediv+0xbc>
   16e18:	b7d9                	j	16dde <ediv+0x92>
   16e1a:	06fa8863          	beq	s5,a5,16e8a <ediv+0x13e>
   16e1e:	854a                	mv	a0,s2
   16e20:	080c                	addi	a1,sp,16
   16e22:	b76ff0ef          	jal	ra,16198 <emovi>
   16e26:	180c                	addi	a1,sp,48
   16e28:	854e                	mv	a0,s3
   16e2a:	b6eff0ef          	jal	ra,16198 <emovi>
   16e2e:	03215b83          	lhu	s7,50(sp)
   16e32:	01215903          	lhu	s2,18(sp)
   16e36:	080b9c63          	bnez	s7,16ece <ediv+0x182>
   16e3a:	185c                	addi	a5,sp,52
   16e3c:	04810d93          	addi	s11,sp,72
   16e40:	28fd8563          	beq	s11,a5,170ca <ediv+0x37e>
   16e44:	0007d703          	lhu	a4,0(a5) # 8000 <register_fini-0x80e8>
   16e48:	0789                	addi	a5,a5,2
   16e4a:	db7d                	beqz	a4,16e40 <ediv+0xf4>
   16e4c:	1808                	addi	a0,sp,48
   16e4e:	e5cff0ef          	jal	ra,164aa <enormlz>
   16e52:	40a007b3          	neg	a5,a0
   16e56:	01215603          	lhu	a2,18(sp)
   16e5a:	e43e                	sd	a5,8(sp)
   16e5c:	a89d                	j	16ed2 <ediv+0x186>
   16e5e:	00008597          	auipc	a1,0x8
   16e62:	8da58593          	addi	a1,a1,-1830 # 1e738 <ezero>
   16e66:	854e                	mv	a0,s3
   16e68:	be6ff0ef          	jal	ra,1624e <ecmp>
   16e6c:	fd05                	bnez	a0,16da4 <ediv+0x58>
   16e6e:	01040713          	addi	a4,s0,16
   16e72:	87a2                	mv	a5,s0
   16e74:	0789                	addi	a5,a5,2
   16e76:	fe079f23          	sh	zero,-2(a5)
   16e7a:	fee79de3          	bne	a5,a4,16e74 <ediv+0x128>
   16e7e:	7fffc7b7          	lui	a5,0x7fffc
   16e82:	c81c                	sw	a5,16(s0)
   16e84:	bfa9                	j	16dde <ediv+0x92>
   16e86:	f94a9ce3          	bne	s5,s4,16e1e <ediv+0xd2>
   16e8a:	854e                	mv	a0,s3
   16e8c:	c8aff0ef          	jal	ra,16316 <eisinf.part.0>
   16e90:	d559                	beqz	a0,16e1e <ediv+0xd2>
   16e92:	854a                	mv	a0,s2
   16e94:	adaff0ef          	jal	ra,1616e <eisneg>
   16e98:	84aa                	mv	s1,a0
   16e9a:	854e                	mv	a0,s3
   16e9c:	ad2ff0ef          	jal	ra,1616e <eisneg>
   16ea0:	40a487b3          	sub	a5,s1,a0
   16ea4:	00f037b3          	snez	a5,a5
   16ea8:	07be                	slli	a5,a5,0xf
   16eaa:	00f41923          	sh	a5,18(s0)
   16eae:	01240713          	addi	a4,s0,18
   16eb2:	87a2                	mv	a5,s0
   16eb4:	0789                	addi	a5,a5,2
   16eb6:	fe079f23          	sh	zero,-2(a5) # 7fffbffe <__BSS_END__+0x7fee52ce>
   16eba:	fee79de3          	bne	a5,a4,16eb4 <ediv+0x168>
   16ebe:	01245783          	lhu	a5,18(s0)
   16ec2:	6721                	lui	a4,0x8
   16ec4:	177d                	addi	a4,a4,-1
   16ec6:	8fd9                	or	a5,a5,a4
   16ec8:	00f41923          	sh	a5,18(s0)
   16ecc:	bf09                	j	16dde <ediv+0x92>
   16ece:	e45e                	sd	s7,8(sp)
   16ed0:	864a                	mv	a2,s2
   16ed2:	e04a                	sd	s2,0(sp)
   16ed4:	085c                	addi	a5,sp,20
   16ed6:	1034                	addi	a3,sp,40
   16ed8:	ee09                	bnez	a2,16ef2 <ediv+0x1a6>
   16eda:	20f68063          	beq	a3,a5,170da <ediv+0x38e>
   16ede:	0007d703          	lhu	a4,0(a5)
   16ee2:	0789                	addi	a5,a5,2
   16ee4:	db7d                	beqz	a4,16eda <ediv+0x18e>
   16ee6:	0808                	addi	a0,sp,16
   16ee8:	dc2ff0ef          	jal	ra,164aa <enormlz>
   16eec:	40a907b3          	sub	a5,s2,a0
   16ef0:	e03e                	sd	a5,0(sp)
   16ef2:	5742                	lw	a4,48(sp)
   16ef4:	03848d13          	addi	s10,s1,56
   16ef8:	87ea                	mv	a5,s10
   16efa:	d8d8                	sw	a4,52(s1)
   16efc:	04e48913          	addi	s2,s1,78
   16f00:	0789                	addi	a5,a5,2
   16f02:	fe079f23          	sh	zero,-2(a5)
   16f06:	fef91de3          	bne	s2,a5,16f00 <ediv+0x1b4>
   16f0a:	1808                	addi	a0,sp,48
   16f0c:	900ff0ef          	jal	ra,1600c <eshdn1>
   16f10:	01615c03          	lhu	s8,22(sp)
   16f14:	6a41                	lui	s4,0x10
   16f16:	04810d93          	addi	s11,sp,72
   16f1a:	010c1a93          	slli	s5,s8,0x10
   16f1e:	418a8ab3          	sub	s5,s5,s8
   16f22:	03210b13          	addi	s6,sp,50
   16f26:	1a7d                	addi	s4,s4,-1
   16f28:	06a10c93          	addi	s9,sp,106
   16f2c:	05210993          	addi	s3,sp,82
   16f30:	03415783          	lhu	a5,52(sp)
   16f34:	03615703          	lhu	a4,54(sp)
   16f38:	8bd2                	mv	s7,s4
   16f3a:	07c2                	slli	a5,a5,0x10
   16f3c:	97ba                	add	a5,a5,a4
   16f3e:	00fae863          	bltu	s5,a5,16f4e <ediv+0x202>
   16f42:	0387d7b3          	divu	a5,a5,s8
   16f46:	03079b93          	slli	s7,a5,0x30
   16f4a:	030bdb93          	srli	s7,s7,0x30
   16f4e:	0890                	addi	a2,sp,80
   16f50:	080c                	addi	a1,sp,16
   16f52:	855e                	mv	a0,s7
   16f54:	95eff0ef          	jal	ra,160b2 <m16m>
   16f58:	1858                	addi	a4,sp,52
   16f5a:	08dc                	addi	a5,sp,84
   16f5c:	0007d583          	lhu	a1,0(a5)
   16f60:	00075603          	lhu	a2,0(a4) # 8000 <register_fini-0x80e8>
   16f64:	0789                	addi	a5,a5,2
   16f66:	0709                	addi	a4,a4,2
   16f68:	0cc59c63          	bne	a1,a2,17040 <ediv+0x2f4>
   16f6c:	ff9798e3          	bne	a5,s9,16f5c <ediv+0x210>
   16f70:	4781                	li	a5,0
   16f72:	10ac                	addi	a1,sp,104
   16f74:	866e                	mv	a2,s11
   16f76:	00065703          	lhu	a4,0(a2)
   16f7a:	0005d803          	lhu	a6,0(a1)
   16f7e:	1679                	addi	a2,a2,-2
   16f80:	8f1d                	sub	a4,a4,a5
   16f82:	41070733          	sub	a4,a4,a6
   16f86:	01075793          	srli	a5,a4,0x10
   16f8a:	00e61123          	sh	a4,2(a2)
   16f8e:	8b85                	andi	a5,a5,1
   16f90:	15f9                	addi	a1,a1,-2
   16f92:	ff6612e3          	bne	a2,s6,16f76 <ediv+0x22a>
   16f96:	017d1023          	sh	s7,0(s10)
   16f9a:	185c                	addi	a5,sp,52
   16f9c:	0027d703          	lhu	a4,2(a5)
   16fa0:	0789                	addi	a5,a5,2
   16fa2:	fee79f23          	sh	a4,-2(a5)
   16fa6:	ffb79be3          	bne	a5,s11,16f9c <ediv+0x250>
   16faa:	04011423          	sh	zero,72(sp)
   16fae:	0d09                	addi	s10,s10,2
   16fb0:	f9a910e3          	bne	s2,s10,16f30 <ediv+0x1e4>
   16fb4:	4581                	li	a1,0
   16fb6:	185c                	addi	a5,sp,52
   16fb8:	04a10693          	addi	a3,sp,74
   16fbc:	0007d703          	lhu	a4,0(a5)
   16fc0:	0789                	addi	a5,a5,2
   16fc2:	8dd9                	or	a1,a1,a4
   16fc4:	fed79ce3          	bne	a5,a3,16fbc <ediv+0x270>
   16fc8:	0105979b          	slliw	a5,a1,0x10
   16fcc:	4107d79b          	sraiw	a5,a5,0x10
   16fd0:	c391                	beqz	a5,16fd4 <ediv+0x288>
   16fd2:	4585                	li	a1,1
   16fd4:	15c2                	slli	a1,a1,0x30
   16fd6:	91c1                	srli	a1,a1,0x30
   16fd8:	03448713          	addi	a4,s1,52
   16fdc:	181c                	addi	a5,sp,48
   16fde:	00075603          	lhu	a2,0(a4)
   16fe2:	0789                	addi	a5,a5,2
   16fe4:	0709                	addi	a4,a4,2
   16fe6:	fec79f23          	sh	a2,-2(a5)
   16fea:	fef69ae3          	bne	a3,a5,16fde <ediv+0x292>
   16fee:	67a2                	ld	a5,8(sp)
   16ff0:	6702                	ld	a4,0(sp)
   16ff2:	6691                	lui	a3,0x4
   16ff4:	16fd                	addi	a3,a3,-1
   16ff6:	40e78bb3          	sub	s7,a5,a4
   16ffa:	1808                	addi	a0,sp,48
   16ffc:	87a6                	mv	a5,s1
   16ffe:	04000713          	li	a4,64
   17002:	96de                	add	a3,a3,s7
   17004:	4601                	li	a2,0
   17006:	dc4ff0ef          	jal	ra,165ca <emdnorm>
   1700a:	03015703          	lhu	a4,48(sp)
   1700e:	01015783          	lhu	a5,16(sp)
   17012:	85a2                	mv	a1,s0
   17014:	1808                	addi	a0,sp,48
   17016:	8f99                	sub	a5,a5,a4
   17018:	00f037b3          	snez	a5,a5
   1701c:	40f007bb          	negw	a5,a5
   17020:	02f11823          	sh	a5,48(sp)
   17024:	9a1ff0ef          	jal	ra,169c4 <emovo.isra.0>
   17028:	bb5d                	j	16dde <ediv+0x92>
   1702a:	01490713          	addi	a4,s2,20
   1702e:	00095783          	lhu	a5,0(s2)
   17032:	0909                	addi	s2,s2,2
   17034:	0409                	addi	s0,s0,2
   17036:	fef41f23          	sh	a5,-2(s0)
   1703a:	fee91ae3          	bne	s2,a4,1702e <ediv+0x2e2>
   1703e:	b345                	j	16dde <ediv+0x92>
   17040:	f2b678e3          	bgeu	a2,a1,16f70 <ediv+0x224>
   17044:	fffb879b          	addiw	a5,s7,-1
   17048:	03079893          	slli	a7,a5,0x30
   1704c:	0308d893          	srli	a7,a7,0x30
   17050:	4781                	li	a5,0
   17052:	102c                	addi	a1,sp,40
   17054:	10b0                	addi	a2,sp,104
   17056:	00065703          	lhu	a4,0(a2)
   1705a:	0005d803          	lhu	a6,0(a1)
   1705e:	1679                	addi	a2,a2,-2
   17060:	8f1d                	sub	a4,a4,a5
   17062:	41070733          	sub	a4,a4,a6
   17066:	01075793          	srli	a5,a4,0x10
   1706a:	00e61123          	sh	a4,2(a2)
   1706e:	8b85                	andi	a5,a5,1
   17070:	15f9                	addi	a1,a1,-2
   17072:	ff3612e3          	bne	a2,s3,17056 <ediv+0x30a>
   17076:	1858                	addi	a4,sp,52
   17078:	08dc                	addi	a5,sp,84
   1707a:	0007d583          	lhu	a1,0(a5)
   1707e:	00075603          	lhu	a2,0(a4)
   17082:	0789                	addi	a5,a5,2
   17084:	0709                	addi	a4,a4,2
   17086:	00c59663          	bne	a1,a2,17092 <ediv+0x346>
   1708a:	ff9798e3          	bne	a5,s9,1707a <ediv+0x32e>
   1708e:	8bc6                	mv	s7,a7
   17090:	b5c5                	j	16f70 <ediv+0x224>
   17092:	feb67ee3          	bgeu	a2,a1,1708e <ediv+0x342>
   17096:	ffeb879b          	addiw	a5,s7,-2
   1709a:	03079b93          	slli	s7,a5,0x30
   1709e:	030bdb93          	srli	s7,s7,0x30
   170a2:	4601                	li	a2,0
   170a4:	102c                	addi	a1,sp,40
   170a6:	10b8                	addi	a4,sp,104
   170a8:	00075783          	lhu	a5,0(a4)
   170ac:	0005d803          	lhu	a6,0(a1)
   170b0:	1779                	addi	a4,a4,-2
   170b2:	8f91                	sub	a5,a5,a2
   170b4:	410787b3          	sub	a5,a5,a6
   170b8:	0107d613          	srli	a2,a5,0x10
   170bc:	00f71123          	sh	a5,2(a4)
   170c0:	8a05                	andi	a2,a2,1
   170c2:	15f9                	addi	a1,a1,-2
   170c4:	ff3712e3          	bne	a4,s3,170a8 <ediv+0x35c>
   170c8:	b565                	j	16f70 <ediv+0x224>
   170ca:	01440793          	addi	a5,s0,20
   170ce:	0409                	addi	s0,s0,2
   170d0:	fe041f23          	sh	zero,-2(s0)
   170d4:	fe879de3          	bne	a5,s0,170ce <ediv+0x382>
   170d8:	b319                	j	16dde <ediv+0x92>
   170da:	01015703          	lhu	a4,16(sp)
   170de:	03015783          	lhu	a5,48(sp)
   170e2:	00f70363          	beq	a4,a5,170e8 <ediv+0x39c>
   170e6:	6621                	lui	a2,0x8
   170e8:	00c41923          	sh	a2,18(s0)
   170ec:	01240713          	addi	a4,s0,18
   170f0:	87a2                	mv	a5,s0
   170f2:	0789                	addi	a5,a5,2
   170f4:	fe079f23          	sh	zero,-2(a5)
   170f8:	fef71de3          	bne	a4,a5,170f2 <ediv+0x3a6>
   170fc:	01245783          	lhu	a5,18(s0)
   17100:	6721                	lui	a4,0x8
   17102:	177d                	addi	a4,a4,-1
   17104:	8fd9                	or	a5,a5,a4
   17106:	00f41923          	sh	a5,18(s0)
   1710a:	b9d1                	j	16dde <ediv+0x92>

000000000001710c <e113toe.isra.0>:
   1710c:	7179                	addi	sp,sp,-48
   1710e:	f022                	sd	s0,32(sp)
   17110:	f406                	sd	ra,40(sp)
   17112:	842e                	mv	s0,a1
   17114:	878a                	mv	a5,sp
   17116:	01a10713          	addi	a4,sp,26
   1711a:	0789                	addi	a5,a5,2
   1711c:	fe079f23          	sh	zero,-2(a5)
   17120:	fee79de3          	bne	a5,a4,1711a <e113toe.isra.0+0xe>
   17124:	00e55783          	lhu	a5,14(a0)
   17128:	0107971b          	slliw	a4,a5,0x10
   1712c:	4107571b          	sraiw	a4,a4,0x10
   17130:	02071693          	slli	a3,a4,0x20
   17134:	0406cc63          	bltz	a3,1718c <e113toe.isra.0+0x80>
   17138:	6721                	lui	a4,0x8
   1713a:	177d                	addi	a4,a4,-1
   1713c:	00e7f6b3          	and	a3,a5,a4
   17140:	00011023          	sh	zero,0(sp)
   17144:	8636                	mv	a2,a3
   17146:	04e68d63          	beq	a3,a4,171a0 <e113toe.isra.0+0x94>
   1714a:	00e50793          	addi	a5,a0,14
   1714e:	00d11123          	sh	a3,2(sp)
   17152:	00610713          	addi	a4,sp,6
   17156:	ffe7d683          	lhu	a3,-2(a5)
   1715a:	17f9                	addi	a5,a5,-2
   1715c:	0709                	addi	a4,a4,2
   1715e:	fed71f23          	sh	a3,-2(a4) # 7ffe <register_fini-0x80ea>
   17162:	fef51ae3          	bne	a0,a5,17156 <e113toe.isra.0+0x4a>
   17166:	ea19                	bnez	a2,1717c <e113toe.isra.0+0x70>
   17168:	00011223          	sh	zero,4(sp)
   1716c:	85a2                	mv	a1,s0
   1716e:	850a                	mv	a0,sp
   17170:	855ff0ef          	jal	ra,169c4 <emovo.isra.0>
   17174:	70a2                	ld	ra,40(sp)
   17176:	7402                	ld	s0,32(sp)
   17178:	6145                	addi	sp,sp,48
   1717a:	8082                	ret
   1717c:	4785                	li	a5,1
   1717e:	55fd                	li	a1,-1
   17180:	850a                	mv	a0,sp
   17182:	00f11223          	sh	a5,4(sp)
   17186:	9a2ff0ef          	jal	ra,16328 <eshift.part.0>
   1718a:	b7cd                	j	1716c <e113toe.isra.0+0x60>
   1718c:	577d                	li	a4,-1
   1718e:	00e11023          	sh	a4,0(sp)
   17192:	6721                	lui	a4,0x8
   17194:	177d                	addi	a4,a4,-1
   17196:	00e7f6b3          	and	a3,a5,a4
   1719a:	8636                	mv	a2,a3
   1719c:	fae697e3          	bne	a3,a4,1714a <e113toe.isra.0+0x3e>
   171a0:	87aa                	mv	a5,a0
   171a2:	00e50693          	addi	a3,a0,14
   171a6:	0007d703          	lhu	a4,0(a5)
   171aa:	0789                	addi	a5,a5,2
   171ac:	e331                	bnez	a4,171f0 <e113toe.isra.0+0xe4>
   171ae:	fed79ce3          	bne	a5,a3,171a6 <e113toe.isra.0+0x9a>
   171b2:	01440713          	addi	a4,s0,20
   171b6:	87a2                	mv	a5,s0
   171b8:	0789                	addi	a5,a5,2
   171ba:	fe079f23          	sh	zero,-2(a5)
   171be:	fef71de3          	bne	a4,a5,171b8 <e113toe.isra.0+0xac>
   171c2:	01240713          	addi	a4,s0,18
   171c6:	87a2                	mv	a5,s0
   171c8:	0789                	addi	a5,a5,2
   171ca:	fe079f23          	sh	zero,-2(a5)
   171ce:	fef71de3          	bne	a4,a5,171c8 <e113toe.isra.0+0xbc>
   171d2:	01245783          	lhu	a5,18(s0)
   171d6:	6721                	lui	a4,0x8
   171d8:	177d                	addi	a4,a4,-1
   171da:	8fd9                	or	a5,a5,a4
   171dc:	00f41923          	sh	a5,18(s0)
   171e0:	00e51783          	lh	a5,14(a0)
   171e4:	f807d8e3          	bgez	a5,17174 <e113toe.isra.0+0x68>
   171e8:	8522                	mv	a0,s0
   171ea:	f55fe0ef          	jal	ra,1613e <eneg>
   171ee:	b759                	j	17174 <e113toe.isra.0+0x68>
   171f0:	01040713          	addi	a4,s0,16
   171f4:	87a2                	mv	a5,s0
   171f6:	0789                	addi	a5,a5,2
   171f8:	fe079f23          	sh	zero,-2(a5)
   171fc:	fef71de3          	bne	a4,a5,171f6 <e113toe.isra.0+0xea>
   17200:	7fffc7b7          	lui	a5,0x7fffc
   17204:	c81c                	sw	a5,16(s0)
   17206:	b7bd                	j	17174 <e113toe.isra.0+0x68>

0000000000017208 <_ldtoa_r>:
   17208:	09100313          	li	t1,145
   1720c:	1302                	slli	t1,t1,0x20
   1720e:	06053e03          	ld	t3,96(a0)
   17212:	da010113          	addi	sp,sp,-608
   17216:	137d                	addi	t1,t1,-1
   17218:	24813823          	sd	s0,592(sp)
   1721c:	23513423          	sd	s5,552(sp)
   17220:	21713c23          	sd	s7,536(sp)
   17224:	24113c23          	sd	ra,600(sp)
   17228:	24913423          	sd	s1,584(sp)
   1722c:	25213023          	sd	s2,576(sp)
   17230:	23313c23          	sd	s3,568(sp)
   17234:	23413823          	sd	s4,560(sp)
   17238:	23613023          	sd	s6,544(sp)
   1723c:	21813823          	sd	s8,528(sp)
   17240:	21913423          	sd	s9,520(sp)
   17244:	21a13023          	sd	s10,512(sp)
   17248:	ffee                	sd	s11,504(sp)
   1724a:	e8ae                	sd	a1,80(sp)
   1724c:	ecb2                	sd	a2,88(sp)
   1724e:	f31a                	sd	t1,416(sp)
   17250:	e83a                	sd	a4,16(sp)
   17252:	ec3e                	sd	a5,24(sp)
   17254:	f846                	sd	a7,48(sp)
   17256:	8aaa                	mv	s5,a0
   17258:	8bb6                	mv	s7,a3
   1725a:	8442                	mv	s0,a6
   1725c:	000e0f63          	beqz	t3,1727a <_ldtoa_r+0x72>
   17260:	5538                	lw	a4,104(a0)
   17262:	4785                	li	a5,1
   17264:	85f2                	mv	a1,t3
   17266:	00e797bb          	sllw	a5,a5,a4
   1726a:	00ee2423          	sw	a4,8(t3) # 10008 <register_fini-0xe0>
   1726e:	00fe2623          	sw	a5,12(t3)
   17272:	308010ef          	jal	ra,1857a <_Bfree>
   17276:	060ab023          	sd	zero,96(s5)
   1727a:	010c                	addi	a1,sp,128
   1727c:	0888                	addi	a0,sp,80
   1727e:	e8fff0ef          	jal	ra,1710c <e113toe.isra.0>
   17282:	0108                	addi	a0,sp,128
   17284:	eebfe0ef          	jal	ra,1616e <eisneg>
   17288:	00a03533          	snez	a0,a0
   1728c:	c008                	sw	a0,0(s0)
   1728e:	478d                	li	a5,3
   17290:	76fb8063          	beq	s7,a5,179f0 <_ldtoa_r+0x7e8>
   17294:	47d1                	li	a5,20
   17296:	e43e                	sd	a5,8(sp)
   17298:	2e0b9ce3          	bnez	s7,17d90 <_ldtoa_r+0xb88>
   1729c:	09215783          	lhu	a5,146(sp)
   172a0:	1a412703          	lw	a4,420(sp)
   172a4:	fff7c793          	not	a5,a5
   172a8:	f43a                	sd	a4,40(sp)
   172aa:	03179713          	slli	a4,a5,0x31
   172ae:	e711                	bnez	a4,172ba <_ldtoa_r+0xb2>
   172b0:	0108                	addi	a0,sp,128
   172b2:	e75fe0ef          	jal	ra,16126 <eisnan.part.0>
   172b6:	180512e3          	bnez	a0,17c3a <_ldtoa_r+0xa32>
   172ba:	09000793          	li	a5,144
   172be:	1af12223          	sw	a5,420(sp)
   172c2:	1118                	addi	a4,sp,160
   172c4:	011c                	addi	a5,sp,128
   172c6:	0950                	addi	a2,sp,148
   172c8:	0007d683          	lhu	a3,0(a5) # 7fffc000 <__BSS_END__+0x7fee52d0>
   172cc:	0789                	addi	a5,a5,2
   172ce:	0709                	addi	a4,a4,2
   172d0:	fed71f23          	sh	a3,-2(a4) # 7ffe <register_fini-0x80ea>
   172d4:	fec79ae3          	bne	a5,a2,172c8 <_ldtoa_r+0xc0>
   172d8:	0b215603          	lhu	a2,178(sp)
   172dc:	f002                	sd	zero,32(sp)
   172de:	0106179b          	slliw	a5,a2,0x10
   172e2:	4107d79b          	sraiw	a5,a5,0x10
   172e6:	02079713          	slli	a4,a5,0x20
   172ea:	00075963          	bgez	a4,172fc <_ldtoa_r+0xf4>
   172ee:	1646                	slli	a2,a2,0x31
   172f0:	67c1                	lui	a5,0x10
   172f2:	9245                	srli	a2,a2,0x31
   172f4:	17fd                	addi	a5,a5,-1
   172f6:	0ac11923          	sh	a2,178(sp)
   172fa:	f03e                	sd	a5,32(sp)
   172fc:	4681                	li	a3,0
   172fe:	019c                	addi	a5,sp,192
   17300:	00007717          	auipc	a4,0x7
   17304:	45070713          	addi	a4,a4,1104 # 1e750 <eone>
   17308:	0d410d93          	addi	s11,sp,212
   1730c:	a019                	j	17312 <_ldtoa_r+0x10a>
   1730e:	00075683          	lhu	a3,0(a4)
   17312:	0789                	addi	a5,a5,2
   17314:	fed79f23          	sh	a3,-2(a5) # fffe <register_fini-0xea>
   17318:	0709                	addi	a4,a4,2
   1731a:	ffb79ae3          	bne	a5,s11,1730e <_ldtoa_r+0x106>
   1731e:	12060063          	beqz	a2,1743e <_ldtoa_r+0x236>
   17322:	67a1                	lui	a5,0x8
   17324:	17fd                	addi	a5,a5,-1
   17326:	28f607e3          	beq	a2,a5,17db4 <_ldtoa_r+0xbac>
   1732a:	0b011783          	lh	a5,176(sp)
   1732e:	2c07d0e3          	bgez	a5,17dee <_ldtoa_r+0xbe6>
   17332:	110c                	addi	a1,sp,160
   17334:	00007517          	auipc	a0,0x7
   17338:	41c50513          	addi	a0,a0,1052 # 1e750 <eone>
   1733c:	f13fe0ef          	jal	ra,1624e <ecmp>
   17340:	10050963          	beqz	a0,17452 <_ldtoa_r+0x24a>
   17344:	70054663          	bltz	a0,17a50 <_ldtoa_r+0x848>
   17348:	0b215783          	lhu	a5,178(sp)
   1734c:	320797e3          	bnez	a5,17e7a <_ldtoa_r+0xc72>
   17350:	0b011783          	lh	a5,176(sp)
   17354:	4481                	li	s1,0
   17356:	1a010993          	addi	s3,sp,416
   1735a:	0207c163          	bltz	a5,1737c <_ldtoa_r+0x174>
   1735e:	00007417          	auipc	s0,0x7
   17362:	4fa40413          	addi	s0,s0,1274 # 1e858 <etens+0xf0>
   17366:	1110                	addi	a2,sp,160
   17368:	86ce                	mv	a3,s3
   1736a:	85b2                	mv	a1,a2
   1736c:	8522                	mv	a0,s0
   1736e:	ed8ff0ef          	jal	ra,16a46 <emul>
   17372:	0b011783          	lh	a5,176(sp)
   17376:	34fd                	addiw	s1,s1,-1
   17378:	fe07d7e3          	bgez	a5,17366 <_ldtoa_r+0x15e>
   1737c:	0200                	addi	s0,sp,256
   1737e:	11810a13          	addi	s4,sp,280
   17382:	8722                	mv	a4,s0
   17384:	111c                	addi	a5,sp,160
   17386:	1950                	addi	a2,sp,180
   17388:	0007d683          	lhu	a3,0(a5) # 8000 <register_fini-0x80e8>
   1738c:	0789                	addi	a5,a5,2
   1738e:	0709                	addi	a4,a4,2
   17390:	fed71f23          	sh	a3,-2(a4)
   17394:	fec79ae3          	bne	a5,a2,17388 <_ldtoa_r+0x180>
   17398:	4681                	li	a3,0
   1739a:	019c                	addi	a5,sp,192
   1739c:	00007717          	auipc	a4,0x7
   173a0:	3b470713          	addi	a4,a4,948 # 1e750 <eone>
   173a4:	a019                	j	173aa <_ldtoa_r+0x1a2>
   173a6:	00075683          	lhu	a3,0(a4)
   173aa:	0789                	addi	a5,a5,2
   173ac:	fed79f23          	sh	a3,-2(a5)
   173b0:	0709                	addi	a4,a4,2
   173b2:	ffb79ae3          	bne	a5,s11,173a6 <_ldtoa_r+0x19e>
   173b6:	7b7d                	lui	s6,0xfffff
   173b8:	00007917          	auipc	s2,0x7
   173bc:	3b090913          	addi	s2,s2,944 # 1e768 <etens>
   173c0:	00007d97          	auipc	s11,0x7
   173c4:	4b0d8d93          	addi	s11,s11,1200 # 1e870 <emtens>
   173c8:	00007c97          	auipc	s9,0x7
   173cc:	388c8c93          	addi	s9,s9,904 # 1e750 <eone>
   173d0:	00007c17          	auipc	s8,0x7
   173d4:	488c0c13          	addi	s8,s8,1160 # 1e858 <etens+0xf0>
   173d8:	a019                	j	173de <_ldtoa_r+0x1d6>
   173da:	0dd1                	addi	s11,s11,20
   173dc:	0951                	addi	s2,s2,20
   173de:	85a2                	mv	a1,s0
   173e0:	8566                	mv	a0,s9
   173e2:	e6dfe0ef          	jal	ra,1624e <ecmp>
   173e6:	87aa                	mv	a5,a0
   173e8:	85a2                	mv	a1,s0
   173ea:	856e                	mv	a0,s11
   173ec:	02f05d63          	blez	a5,17426 <_ldtoa_r+0x21e>
   173f0:	e5ffe0ef          	jal	ra,1624e <ecmp>
   173f4:	87aa                	mv	a5,a0
   173f6:	86ce                	mv	a3,s3
   173f8:	8622                	mv	a2,s0
   173fa:	85a2                	mv	a1,s0
   173fc:	854a                	mv	a0,s2
   173fe:	0007cc63          	bltz	a5,17416 <_ldtoa_r+0x20e>
   17402:	e44ff0ef          	jal	ra,16a46 <emul>
   17406:	0190                	addi	a2,sp,192
   17408:	86ce                	mv	a3,s3
   1740a:	85b2                	mv	a1,a2
   1740c:	854a                	mv	a0,s2
   1740e:	e38ff0ef          	jal	ra,16a46 <emul>
   17412:	009b04bb          	addw	s1,s6,s1
   17416:	01fb579b          	srliw	a5,s6,0x1f
   1741a:	01678b3b          	addw	s6,a5,s6
   1741e:	401b5b1b          	sraiw	s6,s6,0x1
   17422:	fb891ce3          	bne	s2,s8,173da <_ldtoa_r+0x1d2>
   17426:	0190                	addi	a2,sp,192
   17428:	86ce                	mv	a3,s3
   1742a:	00007597          	auipc	a1,0x7
   1742e:	32658593          	addi	a1,a1,806 # 1e750 <eone>
   17432:	8532                	mv	a0,a2
   17434:	919ff0ef          	jal	ra,16d4c <ediv>
   17438:	16010913          	addi	s2,sp,352
   1743c:	a01d                	j	17462 <_ldtoa_r+0x25a>
   1743e:	111c                	addi	a5,sp,160
   17440:	0b210693          	addi	a3,sp,178
   17444:	0007d703          	lhu	a4,0(a5)
   17448:	0789                	addi	a5,a5,2
   1744a:	ee0714e3          	bnez	a4,17332 <_ldtoa_r+0x12a>
   1744e:	fef69be3          	bne	a3,a5,17444 <_ldtoa_r+0x23c>
   17452:	4481                	li	s1,0
   17454:	16010913          	addi	s2,sp,352
   17458:	1a010993          	addi	s3,sp,416
   1745c:	0200                	addi	s0,sp,256
   1745e:	11810a13          	addi	s4,sp,280
   17462:	85a2                	mv	a1,s0
   17464:	0188                	addi	a0,sp,192
   17466:	d33fe0ef          	jal	ra,16198 <emovi>
   1746a:	0198                	addi	a4,sp,192
   1746c:	87a2                	mv	a5,s0
   1746e:	0007d683          	lhu	a3,0(a5)
   17472:	0789                	addi	a5,a5,2
   17474:	0709                	addi	a4,a4,2
   17476:	fed71f23          	sh	a3,-2(a4)
   1747a:	ff479ae3          	bne	a5,s4,1746e <_ldtoa_r+0x266>
   1747e:	85a2                	mv	a1,s0
   17480:	1108                	addi	a0,sp,160
   17482:	0c011c23          	sh	zero,216(sp)
   17486:	d13fe0ef          	jal	ra,16198 <emovi>
   1748a:	111c                	addi	a5,sp,160
   1748c:	00045703          	lhu	a4,0(s0)
   17490:	0409                	addi	s0,s0,2
   17492:	0789                	addi	a5,a5,2
   17494:	fee79f23          	sh	a4,-2(a5)
   17498:	ff441ae3          	bne	s0,s4,1748c <_ldtoa_r+0x284>
   1749c:	864e                	mv	a2,s3
   1749e:	110c                	addi	a1,sp,160
   174a0:	0188                	addi	a0,sp,192
   174a2:	0a011c23          	sh	zero,184(sp)
   174a6:	c2aff0ef          	jal	ra,168d0 <eiremain>
   174aa:	1ec15d83          	lhu	s11,492(sp)
   174ae:	160d9963          	bnez	s11,17620 <_ldtoa_r+0x418>
   174b2:	00007b17          	auipc	s6,0x7
   174b6:	286b0b13          	addi	s6,s6,646 # 1e738 <ezero>
   174ba:	0b810c13          	addi	s8,sp,184
   174be:	0a210413          	addi	s0,sp,162
   174c2:	0e210a13          	addi	s4,sp,226
   174c6:	85da                	mv	a1,s6
   174c8:	1108                	addi	a0,sp,160
   174ca:	d85fe0ef          	jal	ra,1624e <ecmp>
   174ce:	14050963          	beqz	a0,17620 <_ldtoa_r+0x418>
   174d2:	4701                	li	a4,0
   174d4:	8662                	mv	a2,s8
   174d6:	a811                	j	174ea <_ldtoa_r+0x2e2>
   174d8:	0017171b          	slliw	a4,a4,0x1
   174dc:	00f61023          	sh	a5,0(a2) # 8000 <register_fini-0x80e8>
   174e0:	1742                	slli	a4,a4,0x30
   174e2:	1679                	addi	a2,a2,-2
   174e4:	9341                	srli	a4,a4,0x30
   174e6:	04860063          	beq	a2,s0,17526 <_ldtoa_r+0x31e>
   174ea:	00065783          	lhu	a5,0(a2)
   174ee:	0107959b          	slliw	a1,a5,0x10
   174f2:	4105d59b          	sraiw	a1,a1,0x10
   174f6:	02059693          	slli	a3,a1,0x20
   174fa:	0017979b          	slliw	a5,a5,0x1
   174fe:	0006d463          	bgez	a3,17506 <_ldtoa_r+0x2fe>
   17502:	00176713          	ori	a4,a4,1
   17506:	17c2                	slli	a5,a5,0x30
   17508:	93c1                	srli	a5,a5,0x30
   1750a:	00277593          	andi	a1,a4,2
   1750e:	0017e513          	ori	a0,a5,1
   17512:	d1f9                	beqz	a1,174d8 <_ldtoa_r+0x2d0>
   17514:	0017171b          	slliw	a4,a4,0x1
   17518:	00a61023          	sh	a0,0(a2)
   1751c:	1742                	slli	a4,a4,0x30
   1751e:	1679                	addi	a2,a2,-2
   17520:	9341                	srli	a4,a4,0x30
   17522:	fc8614e3          	bne	a2,s0,174ea <_ldtoa_r+0x2e2>
   17526:	1198                	addi	a4,sp,224
   17528:	111c                	addi	a5,sp,160
   1752a:	0007d603          	lhu	a2,0(a5)
   1752e:	0789                	addi	a5,a5,2
   17530:	0709                	addi	a4,a4,2
   17532:	fec71f23          	sh	a2,-2(a4)
   17536:	ff879ae3          	bne	a5,s8,1752a <_ldtoa_r+0x322>
   1753a:	0e011c23          	sh	zero,248(sp)
   1753e:	4701                	li	a4,0
   17540:	19b0                	addi	a2,sp,248
   17542:	a811                	j	17556 <_ldtoa_r+0x34e>
   17544:	0017171b          	slliw	a4,a4,0x1
   17548:	00f61023          	sh	a5,0(a2)
   1754c:	1742                	slli	a4,a4,0x30
   1754e:	1679                	addi	a2,a2,-2
   17550:	9341                	srli	a4,a4,0x30
   17552:	05460063          	beq	a2,s4,17592 <_ldtoa_r+0x38a>
   17556:	00065783          	lhu	a5,0(a2)
   1755a:	0107959b          	slliw	a1,a5,0x10
   1755e:	4105d59b          	sraiw	a1,a1,0x10
   17562:	02059693          	slli	a3,a1,0x20
   17566:	0017979b          	slliw	a5,a5,0x1
   1756a:	0006d463          	bgez	a3,17572 <_ldtoa_r+0x36a>
   1756e:	00176713          	ori	a4,a4,1
   17572:	17c2                	slli	a5,a5,0x30
   17574:	93c1                	srli	a5,a5,0x30
   17576:	00277593          	andi	a1,a4,2
   1757a:	0017e513          	ori	a0,a5,1
   1757e:	d1f9                	beqz	a1,17544 <_ldtoa_r+0x33c>
   17580:	0017171b          	slliw	a4,a4,0x1
   17584:	00a61023          	sh	a0,0(a2)
   17588:	1742                	slli	a4,a4,0x30
   1758a:	1679                	addi	a2,a2,-2
   1758c:	9341                	srli	a4,a4,0x30
   1758e:	fd4614e3          	bne	a2,s4,17556 <_ldtoa_r+0x34e>
   17592:	4701                	li	a4,0
   17594:	19b0                	addi	a2,sp,248
   17596:	a811                	j	175aa <_ldtoa_r+0x3a2>
   17598:	0017171b          	slliw	a4,a4,0x1
   1759c:	00f61023          	sh	a5,0(a2)
   175a0:	1742                	slli	a4,a4,0x30
   175a2:	1679                	addi	a2,a2,-2
   175a4:	9341                	srli	a4,a4,0x30
   175a6:	05460063          	beq	a2,s4,175e6 <_ldtoa_r+0x3de>
   175aa:	00065783          	lhu	a5,0(a2)
   175ae:	0107959b          	slliw	a1,a5,0x10
   175b2:	4105d59b          	sraiw	a1,a1,0x10
   175b6:	02059693          	slli	a3,a1,0x20
   175ba:	0017979b          	slliw	a5,a5,0x1
   175be:	0006d463          	bgez	a3,175c6 <_ldtoa_r+0x3be>
   175c2:	00176713          	ori	a4,a4,1
   175c6:	17c2                	slli	a5,a5,0x30
   175c8:	93c1                	srli	a5,a5,0x30
   175ca:	00277593          	andi	a1,a4,2
   175ce:	0017e513          	ori	a0,a5,1
   175d2:	d1f9                	beqz	a1,17598 <_ldtoa_r+0x390>
   175d4:	0017171b          	slliw	a4,a4,0x1
   175d8:	00a61023          	sh	a0,0(a2)
   175dc:	1742                	slli	a4,a4,0x30
   175de:	1679                	addi	a2,a2,-2
   175e0:	9341                	srli	a4,a4,0x30
   175e2:	fd4614e3          	bne	a2,s4,175aa <_ldtoa_r+0x3a2>
   175e6:	4581                	li	a1,0
   175e8:	8662                	mv	a2,s8
   175ea:	19b8                	addi	a4,sp,248
   175ec:	00065503          	lhu	a0,0(a2)
   175f0:	00075783          	lhu	a5,0(a4)
   175f4:	1679                	addi	a2,a2,-2
   175f6:	1779                	addi	a4,a4,-2
   175f8:	97aa                	add	a5,a5,a0
   175fa:	97ae                	add	a5,a5,a1
   175fc:	0107d593          	srli	a1,a5,0x10
   17600:	00f61123          	sh	a5,2(a2)
   17604:	8985                	andi	a1,a1,1
   17606:	ff4713e3          	bne	a4,s4,175ec <_ldtoa_r+0x3e4>
   1760a:	864e                	mv	a2,s3
   1760c:	110c                	addi	a1,sp,160
   1760e:	0188                	addi	a0,sp,192
   17610:	ac0ff0ef          	jal	ra,168d0 <eiremain>
   17614:	1ec15783          	lhu	a5,492(sp)
   17618:	34fd                	addiw	s1,s1,-1
   1761a:	ea0786e3          	beqz	a5,174c6 <_ldtoa_r+0x2be>
   1761e:	8dbe                	mv	s11,a5
   17620:	7702                	ld	a4,32(sp)
   17622:	02d00793          	li	a5,45
   17626:	e319                	bnez	a4,1762c <_ldtoa_r+0x424>
   17628:	02000793          	li	a5,32
   1762c:	16f10023          	sb	a5,352(sp)
   17630:	470d                	li	a4,3
   17632:	67a2                	ld	a5,8(sp)
   17634:	00eb9363          	bne	s7,a4,1763a <_ldtoa_r+0x432>
   17638:	9fa5                	addw	a5,a5,s1
   1763a:	02a00713          	li	a4,42
   1763e:	0007841b          	sext.w	s0,a5
   17642:	00f75463          	bge	a4,a5,1764a <_ldtoa_r+0x442>
   17646:	02a00413          	li	s0,42
   1764a:	4729                	li	a4,10
   1764c:	3ced8f63          	beq	s11,a4,17a2a <_ldtoa_r+0x822>
   17650:	030d8d9b          	addiw	s11,s11,48
   17654:	02e00713          	li	a4,46
   17658:	17b100a3          	sb	s11,353(sp)
   1765c:	16e10123          	sb	a4,354(sp)
   17660:	7a07c463          	bltz	a5,17e08 <_ldtoa_r+0xc00>
   17664:	16310d93          	addi	s11,sp,355
   17668:	4c01                	li	s8,0
   1766a:	0e010b13          	addi	s6,sp,224
   1766e:	0b810a13          	addi	s4,sp,184
   17672:	0a210c93          	addi	s9,sp,162
   17676:	0e210d13          	addi	s10,sp,226
   1767a:	4601                	li	a2,0
   1767c:	85d2                	mv	a1,s4
   1767e:	a811                	j	17692 <_ldtoa_r+0x48a>
   17680:	0016161b          	slliw	a2,a2,0x1
   17684:	00f59023          	sh	a5,0(a1)
   17688:	1642                	slli	a2,a2,0x30
   1768a:	15f9                	addi	a1,a1,-2
   1768c:	9241                	srli	a2,a2,0x30
   1768e:	05958063          	beq	a1,s9,176ce <_ldtoa_r+0x4c6>
   17692:	0005d783          	lhu	a5,0(a1)
   17696:	0107951b          	slliw	a0,a5,0x10
   1769a:	4105551b          	sraiw	a0,a0,0x10
   1769e:	02051713          	slli	a4,a0,0x20
   176a2:	0017979b          	slliw	a5,a5,0x1
   176a6:	00075463          	bgez	a4,176ae <_ldtoa_r+0x4a6>
   176aa:	00166613          	ori	a2,a2,1
   176ae:	17c2                	slli	a5,a5,0x30
   176b0:	93c1                	srli	a5,a5,0x30
   176b2:	00267513          	andi	a0,a2,2
   176b6:	0017e313          	ori	t1,a5,1
   176ba:	d179                	beqz	a0,17680 <_ldtoa_r+0x478>
   176bc:	0016161b          	slliw	a2,a2,0x1
   176c0:	00659023          	sh	t1,0(a1)
   176c4:	1642                	slli	a2,a2,0x30
   176c6:	15f9                	addi	a1,a1,-2
   176c8:	9241                	srli	a2,a2,0x30
   176ca:	fd9594e3          	bne	a1,s9,17692 <_ldtoa_r+0x48a>
   176ce:	865a                	mv	a2,s6
   176d0:	111c                	addi	a5,sp,160
   176d2:	0007d583          	lhu	a1,0(a5)
   176d6:	0789                	addi	a5,a5,2
   176d8:	0609                	addi	a2,a2,2
   176da:	feb61f23          	sh	a1,-2(a2)
   176de:	ff479ae3          	bne	a5,s4,176d2 <_ldtoa_r+0x4ca>
   176e2:	0e011c23          	sh	zero,248(sp)
   176e6:	4601                	li	a2,0
   176e8:	19ac                	addi	a1,sp,248
   176ea:	a811                	j	176fe <_ldtoa_r+0x4f6>
   176ec:	0016161b          	slliw	a2,a2,0x1
   176f0:	00f59023          	sh	a5,0(a1)
   176f4:	1642                	slli	a2,a2,0x30
   176f6:	15f9                	addi	a1,a1,-2
   176f8:	9241                	srli	a2,a2,0x30
   176fa:	05a58063          	beq	a1,s10,1773a <_ldtoa_r+0x532>
   176fe:	0005d783          	lhu	a5,0(a1)
   17702:	0107951b          	slliw	a0,a5,0x10
   17706:	4105551b          	sraiw	a0,a0,0x10
   1770a:	02051713          	slli	a4,a0,0x20
   1770e:	0017979b          	slliw	a5,a5,0x1
   17712:	00075463          	bgez	a4,1771a <_ldtoa_r+0x512>
   17716:	00166613          	ori	a2,a2,1
   1771a:	17c2                	slli	a5,a5,0x30
   1771c:	93c1                	srli	a5,a5,0x30
   1771e:	00267513          	andi	a0,a2,2
   17722:	0017e313          	ori	t1,a5,1
   17726:	d179                	beqz	a0,176ec <_ldtoa_r+0x4e4>
   17728:	0016161b          	slliw	a2,a2,0x1
   1772c:	00659023          	sh	t1,0(a1)
   17730:	1642                	slli	a2,a2,0x30
   17732:	15f9                	addi	a1,a1,-2
   17734:	9241                	srli	a2,a2,0x30
   17736:	fda594e3          	bne	a1,s10,176fe <_ldtoa_r+0x4f6>
   1773a:	4601                	li	a2,0
   1773c:	19ac                	addi	a1,sp,248
   1773e:	a811                	j	17752 <_ldtoa_r+0x54a>
   17740:	0016161b          	slliw	a2,a2,0x1
   17744:	00f59023          	sh	a5,0(a1)
   17748:	1642                	slli	a2,a2,0x30
   1774a:	15f9                	addi	a1,a1,-2
   1774c:	9241                	srli	a2,a2,0x30
   1774e:	05a58063          	beq	a1,s10,1778e <_ldtoa_r+0x586>
   17752:	0005d783          	lhu	a5,0(a1)
   17756:	0107951b          	slliw	a0,a5,0x10
   1775a:	4105551b          	sraiw	a0,a0,0x10
   1775e:	02051713          	slli	a4,a0,0x20
   17762:	0017979b          	slliw	a5,a5,0x1
   17766:	00075463          	bgez	a4,1776e <_ldtoa_r+0x566>
   1776a:	00166613          	ori	a2,a2,1
   1776e:	17c2                	slli	a5,a5,0x30
   17770:	93c1                	srli	a5,a5,0x30
   17772:	00267513          	andi	a0,a2,2
   17776:	0017e313          	ori	t1,a5,1
   1777a:	d179                	beqz	a0,17740 <_ldtoa_r+0x538>
   1777c:	0016161b          	slliw	a2,a2,0x1
   17780:	00659023          	sh	t1,0(a1)
   17784:	1642                	slli	a2,a2,0x30
   17786:	15f9                	addi	a1,a1,-2
   17788:	9241                	srli	a2,a2,0x30
   1778a:	fda594e3          	bne	a1,s10,17752 <_ldtoa_r+0x54a>
   1778e:	4501                	li	a0,0
   17790:	85d2                	mv	a1,s4
   17792:	19b0                	addi	a2,sp,248
   17794:	0005d303          	lhu	t1,0(a1)
   17798:	00065783          	lhu	a5,0(a2)
   1779c:	15f9                	addi	a1,a1,-2
   1779e:	1679                	addi	a2,a2,-2
   177a0:	979a                	add	a5,a5,t1
   177a2:	97aa                	add	a5,a5,a0
   177a4:	0107d513          	srli	a0,a5,0x10
   177a8:	00f59123          	sh	a5,2(a1)
   177ac:	8905                	andi	a0,a0,1
   177ae:	ffa613e3          	bne	a2,s10,17794 <_ldtoa_r+0x58c>
   177b2:	864e                	mv	a2,s3
   177b4:	110c                	addi	a1,sp,160
   177b6:	0188                	addi	a0,sp,192
   177b8:	918ff0ef          	jal	ra,168d0 <eiremain>
   177bc:	1ec15783          	lhu	a5,492(sp)
   177c0:	018d8633          	add	a2,s11,s8
   177c4:	0c05                	addi	s8,s8,1
   177c6:	0307859b          	addiw	a1,a5,48
   177ca:	00b60023          	sb	a1,0(a2)
   177ce:	000c061b          	sext.w	a2,s8
   177d2:	eac454e3          	bge	s0,a2,1767a <_ldtoa_r+0x472>
   177d6:	fff44513          	not	a0,s0
   177da:	957d                	srai	a0,a0,0x3f
   177dc:	8d61                	and	a0,a0,s0
   177de:	2501                	sext.w	a0,a0
   177e0:	00150993          	addi	s3,a0,1
   177e4:	99ee                	add	s3,s3,s11
   177e6:	9daa                	add	s11,s11,a0
   177e8:	4711                	li	a4,4
   177ea:	04f75c63          	bge	a4,a5,17842 <_ldtoa_r+0x63a>
   177ee:	4715                	li	a4,5
   177f0:	62e78e63          	beq	a5,a4,17e2c <_ldtoa_r+0xc24>
   177f4:	ffe9c783          	lbu	a5,-2(s3)
   177f8:	ffe98713          	addi	a4,s3,-2
   177fc:	07f7f693          	andi	a3,a5,127
   17800:	87b6                	mv	a5,a3
   17802:	5c044c63          	bltz	s0,17dda <_ldtoa_r+0xbd2>
   17806:	02e00613          	li	a2,46
   1780a:	03800593          	li	a1,56
   1780e:	03000513          	li	a0,48
   17812:	00c68d63          	beq	a3,a2,1782c <_ldtoa_r+0x624>
   17816:	5cf5d863          	bge	a1,a5,17de6 <_ldtoa_r+0xbde>
   1781a:	fff74783          	lbu	a5,-1(a4)
   1781e:	00a70023          	sb	a0,0(a4)
   17822:	177d                	addi	a4,a4,-1
   17824:	07f7f693          	andi	a3,a5,127
   17828:	87b6                	mv	a5,a3
   1782a:	b7e5                	j	17812 <_ldtoa_r+0x60a>
   1782c:	fff74783          	lbu	a5,-1(a4)
   17830:	03800693          	li	a3,56
   17834:	62f6ff63          	bgeu	a3,a5,17e72 <_ldtoa_r+0xc6a>
   17838:	03100793          	li	a5,49
   1783c:	2485                	addiw	s1,s1,1
   1783e:	fef70fa3          	sb	a5,-1(a4)
   17842:	8626                	mv	a2,s1
   17844:	00007597          	auipc	a1,0x7
   17848:	eec58593          	addi	a1,a1,-276 # 1e730 <zeroes.4521+0x78>
   1784c:	856e                	mv	a0,s11
   1784e:	0da020ef          	jal	ra,19928 <sprintf>
   17852:	09215783          	lhu	a5,146(sp)
   17856:	7722                	ld	a4,40(sp)
   17858:	1a912823          	sw	s1,432(sp)
   1785c:	fff7c793          	not	a5,a5
   17860:	1ae12223          	sw	a4,420(sp)
   17864:	03179713          	slli	a4,a5,0x31
   17868:	eb19                	bnez	a4,1787e <_ldtoa_r+0x676>
   1786a:	0108                	addi	a0,sp,128
   1786c:	aabfe0ef          	jal	ra,16316 <eisinf.part.0>
   17870:	1a051763          	bnez	a0,17a1e <_ldtoa_r+0x816>
   17874:	0108                	addi	a0,sp,128
   17876:	8b1fe0ef          	jal	ra,16126 <eisnan.part.0>
   1787a:	1a051263          	bnez	a0,17a1e <_ldtoa_r+0x816>
   1787e:	66e2                	ld	a3,24(sp)
   17880:	16014703          	lbu	a4,352(sp)
   17884:	0014879b          	addiw	a5,s1,1
   17888:	c29c                	sw	a5,0(a3)
   1788a:	87ca                	mv	a5,s2
   1788c:	c70d                	beqz	a4,178b6 <_ldtoa_r+0x6ae>
   1788e:	02e00693          	li	a3,46
   17892:	16d70b63          	beq	a4,a3,17a08 <_ldtoa_r+0x800>
   17896:	0017c703          	lbu	a4,1(a5)
   1789a:	0785                	addi	a5,a5,1
   1789c:	fb7d                	bnez	a4,17892 <_ldtoa_r+0x68a>
   1789e:	04500693          	li	a3,69
   178a2:	00f96563          	bltu	s2,a5,178ac <_ldtoa_r+0x6a4>
   178a6:	a801                	j	178b6 <_ldtoa_r+0x6ae>
   178a8:	01278763          	beq	a5,s2,178b6 <_ldtoa_r+0x6ae>
   178ac:	fff7c703          	lbu	a4,-1(a5)
   178b0:	17fd                	addi	a5,a5,-1
   178b2:	fed71be3          	bne	a4,a3,178a8 <_ldtoa_r+0x6a0>
   178b6:	00078023          	sb	zero,0(a5)
   178ba:	87ca                	mv	a5,s2
   178bc:	02000693          	li	a3,32
   178c0:	02d00613          	li	a2,45
   178c4:	0007c703          	lbu	a4,0(a5)
   178c8:	00d70463          	beq	a4,a3,178d0 <_ldtoa_r+0x6c8>
   178cc:	00c71463          	bne	a4,a2,178d4 <_ldtoa_r+0x6cc>
   178d0:	0785                	addi	a5,a5,1
   178d2:	bfcd                	j	178c4 <_ldtoa_r+0x6bc>
   178d4:	844a                	mv	s0,s2
   178d6:	a021                	j	178de <_ldtoa_r+0x6d6>
   178d8:	0007c703          	lbu	a4,0(a5)
   178dc:	8436                	mv	s0,a3
   178de:	00e40023          	sb	a4,0(s0)
   178e2:	00140693          	addi	a3,s0,1
   178e6:	0785                	addi	a5,a5,1
   178e8:	fb65                	bnez	a4,178d8 <_ldtoa_r+0x6d0>
   178ea:	4789                	li	a5,2
   178ec:	fff44703          	lbu	a4,-1(s0)
   178f0:	0efb8663          	beq	s7,a5,179dc <_ldtoa_r+0x7d4>
   178f4:	67a2                	ld	a5,8(sp)
   178f6:	0007869b          	sext.w	a3,a5
   178fa:	0097d463          	bge	a5,s1,17902 <_ldtoa_r+0x6fa>
   178fe:	0004869b          	sext.w	a3,s1
   17902:	03000793          	li	a5,48
   17906:	02f71463          	bne	a4,a5,1792e <_ldtoa_r+0x726>
   1790a:	412407b3          	sub	a5,s0,s2
   1790e:	02f6d063          	bge	a3,a5,1792e <_ldtoa_r+0x726>
   17912:	03000613          	li	a2,48
   17916:	a019                	j	1791c <_ldtoa_r+0x714>
   17918:	00e6db63          	bge	a3,a4,1792e <_ldtoa_r+0x726>
   1791c:	ffe44783          	lbu	a5,-2(s0)
   17920:	fe040fa3          	sb	zero,-1(s0)
   17924:	147d                	addi	s0,s0,-1
   17926:	41240733          	sub	a4,s0,s2
   1792a:	fec787e3          	beq	a5,a2,17918 <_ldtoa_r+0x710>
   1792e:	478d                	li	a5,3
   17930:	08fb8363          	beq	s7,a5,179b6 <_ldtoa_r+0x7ae>
   17934:	67c2                	ld	a5,16(sp)
   17936:	060aa423          	sw	zero,104(s5)
   1793a:	00978a1b          	addiw	s4,a5,9
   1793e:	47fd                	li	a5,31
   17940:	0947fc63          	bgeu	a5,s4,179d8 <_ldtoa_r+0x7d0>
   17944:	4685                	li	a3,1
   17946:	4791                	li	a5,4
   17948:	0017979b          	slliw	a5,a5,0x1
   1794c:	01c78613          	addi	a2,a5,28
   17950:	0006859b          	sext.w	a1,a3
   17954:	2685                	addiw	a3,a3,1
   17956:	feca79e3          	bgeu	s4,a2,17948 <_ldtoa_r+0x740>
   1795a:	06baa423          	sw	a1,104(s5)
   1795e:	8556                	mv	a0,s5
   17960:	3b7000ef          	jal	ra,18516 <_Balloc>
   17964:	06aab023          	sd	a0,96(s5)
   17968:	85ca                	mv	a1,s2
   1796a:	84aa                	mv	s1,a0
   1796c:	1ca020ef          	jal	ra,19b36 <strcpy>
   17970:	77c2                	ld	a5,48(sp)
   17972:	c789                	beqz	a5,1797c <_ldtoa_r+0x774>
   17974:	41240433          	sub	s0,s0,s2
   17978:	9426                	add	s0,s0,s1
   1797a:	e380                	sd	s0,0(a5)
   1797c:	25813083          	ld	ra,600(sp)
   17980:	25013403          	ld	s0,592(sp)
   17984:	24013903          	ld	s2,576(sp)
   17988:	23813983          	ld	s3,568(sp)
   1798c:	23013a03          	ld	s4,560(sp)
   17990:	22813a83          	ld	s5,552(sp)
   17994:	22013b03          	ld	s6,544(sp)
   17998:	21813b83          	ld	s7,536(sp)
   1799c:	21013c03          	ld	s8,528(sp)
   179a0:	20813c83          	ld	s9,520(sp)
   179a4:	20013d03          	ld	s10,512(sp)
   179a8:	7dfe                	ld	s11,504(sp)
   179aa:	8526                	mv	a0,s1
   179ac:	24813483          	ld	s1,584(sp)
   179b0:	26010113          	addi	sp,sp,608
   179b4:	8082                	ret
   179b6:	67a2                	ld	a5,8(sp)
   179b8:	9cbd                	addw	s1,s1,a5
   179ba:	3c04ce63          	bltz	s1,17d96 <_ldtoa_r+0xb8e>
   179be:	67e2                	ld	a5,24(sp)
   179c0:	6742                	ld	a4,16(sp)
   179c2:	439c                	lw	a5,0(a5)
   179c4:	9fb9                	addw	a5,a5,a4
   179c6:	e83e                	sd	a5,16(sp)
   179c8:	67c2                	ld	a5,16(sp)
   179ca:	060aa423          	sw	zero,104(s5)
   179ce:	00378a1b          	addiw	s4,a5,3
   179d2:	47fd                	li	a5,31
   179d4:	f747e8e3          	bltu	a5,s4,17944 <_ldtoa_r+0x73c>
   179d8:	4581                	li	a1,0
   179da:	b751                	j	1795e <_ldtoa_r+0x756>
   179dc:	03000793          	li	a5,48
   179e0:	f4f71ae3          	bne	a4,a5,17934 <_ldtoa_r+0x72c>
   179e4:	412407b3          	sub	a5,s0,s2
   179e8:	4685                	li	a3,1
   179ea:	f2f6c4e3          	blt	a3,a5,17912 <_ldtoa_r+0x70a>
   179ee:	b799                	j	17934 <_ldtoa_r+0x72c>
   179f0:	67c2                	ld	a5,16(sp)
   179f2:	02a00713          	li	a4,42
   179f6:	8c3e                	mv	s8,a5
   179f8:	00f75463          	bge	a4,a5,17a00 <_ldtoa_r+0x7f8>
   179fc:	02a00c13          	li	s8,42
   17a00:	000c079b          	sext.w	a5,s8
   17a04:	e43e                	sd	a5,8(sp)
   17a06:	b859                	j	1729c <_ldtoa_r+0x94>
   17a08:	0007c703          	lbu	a4,0(a5)
   17a0c:	e80709e3          	beqz	a4,1789e <_ldtoa_r+0x696>
   17a10:	0017c703          	lbu	a4,1(a5)
   17a14:	0785                	addi	a5,a5,1
   17a16:	fee78fa3          	sb	a4,-1(a5)
   17a1a:	fb7d                	bnez	a4,17a10 <_ldtoa_r+0x808>
   17a1c:	b549                	j	1789e <_ldtoa_r+0x696>
   17a1e:	6762                	ld	a4,24(sp)
   17a20:	6789                	lui	a5,0x2
   17a22:	70f78793          	addi	a5,a5,1807 # 270f <register_fini-0xd9d9>
   17a26:	c31c                	sw	a5,0(a4)
   17a28:	bd49                	j	178ba <_ldtoa_r+0x6b2>
   17a2a:	03100713          	li	a4,49
   17a2e:	16e100a3          	sb	a4,353(sp)
   17a32:	02e00713          	li	a4,46
   17a36:	16e10123          	sb	a4,354(sp)
   17a3a:	2485                	addiw	s1,s1,1
   17a3c:	20f05c63          	blez	a5,17c54 <_ldtoa_r+0xa4c>
   17a40:	03000793          	li	a5,48
   17a44:	16f101a3          	sb	a5,355(sp)
   17a48:	347d                	addiw	s0,s0,-1
   17a4a:	16410d93          	addi	s11,sp,356
   17a4e:	b929                	j	17668 <_ldtoa_r+0x460>
   17a50:	0e010b13          	addi	s6,sp,224
   17a54:	875a                	mv	a4,s6
   17a56:	111c                	addi	a5,sp,160
   17a58:	1950                	addi	a2,sp,180
   17a5a:	0007d683          	lhu	a3,0(a5)
   17a5e:	0789                	addi	a5,a5,2
   17a60:	0709                	addi	a4,a4,2
   17a62:	fed71f23          	sh	a3,-2(a4)
   17a66:	fec79ae3          	bne	a5,a2,17a5a <_ldtoa_r+0x852>
   17a6a:	6791                	lui	a5,0x4
   17a6c:	08e78793          	addi	a5,a5,142 # 408e <register_fini-0xc05a>
   17a70:	0ef11923          	sh	a5,242(sp)
   17a74:	67a1                	lui	a5,0x8
   17a76:	17fd                	addi	a5,a5,-1
   17a78:	fc3e                	sd	a5,56(sp)
   17a7a:	77f1                	lui	a5,0xffffc
   17a7c:	2789                	addiw	a5,a5,2
   17a7e:	4a41                	li	s4,16
   17a80:	4481                	li	s1,0
   17a82:	00007d17          	auipc	s10,0x7
   17a86:	d86d0d13          	addi	s10,s10,-634 # 1e808 <etens+0xa0>
   17a8a:	16010913          	addi	s2,sp,352
   17a8e:	1a010993          	addi	s3,sp,416
   17a92:	0200                	addi	s0,sp,256
   17a94:	0d210c13          	addi	s8,sp,210
   17a98:	c2be                	sw	a5,68(sp)
   17a9a:	07a10c93          	addi	s9,sp,122
   17a9e:	86ce                	mv	a3,s3
   17aa0:	0190                	addi	a2,sp,192
   17aa2:	85da                	mv	a1,s6
   17aa4:	856a                	mv	a0,s10
   17aa6:	aa6ff0ef          	jal	ra,16d4c <ediv>
   17aaa:	10b8                	addi	a4,sp,104
   17aac:	019c                	addi	a5,sp,192
   17aae:	0007d683          	lhu	a3,0(a5) # ffffffffffffc000 <__BSS_END__+0xffffffffffee52d0>
   17ab2:	0789                	addi	a5,a5,2
   17ab4:	0709                	addi	a4,a4,2
   17ab6:	fed71f23          	sh	a3,-2(a4)
   17aba:	ffb79ae3          	bne	a5,s11,17aae <_ldtoa_r+0x8a6>
   17abe:	77e2                	ld	a5,56(sp)
   17ac0:	07a15503          	lhu	a0,122(sp)
   17ac4:	00f57eb3          	and	t4,a0,a5
   17ac8:	4796                	lw	a5,68(sp)
   17aca:	00fe87bb          	addw	a5,t4,a5
   17ace:	8ebe                	mv	t4,a5
   17ad0:	2cf05a63          	blez	a5,17da4 <_ldtoa_r+0xb9c>
   17ad4:	09000593          	li	a1,144
   17ad8:	40f58f3b          	subw	t5,a1,a5
   17adc:	85fa                	mv	a1,t5
   17ade:	8722                	mv	a4,s0
   17ae0:	10bc                	addi	a5,sp,104
   17ae2:	18f0                	addi	a2,sp,124
   17ae4:	0007d683          	lhu	a3,0(a5)
   17ae8:	0789                	addi	a5,a5,2
   17aea:	0709                	addi	a4,a4,2
   17aec:	fed71f23          	sh	a3,-2(a4)
   17af0:	fec79ae3          	bne	a5,a2,17ae4 <_ldtoa_r+0x8dc>
   17af4:	07e05263          	blez	t5,17b58 <_ldtoa_r+0x950>
   17af8:	47bd                	li	a5,15
   17afa:	8722                	mv	a4,s0
   17afc:	03e7d863          	bge	a5,t5,17b2c <_ldtoa_r+0x924>
   17b00:	35c1                	addiw	a1,a1,-16
   17b02:	0045d71b          	srliw	a4,a1,0x4
   17b06:	0705                	addi	a4,a4,1
   17b08:	0706                	slli	a4,a4,0x1
   17b0a:	0045d59b          	srliw	a1,a1,0x4
   17b0e:	9722                	add	a4,a4,s0
   17b10:	87a2                	mv	a5,s0
   17b12:	0789                	addi	a5,a5,2
   17b14:	fe079f23          	sh	zero,-2(a5)
   17b18:	fef71de3          	bne	a4,a5,17b12 <_ldtoa_r+0x90a>
   17b1c:	08000f13          	li	t5,128
   17b20:	41df0ebb          	subw	t4,t5,t4
   17b24:	0045959b          	slliw	a1,a1,0x4
   17b28:	40be8f3b          	subw	t5,t4,a1
   17b2c:	001f1593          	slli	a1,t5,0x1
   17b30:	00007f17          	auipc	t5,0x7
   17b34:	c08f0f13          	addi	t5,t5,-1016 # 1e738 <ezero>
   17b38:	95fa                	add	a1,a1,t5
   17b3a:	00075783          	lhu	a5,0(a4)
   17b3e:	2405d683          	lhu	a3,576(a1)
   17b42:	8ff5                	and	a5,a5,a3
   17b44:	00f71023          	sh	a5,0(a4)
   17b48:	0105151b          	slliw	a0,a0,0x10
   17b4c:	4105551b          	sraiw	a0,a0,0x10
   17b50:	02051793          	slli	a5,a0,0x20
   17b54:	1007c563          	bltz	a5,17c5e <_ldtoa_r+0xa56>
   17b58:	019c                	addi	a5,sp,192
   17b5a:	8722                	mv	a4,s0
   17b5c:	0007d603          	lhu	a2,0(a5)
   17b60:	00075683          	lhu	a3,0(a4)
   17b64:	0789                	addi	a5,a5,2
   17b66:	0709                	addi	a4,a4,2
   17b68:	02d61063          	bne	a2,a3,17b88 <_ldtoa_r+0x980>
   17b6c:	fefc18e3          	bne	s8,a5,17b5c <_ldtoa_r+0x954>
   17b70:	875a                	mv	a4,s6
   17b72:	019c                	addi	a5,sp,192
   17b74:	0007d683          	lhu	a3,0(a5)
   17b78:	0789                	addi	a5,a5,2
   17b7a:	0709                	addi	a4,a4,2
   17b7c:	fed71f23          	sh	a3,-2(a4)
   17b80:	ffb79ae3          	bne	a5,s11,17b74 <_ldtoa_r+0x96c>
   17b84:	009a04bb          	addw	s1,s4,s1
   17b88:	0d51                	addi	s10,s10,20
   17b8a:	00007797          	auipc	a5,0x7
   17b8e:	ce278793          	addi	a5,a5,-798 # 1e86c <etens+0x104>
   17b92:	001a5a13          	srli	s4,s4,0x1
   17b96:	f0fd14e3          	bne	s10,a5,17a9e <_ldtoa_r+0x896>
   17b9a:	0f215783          	lhu	a5,242(sp)
   17b9e:	0b215703          	lhu	a4,178(sp)
   17ba2:	19d0                	addi	a2,sp,244
   17ba4:	9fb9                	addw	a5,a5,a4
   17ba6:	7771                	lui	a4,0xffffc
   17ba8:	f727071b          	addiw	a4,a4,-142
   17bac:	9fb9                	addw	a5,a5,a4
   17bae:	0ef11923          	sh	a5,242(sp)
   17bb2:	1118                	addi	a4,sp,160
   17bb4:	87da                	mv	a5,s6
   17bb6:	0007d683          	lhu	a3,0(a5)
   17bba:	0789                	addi	a5,a5,2
   17bbc:	0709                	addi	a4,a4,2
   17bbe:	fed71f23          	sh	a3,-2(a4) # ffffffffffffbffe <__BSS_END__+0xffffffffffee52ce>
   17bc2:	fec79ae3          	bne	a5,a2,17bb6 <_ldtoa_r+0x9ae>
   17bc6:	4681                	li	a3,0
   17bc8:	019c                	addi	a5,sp,192
   17bca:	00007717          	auipc	a4,0x7
   17bce:	b8670713          	addi	a4,a4,-1146 # 1e750 <eone>
   17bd2:	a019                	j	17bd8 <_ldtoa_r+0x9d0>
   17bd4:	00075683          	lhu	a3,0(a4)
   17bd8:	0789                	addi	a5,a5,2
   17bda:	fed79f23          	sh	a3,-2(a5)
   17bde:	0709                	addi	a4,a4,2
   17be0:	ffb79ae3          	bne	a5,s11,17bd4 <_ldtoa_r+0x9cc>
   17be4:	6c05                	lui	s8,0x1
   17be6:	00007a17          	auipc	s4,0x7
   17bea:	b82a0a13          	addi	s4,s4,-1150 # 1e768 <etens>
   17bee:	00007d97          	auipc	s11,0x7
   17bf2:	c6ad8d93          	addi	s11,s11,-918 # 1e858 <etens+0xf0>
   17bf6:	a031                	j	17c02 <_ldtoa_r+0x9fa>
   17bf8:	001c5c13          	srli	s8,s8,0x1
   17bfc:	1dba0b63          	beq	s4,s11,17dd2 <_ldtoa_r+0xbca>
   17c00:	0a51                	addi	s4,s4,20
   17c02:	85da                	mv	a1,s6
   17c04:	856e                	mv	a0,s11
   17c06:	e48fe0ef          	jal	ra,1624e <ecmp>
   17c0a:	872a                	mv	a4,a0
   17c0c:	85da                	mv	a1,s6
   17c0e:	8552                	mv	a0,s4
   17c10:	1ce04163          	bgtz	a4,17dd2 <_ldtoa_r+0xbca>
   17c14:	e3afe0ef          	jal	ra,1624e <ecmp>
   17c18:	fea040e3          	bgtz	a0,17bf8 <_ldtoa_r+0x9f0>
   17c1c:	86ce                	mv	a3,s3
   17c1e:	865a                	mv	a2,s6
   17c20:	85da                	mv	a1,s6
   17c22:	8552                	mv	a0,s4
   17c24:	928ff0ef          	jal	ra,16d4c <ediv>
   17c28:	0190                	addi	a2,sp,192
   17c2a:	86ce                	mv	a3,s3
   17c2c:	85b2                	mv	a1,a2
   17c2e:	8552                	mv	a0,s4
   17c30:	e17fe0ef          	jal	ra,16a46 <emul>
   17c34:	009c04bb          	addw	s1,s8,s1
   17c38:	b7c1                	j	17bf8 <_ldtoa_r+0x9f0>
   17c3a:	16010913          	addi	s2,sp,352
   17c3e:	00007597          	auipc	a1,0x7
   17c42:	ac258593          	addi	a1,a1,-1342 # 1e700 <zeroes.4521+0x48>
   17c46:	854a                	mv	a0,s2
   17c48:	6489                	lui	s1,0x2
   17c4a:	4df010ef          	jal	ra,19928 <sprintf>
   17c4e:	70f48493          	addi	s1,s1,1807 # 270f <register_fini-0xd9d9>
   17c52:	b101                	j	17852 <_ldtoa_r+0x64a>
   17c54:	16310d93          	addi	s11,sp,355
   17c58:	be0795e3          	bnez	a5,17842 <_ldtoa_r+0x63a>
   17c5c:	b431                	j	17668 <_ldtoa_r+0x460>
   17c5e:	10bc                	addi	a5,sp,104
   17c60:	8722                	mv	a4,s0
   17c62:	a019                	j	17c68 <_ldtoa_r+0xa60>
   17c64:	eefc8ae3          	beq	s9,a5,17b58 <_ldtoa_r+0x950>
   17c68:	0007d603          	lhu	a2,0(a5)
   17c6c:	00075683          	lhu	a3,0(a4)
   17c70:	0789                	addi	a5,a5,2
   17c72:	0709                	addi	a4,a4,2
   17c74:	fed608e3          	beq	a2,a3,17c64 <_ldtoa_r+0xa5c>
   17c78:	11215783          	lhu	a5,274(sp)
   17c7c:	7762                	ld	a4,56(sp)
   17c7e:	8ff9                	and	a5,a5,a4
   17c80:	00e79c63          	bne	a5,a4,17c98 <_ldtoa_r+0xa90>
   17c84:	8522                	mv	a0,s0
   17c86:	ca0fe0ef          	jal	ra,16126 <eisnan.part.0>
   17c8a:	ec0517e3          	bnez	a0,17b58 <_ldtoa_r+0x950>
   17c8e:	8522                	mv	a0,s0
   17c90:	e86fe0ef          	jal	ra,16316 <eisinf.part.0>
   17c94:	ec0512e3          	bnez	a0,17b58 <_ldtoa_r+0x950>
   17c98:	120c                	addi	a1,sp,288
   17c9a:	00007517          	auipc	a0,0x7
   17c9e:	ab650513          	addi	a0,a0,-1354 # 1e750 <eone>
   17ca2:	cf6fe0ef          	jal	ra,16198 <emovi>
   17ca6:	028c                	addi	a1,sp,320
   17ca8:	8522                	mv	a0,s0
   17caa:	ceefe0ef          	jal	ra,16198 <emovi>
   17cae:	12015603          	lhu	a2,288(sp)
   17cb2:	14215503          	lhu	a0,322(sp)
   17cb6:	12215e83          	lhu	t4,290(sp)
   17cba:	fff64613          	not	a2,a2
   17cbe:	1642                	slli	a2,a2,0x30
   17cc0:	9241                	srli	a2,a2,0x30
   17cc2:	12c11023          	sh	a2,288(sp)
   17cc6:	40ae85b3          	sub	a1,t4,a0
   17cca:	86aa                	mv	a3,a0
   17ccc:	04b05e63          	blez	a1,17d28 <_ldtoa_r+0xb20>
   17cd0:	86ca                	mv	a3,s2
   17cd2:	0298                	addi	a4,sp,320
   17cd4:	0abc                	addi	a5,sp,344
   17cd6:	00075583          	lhu	a1,0(a4)
   17cda:	0709                	addi	a4,a4,2
   17cdc:	0689                	addi	a3,a3,2
   17cde:	feb69f23          	sh	a1,-2(a3) # 3ffe <register_fini-0xc0ea>
   17ce2:	fef71ae3          	bne	a4,a5,17cd6 <_ldtoa_r+0xace>
   17ce6:	16011c23          	sh	zero,376(sp)
   17cea:	0298                	addi	a4,sp,320
   17cec:	1214                	addi	a3,sp,288
   17cee:	a019                	j	17cf4 <_ldtoa_r+0xaec>
   17cf0:	0006d603          	lhu	a2,0(a3)
   17cf4:	0709                	addi	a4,a4,2
   17cf6:	fec71f23          	sh	a2,-2(a4)
   17cfa:	0689                	addi	a3,a3,2
   17cfc:	fef71ae3          	bne	a4,a5,17cf0 <_ldtoa_r+0xae8>
   17d00:	14011c23          	sh	zero,344(sp)
   17d04:	1218                	addi	a4,sp,288
   17d06:	87ca                	mv	a5,s2
   17d08:	1ab0                	addi	a2,sp,376
   17d0a:	0007d683          	lhu	a3,0(a5)
   17d0e:	0789                	addi	a5,a5,2
   17d10:	0709                	addi	a4,a4,2
   17d12:	fed71f23          	sh	a3,-2(a4)
   17d16:	fec79ae3          	bne	a5,a2,17d0a <_ldtoa_r+0xb02>
   17d1a:	14215683          	lhu	a3,322(sp)
   17d1e:	41d505b3          	sub	a1,a0,t4
   17d22:	12011c23          	sh	zero,312(sp)
   17d26:	8536                	mv	a0,a3
   17d28:	22058263          	beqz	a1,17f4c <_ldtoa_r+0xd44>
   17d2c:	e4b6                	sd	a3,72(sp)
   17d2e:	f6f00793          	li	a5,-145
   17d32:	04f5ca63          	blt	a1,a5,17d86 <_ldtoa_r+0xb7e>
   17d36:	2581                	sext.w	a1,a1
   17d38:	1208                	addi	a0,sp,288
   17d3a:	deefe0ef          	jal	ra,16328 <eshift.part.0>
   17d3e:	66a6                	ld	a3,72(sp)
   17d40:	85aa                	mv	a1,a0
   17d42:	0abc                	addi	a5,sp,344
   17d44:	1a28                	addi	a0,sp,312
   17d46:	12015603          	lhu	a2,288(sp)
   17d4a:	14015703          	lhu	a4,320(sp)
   17d4e:	24e60163          	beq	a2,a4,17f90 <_ldtoa_r+0xd88>
   17d52:	4601                	li	a2,0
   17d54:	0007d703          	lhu	a4,0(a5)
   17d58:	00055e83          	lhu	t4,0(a0)
   17d5c:	17f9                	addi	a5,a5,-2
   17d5e:	8f11                	sub	a4,a4,a2
   17d60:	41d70733          	sub	a4,a4,t4
   17d64:	01075613          	srli	a2,a4,0x10
   17d68:	00e79123          	sh	a4,2(a5)
   17d6c:	14210713          	addi	a4,sp,322
   17d70:	8a05                	andi	a2,a2,1
   17d72:	1579                	addi	a0,a0,-2
   17d74:	fee790e3          	bne	a5,a4,17d54 <_ldtoa_r+0xb4c>
   17d78:	4605                	li	a2,1
   17d7a:	87ce                	mv	a5,s3
   17d7c:	04000713          	li	a4,64
   17d80:	0288                	addi	a0,sp,320
   17d82:	849fe0ef          	jal	ra,165ca <emdnorm>
   17d86:	85a2                	mv	a1,s0
   17d88:	0288                	addi	a0,sp,320
   17d8a:	c3bfe0ef          	jal	ra,169c4 <emovo.isra.0>
   17d8e:	b3e9                	j	17b58 <_ldtoa_r+0x950>
   17d90:	67c2                	ld	a5,16(sp)
   17d92:	37fd                	addiw	a5,a5,-1
   17d94:	b9b9                	j	179f2 <_ldtoa_r+0x7ea>
   17d96:	67e2                	ld	a5,24(sp)
   17d98:	16010023          	sb	zero,352(sp)
   17d9c:	844a                	mv	s0,s2
   17d9e:	0007a023          	sw	zero,0(a5)
   17da2:	b11d                	j	179c8 <_ldtoa_r+0x7c0>
   17da4:	87a2                	mv	a5,s0
   17da6:	0a58                	addi	a4,sp,276
   17da8:	0789                	addi	a5,a5,2
   17daa:	fe079f23          	sh	zero,-2(a5)
   17dae:	fee79de3          	bne	a5,a4,17da8 <_ldtoa_r+0xba0>
   17db2:	bb59                	j	17b48 <_ldtoa_r+0x940>
   17db4:	7782                	ld	a5,32(sp)
   17db6:	16010913          	addi	s2,sp,352
   17dba:	cfb1                	beqz	a5,17e16 <_ldtoa_r+0xc0e>
   17dbc:	00007597          	auipc	a1,0x7
   17dc0:	94c58593          	addi	a1,a1,-1716 # 1e708 <zeroes.4521+0x50>
   17dc4:	854a                	mv	a0,s2
   17dc6:	6489                	lui	s1,0x2
   17dc8:	361010ef          	jal	ra,19928 <sprintf>
   17dcc:	70f48493          	addi	s1,s1,1807 # 270f <register_fini-0xd9d9>
   17dd0:	b449                	j	17852 <_ldtoa_r+0x64a>
   17dd2:	11810a13          	addi	s4,sp,280
   17dd6:	e8cff06f          	j	17462 <_ldtoa_r+0x25a>
   17dda:	03100793          	li	a5,49
   17dde:	fef98f23          	sb	a5,-2(s3)
   17de2:	2485                	addiw	s1,s1,1
   17de4:	bcb9                	j	17842 <_ldtoa_r+0x63a>
   17de6:	2685                	addiw	a3,a3,1
   17de8:	00d70023          	sb	a3,0(a4)
   17dec:	bc99                	j	17842 <_ldtoa_r+0x63a>
   17dee:	16010913          	addi	s2,sp,352
   17df2:	00007597          	auipc	a1,0x7
   17df6:	93658593          	addi	a1,a1,-1738 # 1e728 <zeroes.4521+0x70>
   17dfa:	854a                	mv	a0,s2
   17dfc:	6489                	lui	s1,0x2
   17dfe:	32b010ef          	jal	ra,19928 <sprintf>
   17e02:	70f48493          	addi	s1,s1,1807 # 270f <register_fini-0xd9d9>
   17e06:	b4b1                	j	17852 <_ldtoa_r+0x64a>
   17e08:	1ec15783          	lhu	a5,492(sp)
   17e0c:	16210d93          	addi	s11,sp,354
   17e10:	16310993          	addi	s3,sp,355
   17e14:	bad1                	j	177e8 <_ldtoa_r+0x5e0>
   17e16:	00007597          	auipc	a1,0x7
   17e1a:	90258593          	addi	a1,a1,-1790 # 1e718 <zeroes.4521+0x60>
   17e1e:	854a                	mv	a0,s2
   17e20:	6489                	lui	s1,0x2
   17e22:	307010ef          	jal	ra,19928 <sprintf>
   17e26:	70f48493          	addi	s1,s1,1807 # 270f <register_fini-0xd9d9>
   17e2a:	b425                	j	17852 <_ldtoa_r+0x64a>
   17e2c:	018c                	addi	a1,sp,192
   17e2e:	1108                	addi	a0,sp,160
   17e30:	b95fe0ef          	jal	ra,169c4 <emovo.isra.0>
   17e34:	00007597          	auipc	a1,0x7
   17e38:	90458593          	addi	a1,a1,-1788 # 1e738 <ezero>
   17e3c:	0188                	addi	a0,sp,192
   17e3e:	c10fe0ef          	jal	ra,1624e <ecmp>
   17e42:	9a0519e3          	bnez	a0,177f4 <_ldtoa_r+0x5ec>
   17e46:	9e044ee3          	bltz	s0,17842 <_ldtoa_r+0x63a>
   17e4a:	ffe9c783          	lbu	a5,-2(s3)
   17e4e:	fd278713          	addi	a4,a5,-46
   17e52:	00173713          	seqz	a4,a4
   17e56:	fff74713          	not	a4,a4
   17e5a:	976e                	add	a4,a4,s11
   17e5c:	00074703          	lbu	a4,0(a4)
   17e60:	8b05                	andi	a4,a4,1
   17e62:	9e0700e3          	beqz	a4,17842 <_ldtoa_r+0x63a>
   17e66:	07f7f693          	andi	a3,a5,127
   17e6a:	ffe98713          	addi	a4,s3,-2
   17e6e:	87b6                	mv	a5,a3
   17e70:	ba59                	j	17806 <_ldtoa_r+0x5fe>
   17e72:	2785                	addiw	a5,a5,1
   17e74:	fef70fa3          	sb	a5,-1(a4)
   17e78:	b2e9                	j	17842 <_ldtoa_r+0x63a>
   17e7a:	0200                	addi	s0,sp,256
   17e7c:	85a2                	mv	a1,s0
   17e7e:	1108                	addi	a0,sp,160
   17e80:	6b11                	lui	s6,0x4
   17e82:	b16fe0ef          	jal	ra,16198 <emovi>
   17e86:	4481                	li	s1,0
   17e88:	11810a13          	addi	s4,sp,280
   17e8c:	0f810913          	addi	s2,sp,248
   17e90:	10210993          	addi	s3,sp,258
   17e94:	1b79                	addi	s6,s6,-2
   17e96:	fd500c13          	li	s8,-43
   17e9a:	11815783          	lhu	a5,280(sp)
   17e9e:	8b9d                	andi	a5,a5,7
   17ea0:	efd1                	bnez	a5,17f3c <_ldtoa_r+0xd34>
   17ea2:	1198                	addi	a4,sp,224
   17ea4:	87a2                	mv	a5,s0
   17ea6:	0007d683          	lhu	a3,0(a5)
   17eaa:	0789                	addi	a5,a5,2
   17eac:	0709                	addi	a4,a4,2
   17eae:	fed71f23          	sh	a3,-2(a4)
   17eb2:	ff479ae3          	bne	a5,s4,17ea6 <_ldtoa_r+0xc9e>
   17eb6:	1188                	addi	a0,sp,224
   17eb8:	0e011c23          	sh	zero,248(sp)
   17ebc:	950fe0ef          	jal	ra,1600c <eshdn1>
   17ec0:	1188                	addi	a0,sp,224
   17ec2:	94afe0ef          	jal	ra,1600c <eshdn1>
   17ec6:	4601                	li	a2,0
   17ec8:	86ca                	mv	a3,s2
   17eca:	8752                	mv	a4,s4
   17ecc:	0006d583          	lhu	a1,0(a3)
   17ed0:	00075783          	lhu	a5,0(a4)
   17ed4:	16f9                	addi	a3,a3,-2
   17ed6:	1779                	addi	a4,a4,-2
   17ed8:	97ae                	add	a5,a5,a1
   17eda:	97b2                	add	a5,a5,a2
   17edc:	0107d613          	srli	a2,a5,0x10
   17ee0:	00f69123          	sh	a5,2(a3)
   17ee4:	8a05                	andi	a2,a2,1
   17ee6:	ff3713e3          	bne	a4,s3,17ecc <_ldtoa_r+0xcc4>
   17eea:	0e215783          	lhu	a5,226(sp)
   17eee:	0e415703          	lhu	a4,228(sp)
   17ef2:	278d                	addiw	a5,a5,3
   17ef4:	0ef11123          	sh	a5,226(sp)
   17ef8:	cf01                	beqz	a4,17f10 <_ldtoa_r+0xd08>
   17efa:	1188                	addi	a0,sp,224
   17efc:	910fe0ef          	jal	ra,1600c <eshdn1>
   17f00:	0e215783          	lhu	a5,226(sp)
   17f04:	0e415703          	lhu	a4,228(sp)
   17f08:	2785                	addiw	a5,a5,1
   17f0a:	0ef11123          	sh	a5,226(sp)
   17f0e:	f775                	bnez	a4,17efa <_ldtoa_r+0xcf2>
   17f10:	0f815783          	lhu	a5,248(sp)
   17f14:	e785                	bnez	a5,17f3c <_ldtoa_r+0xd34>
   17f16:	0e215783          	lhu	a5,226(sp)
   17f1a:	02fb6163          	bltu	s6,a5,17f3c <_ldtoa_r+0xd34>
   17f1e:	8722                	mv	a4,s0
   17f20:	119c                	addi	a5,sp,224
   17f22:	0007d683          	lhu	a3,0(a5)
   17f26:	0789                	addi	a5,a5,2
   17f28:	0709                	addi	a4,a4,2
   17f2a:	fed71f23          	sh	a3,-2(a4)
   17f2e:	ff279ae3          	bne	a5,s2,17f22 <_ldtoa_r+0xd1a>
   17f32:	10011c23          	sh	zero,280(sp)
   17f36:	34fd                	addiw	s1,s1,-1
   17f38:	f78491e3          	bne	s1,s8,17e9a <_ldtoa_r+0xc92>
   17f3c:	110c                	addi	a1,sp,160
   17f3e:	8522                	mv	a0,s0
   17f40:	a85fe0ef          	jal	ra,169c4 <emovo.isra.0>
   17f44:	1a010993          	addi	s3,sp,416
   17f48:	c3aff06f          	j	17382 <_ldtoa_r+0x17a>
   17f4c:	02d8                	addi	a4,sp,324
   17f4e:	125c                	addi	a5,sp,292
   17f50:	0007d583          	lhu	a1,0(a5)
   17f54:	00075603          	lhu	a2,0(a4)
   17f58:	0789                	addi	a5,a5,2
   17f5a:	0709                	addi	a4,a4,2
   17f5c:	02c59463          	bne	a1,a2,17f84 <_ldtoa_r+0xd7c>
   17f60:	13a10613          	addi	a2,sp,314
   17f64:	fec796e3          	bne	a5,a2,17f50 <_ldtoa_r+0xd48>
   17f68:	12015703          	lhu	a4,288(sp)
   17f6c:	14015783          	lhu	a5,320(sp)
   17f70:	04f70663          	beq	a4,a5,17fbc <_ldtoa_r+0xdb4>
   17f74:	87a2                	mv	a5,s0
   17f76:	0a58                	addi	a4,sp,276
   17f78:	0789                	addi	a5,a5,2
   17f7a:	fe079f23          	sh	zero,-2(a5)
   17f7e:	fee79de3          	bne	a5,a4,17f78 <_ldtoa_r+0xd70>
   17f82:	bed9                	j	17b58 <_ldtoa_r+0x950>
   17f84:	0ab66063          	bltu	a2,a1,18024 <_ldtoa_r+0xe1c>
   17f88:	4581                	li	a1,0
   17f8a:	0abc                	addi	a5,sp,344
   17f8c:	1a28                	addi	a0,sp,312
   17f8e:	bb65                	j	17d46 <_ldtoa_r+0xb3e>
   17f90:	4e81                	li	t4,0
   17f92:	862a                	mv	a2,a0
   17f94:	12210f13          	addi	t5,sp,290
   17f98:	0007d503          	lhu	a0,0(a5)
   17f9c:	00065703          	lhu	a4,0(a2)
   17fa0:	17f9                	addi	a5,a5,-2
   17fa2:	1679                	addi	a2,a2,-2
   17fa4:	972a                	add	a4,a4,a0
   17fa6:	9776                	add	a4,a4,t4
   17fa8:	01075e93          	srli	t4,a4,0x10
   17fac:	00e79123          	sh	a4,2(a5)
   17fb0:	001efe93          	andi	t4,t4,1
   17fb4:	ffe612e3          	bne	a2,t5,17f98 <_ldtoa_r+0xd90>
   17fb8:	4601                	li	a2,0
   17fba:	b3c1                	j	17d7a <_ldtoa_r+0xb72>
   17fbc:	8736                	mv	a4,a3
   17fbe:	eab1                	bnez	a3,18012 <_ldtoa_r+0xe0a>
   17fc0:	14611783          	lh	a5,326(sp)
   17fc4:	0407c763          	bltz	a5,18012 <_ldtoa_r+0xe0a>
   17fc8:	0ab4                	addi	a3,sp,344
   17fca:	a821                	j	17fe2 <_ldtoa_r+0xdda>
   17fcc:	00f69023          	sh	a5,0(a3)
   17fd0:	0017171b          	slliw	a4,a4,0x1
   17fd4:	1742                	slli	a4,a4,0x30
   17fd6:	16f9                	addi	a3,a3,-2
   17fd8:	14210793          	addi	a5,sp,322
   17fdc:	9341                	srli	a4,a4,0x30
   17fde:	daf684e3          	beq	a3,a5,17d86 <_ldtoa_r+0xb7e>
   17fe2:	0006d783          	lhu	a5,0(a3)
   17fe6:	0107961b          	slliw	a2,a5,0x10
   17fea:	4106561b          	sraiw	a2,a2,0x10
   17fee:	02061593          	slli	a1,a2,0x20
   17ff2:	0017979b          	slliw	a5,a5,0x1
   17ff6:	0005d463          	bgez	a1,17ffe <_ldtoa_r+0xdf6>
   17ffa:	00176713          	ori	a4,a4,1
   17ffe:	17c2                	slli	a5,a5,0x30
   18000:	93c1                	srli	a5,a5,0x30
   18002:	00277613          	andi	a2,a4,2
   18006:	0017e593          	ori	a1,a5,1
   1800a:	d269                	beqz	a2,17fcc <_ldtoa_r+0xdc4>
   1800c:	00b69023          	sh	a1,0(a3)
   18010:	b7c1                	j	17fd0 <_ldtoa_r+0xdc8>
   18012:	02d0                	addi	a2,sp,324
   18014:	0abc                	addi	a5,sp,344
   18016:	e325                	bnez	a4,18076 <_ldtoa_r+0xe6e>
   18018:	06c78163          	beq	a5,a2,1807a <_ldtoa_r+0xe72>
   1801c:	00065703          	lhu	a4,0(a2)
   18020:	0609                	addi	a2,a2,2
   18022:	bfd5                	j	18016 <_ldtoa_r+0xe0e>
   18024:	864a                	mv	a2,s2
   18026:	0298                	addi	a4,sp,320
   18028:	0abc                	addi	a5,sp,344
   1802a:	00075583          	lhu	a1,0(a4)
   1802e:	0709                	addi	a4,a4,2
   18030:	0609                	addi	a2,a2,2
   18032:	feb61f23          	sh	a1,-2(a2)
   18036:	fef71ae3          	bne	a4,a5,1802a <_ldtoa_r+0xe22>
   1803a:	16011c23          	sh	zero,376(sp)
   1803e:	0290                	addi	a2,sp,320
   18040:	1218                	addi	a4,sp,288
   18042:	1a28                	addi	a0,sp,312
   18044:	00075583          	lhu	a1,0(a4)
   18048:	0709                	addi	a4,a4,2
   1804a:	0609                	addi	a2,a2,2
   1804c:	feb61f23          	sh	a1,-2(a2)
   18050:	fea71ae3          	bne	a4,a0,18044 <_ldtoa_r+0xe3c>
   18054:	14011c23          	sh	zero,344(sp)
   18058:	120c                	addi	a1,sp,288
   1805a:	874a                	mv	a4,s2
   1805c:	1ab0                	addi	a2,sp,376
   1805e:	00075e83          	lhu	t4,0(a4)
   18062:	0709                	addi	a4,a4,2
   18064:	0589                	addi	a1,a1,2
   18066:	ffd59f23          	sh	t4,-2(a1)
   1806a:	fec71ae3          	bne	a4,a2,1805e <_ldtoa_r+0xe56>
   1806e:	12011c23          	sh	zero,312(sp)
   18072:	4581                	li	a1,0
   18074:	b9c9                	j	17d46 <_ldtoa_r+0xb3e>
   18076:	00168513          	addi	a0,a3,1
   1807a:	14a11123          	sh	a0,322(sp)
   1807e:	b321                	j	17d86 <_ldtoa_r+0xb7e>

0000000000018080 <_ldcheck>:
   18080:	6118                	ld	a4,0(a0)
   18082:	651c                	ld	a5,8(a0)
   18084:	7139                	addi	sp,sp,-64
   18086:	850a                	mv	a0,sp
   18088:	080c                	addi	a1,sp,16
   1808a:	e03a                	sd	a4,0(sp)
   1808c:	e43e                	sd	a5,8(sp)
   1808e:	fc06                	sd	ra,56(sp)
   18090:	87cff0ef          	jal	ra,1710c <e113toe.isra.0>
   18094:	02215783          	lhu	a5,34(sp)
   18098:	4501                	li	a0,0
   1809a:	fff7c793          	not	a5,a5
   1809e:	03179713          	slli	a4,a5,0x31
   180a2:	e719                	bnez	a4,180b0 <_ldcheck+0x30>
   180a4:	0808                	addi	a0,sp,16
   180a6:	880fe0ef          	jal	ra,16126 <eisnan.part.0>
   180aa:	00153513          	seqz	a0,a0
   180ae:	0505                	addi	a0,a0,1
   180b0:	70e2                	ld	ra,56(sp)
   180b2:	6121                	addi	sp,sp,64
   180b4:	8082                	ret

00000000000180b6 <_setlocale_r>:
   180b6:	c60d                	beqz	a2,180e0 <_setlocale_r+0x2a>
   180b8:	1141                	addi	sp,sp,-16
   180ba:	00007597          	auipc	a1,0x7
   180be:	8ee58593          	addi	a1,a1,-1810 # 1e9a8 <bmask+0x30>
   180c2:	8532                	mv	a0,a2
   180c4:	e022                	sd	s0,0(sp)
   180c6:	e406                	sd	ra,8(sp)
   180c8:	8432                	mv	s0,a2
   180ca:	183010ef          	jal	ra,19a4c <strcmp>
   180ce:	ed11                	bnez	a0,180ea <_setlocale_r+0x34>
   180d0:	00007517          	auipc	a0,0x7
   180d4:	8d050513          	addi	a0,a0,-1840 # 1e9a0 <bmask+0x28>
   180d8:	60a2                	ld	ra,8(sp)
   180da:	6402                	ld	s0,0(sp)
   180dc:	0141                	addi	sp,sp,16
   180de:	8082                	ret
   180e0:	00007517          	auipc	a0,0x7
   180e4:	8c050513          	addi	a0,a0,-1856 # 1e9a0 <bmask+0x28>
   180e8:	8082                	ret
   180ea:	00007597          	auipc	a1,0x7
   180ee:	8b658593          	addi	a1,a1,-1866 # 1e9a0 <bmask+0x28>
   180f2:	8522                	mv	a0,s0
   180f4:	159010ef          	jal	ra,19a4c <strcmp>
   180f8:	dd61                	beqz	a0,180d0 <_setlocale_r+0x1a>
   180fa:	00006597          	auipc	a1,0x6
   180fe:	25e58593          	addi	a1,a1,606 # 1e358 <__func__.4057+0x2b8>
   18102:	8522                	mv	a0,s0
   18104:	149010ef          	jal	ra,19a4c <strcmp>
   18108:	d561                	beqz	a0,180d0 <_setlocale_r+0x1a>
   1810a:	4501                	li	a0,0
   1810c:	b7f1                	j	180d8 <_setlocale_r+0x22>

000000000001810e <__locale_mb_cur_max>:
   1810e:	00009517          	auipc	a0,0x9
   18112:	09a54503          	lbu	a0,154(a0) # 211a8 <__global_locale+0x160>
   18116:	8082                	ret

0000000000018118 <setlocale>:
   18118:	862e                	mv	a2,a1
   1811a:	85aa                	mv	a1,a0
   1811c:	8901b503          	ld	a0,-1904(gp) # 21280 <_impure_ptr>
   18120:	bf59                	j	180b6 <_setlocale_r>

0000000000018122 <__localeconv_l>:
   18122:	10050513          	addi	a0,a0,256
   18126:	8082                	ret

0000000000018128 <_localeconv_r>:
   18128:	00009517          	auipc	a0,0x9
   1812c:	02050513          	addi	a0,a0,32 # 21148 <__global_locale+0x100>
   18130:	8082                	ret

0000000000018132 <localeconv>:
   18132:	00009517          	auipc	a0,0x9
   18136:	01650513          	addi	a0,a0,22 # 21148 <__global_locale+0x100>
   1813a:	8082                	ret

000000000001813c <__swhatbuf_r>:
   1813c:	7175                	addi	sp,sp,-144
   1813e:	e122                	sd	s0,128(sp)
   18140:	842e                	mv	s0,a1
   18142:	01259583          	lh	a1,18(a1)
   18146:	fca6                	sd	s1,120(sp)
   18148:	f8ca                	sd	s2,112(sp)
   1814a:	e506                	sd	ra,136(sp)
   1814c:	84b2                	mv	s1,a2
   1814e:	8936                	mv	s2,a3
   18150:	0205cc63          	bltz	a1,18188 <__swhatbuf_r+0x4c>
   18154:	0030                	addi	a2,sp,8
   18156:	2e9030ef          	jal	ra,1bc3e <_fstat_r>
   1815a:	02054763          	bltz	a0,18188 <__swhatbuf_r+0x4c>
   1815e:	47b2                	lw	a5,12(sp)
   18160:	673d                	lui	a4,0xf
   18162:	60aa                	ld	ra,136(sp)
   18164:	8ff9                	and	a5,a5,a4
   18166:	6709                	lui	a4,0x2
   18168:	8f99                	sub	a5,a5,a4
   1816a:	640a                	ld	s0,128(sp)
   1816c:	0017b793          	seqz	a5,a5
   18170:	00f92023          	sw	a5,0(s2)
   18174:	40000793          	li	a5,1024
   18178:	e09c                	sd	a5,0(s1)
   1817a:	6505                	lui	a0,0x1
   1817c:	74e6                	ld	s1,120(sp)
   1817e:	7946                	ld	s2,112(sp)
   18180:	80050513          	addi	a0,a0,-2048 # 800 <register_fini-0xf8e8>
   18184:	6149                	addi	sp,sp,144
   18186:	8082                	ret
   18188:	01045783          	lhu	a5,16(s0)
   1818c:	00092023          	sw	zero,0(s2)
   18190:	0807f793          	andi	a5,a5,128
   18194:	cb99                	beqz	a5,181aa <__swhatbuf_r+0x6e>
   18196:	60aa                	ld	ra,136(sp)
   18198:	640a                	ld	s0,128(sp)
   1819a:	04000793          	li	a5,64
   1819e:	e09c                	sd	a5,0(s1)
   181a0:	7946                	ld	s2,112(sp)
   181a2:	74e6                	ld	s1,120(sp)
   181a4:	4501                	li	a0,0
   181a6:	6149                	addi	sp,sp,144
   181a8:	8082                	ret
   181aa:	60aa                	ld	ra,136(sp)
   181ac:	640a                	ld	s0,128(sp)
   181ae:	40000793          	li	a5,1024
   181b2:	e09c                	sd	a5,0(s1)
   181b4:	7946                	ld	s2,112(sp)
   181b6:	74e6                	ld	s1,120(sp)
   181b8:	4501                	li	a0,0
   181ba:	6149                	addi	sp,sp,144
   181bc:	8082                	ret

00000000000181be <__smakebuf_r>:
   181be:	0105d783          	lhu	a5,16(a1)
   181c2:	7179                	addi	sp,sp,-48
   181c4:	f022                	sd	s0,32(sp)
   181c6:	f406                	sd	ra,40(sp)
   181c8:	ec26                	sd	s1,24(sp)
   181ca:	e84a                	sd	s2,16(sp)
   181cc:	8b89                	andi	a5,a5,2
   181ce:	842e                	mv	s0,a1
   181d0:	cf89                	beqz	a5,181ea <__smakebuf_r+0x2c>
   181d2:	07758793          	addi	a5,a1,119
   181d6:	e19c                	sd	a5,0(a1)
   181d8:	ed9c                	sd	a5,24(a1)
   181da:	4785                	li	a5,1
   181dc:	d19c                	sw	a5,32(a1)
   181de:	70a2                	ld	ra,40(sp)
   181e0:	7402                	ld	s0,32(sp)
   181e2:	64e2                	ld	s1,24(sp)
   181e4:	6942                	ld	s2,16(sp)
   181e6:	6145                	addi	sp,sp,48
   181e8:	8082                	ret
   181ea:	0054                	addi	a3,sp,4
   181ec:	0030                	addi	a2,sp,8
   181ee:	84aa                	mv	s1,a0
   181f0:	f4dff0ef          	jal	ra,1813c <__swhatbuf_r>
   181f4:	65a2                	ld	a1,8(sp)
   181f6:	892a                	mv	s2,a0
   181f8:	8526                	mv	a0,s1
   181fa:	d5ff90ef          	jal	ra,11f58 <_malloc_r>
   181fe:	01041783          	lh	a5,16(s0)
   18202:	c915                	beqz	a0,18236 <__smakebuf_r+0x78>
   18204:	ffffd697          	auipc	a3,0xffffd
   18208:	2c268693          	addi	a3,a3,706 # 154c6 <_cleanup_r>
   1820c:	ecb4                	sd	a3,88(s1)
   1820e:	66a2                	ld	a3,8(sp)
   18210:	4712                	lw	a4,4(sp)
   18212:	0807e793          	ori	a5,a5,128
   18216:	00f41823          	sh	a5,16(s0)
   1821a:	e008                	sd	a0,0(s0)
   1821c:	ec08                	sd	a0,24(s0)
   1821e:	d014                	sw	a3,32(s0)
   18220:	eb15                	bnez	a4,18254 <__smakebuf_r+0x96>
   18222:	0127e7b3          	or	a5,a5,s2
   18226:	70a2                	ld	ra,40(sp)
   18228:	00f41823          	sh	a5,16(s0)
   1822c:	7402                	ld	s0,32(sp)
   1822e:	64e2                	ld	s1,24(sp)
   18230:	6942                	ld	s2,16(sp)
   18232:	6145                	addi	sp,sp,48
   18234:	8082                	ret
   18236:	2007f713          	andi	a4,a5,512
   1823a:	f355                	bnez	a4,181de <__smakebuf_r+0x20>
   1823c:	9bf1                	andi	a5,a5,-4
   1823e:	0027e793          	ori	a5,a5,2
   18242:	07740713          	addi	a4,s0,119
   18246:	00f41823          	sh	a5,16(s0)
   1824a:	4785                	li	a5,1
   1824c:	e018                	sd	a4,0(s0)
   1824e:	ec18                	sd	a4,24(s0)
   18250:	d01c                	sw	a5,32(s0)
   18252:	b771                	j	181de <__smakebuf_r+0x20>
   18254:	01241583          	lh	a1,18(s0)
   18258:	8526                	mv	a0,s1
   1825a:	221030ef          	jal	ra,1bc7a <_isatty_r>
   1825e:	e501                	bnez	a0,18266 <__smakebuf_r+0xa8>
   18260:	01041783          	lh	a5,16(s0)
   18264:	bf7d                	j	18222 <__smakebuf_r+0x64>
   18266:	01045703          	lhu	a4,16(s0)
   1826a:	9b71                	andi	a4,a4,-4
   1826c:	00176713          	ori	a4,a4,1
   18270:	0107179b          	slliw	a5,a4,0x10
   18274:	4107d79b          	sraiw	a5,a5,0x10
   18278:	b76d                	j	18222 <__smakebuf_r+0x64>

000000000001827a <_mbtowc_r>:
   1827a:	00009317          	auipc	t1,0x9
   1827e:	eb633303          	ld	t1,-330(t1) # 21130 <__global_locale+0xe8>
   18282:	8302                	jr	t1

0000000000018284 <__ascii_mbtowc>:
   18284:	c999                	beqz	a1,1829a <__ascii_mbtowc+0x16>
   18286:	c61d                	beqz	a2,182b4 <__ascii_mbtowc+0x30>
   18288:	ca95                	beqz	a3,182bc <__ascii_mbtowc+0x38>
   1828a:	00064783          	lbu	a5,0(a2)
   1828e:	c19c                	sw	a5,0(a1)
   18290:	00064503          	lbu	a0,0(a2)
   18294:	00a03533          	snez	a0,a0
   18298:	8082                	ret
   1829a:	1141                	addi	sp,sp,-16
   1829c:	006c                	addi	a1,sp,12
   1829e:	ce09                	beqz	a2,182b8 <__ascii_mbtowc+0x34>
   182a0:	c285                	beqz	a3,182c0 <__ascii_mbtowc+0x3c>
   182a2:	00064783          	lbu	a5,0(a2)
   182a6:	c19c                	sw	a5,0(a1)
   182a8:	00064503          	lbu	a0,0(a2)
   182ac:	00a03533          	snez	a0,a0
   182b0:	0141                	addi	sp,sp,16
   182b2:	8082                	ret
   182b4:	4501                	li	a0,0
   182b6:	8082                	ret
   182b8:	4501                	li	a0,0
   182ba:	bfdd                	j	182b0 <__ascii_mbtowc+0x2c>
   182bc:	5579                	li	a0,-2
   182be:	8082                	ret
   182c0:	5579                	li	a0,-2
   182c2:	b7fd                	j	182b0 <__ascii_mbtowc+0x2c>

00000000000182c4 <memchr>:
   182c4:	00757793          	andi	a5,a0,7
   182c8:	0ff5f693          	zext.b	a3,a1
   182cc:	c395                	beqz	a5,182f0 <memchr+0x2c>
   182ce:	fff60793          	addi	a5,a2,-1
   182d2:	c605                	beqz	a2,182fa <memchr+0x36>
   182d4:	567d                	li	a2,-1
   182d6:	a801                	j	182e6 <memchr+0x22>
   182d8:	0505                	addi	a0,a0,1
   182da:	00757713          	andi	a4,a0,7
   182de:	cb11                	beqz	a4,182f2 <memchr+0x2e>
   182e0:	17fd                	addi	a5,a5,-1
   182e2:	00c78c63          	beq	a5,a2,182fa <memchr+0x36>
   182e6:	00054703          	lbu	a4,0(a0)
   182ea:	fed717e3          	bne	a4,a3,182d8 <memchr+0x14>
   182ee:	8082                	ret
   182f0:	87b2                	mv	a5,a2
   182f2:	471d                	li	a4,7
   182f4:	00f76f63          	bltu	a4,a5,18312 <memchr+0x4e>
   182f8:	e399                	bnez	a5,182fe <memchr+0x3a>
   182fa:	4501                	li	a0,0
   182fc:	8082                	ret
   182fe:	97aa                	add	a5,a5,a0
   18300:	a021                	j	18308 <memchr+0x44>
   18302:	0505                	addi	a0,a0,1
   18304:	fea78be3          	beq	a5,a0,182fa <memchr+0x36>
   18308:	00054703          	lbu	a4,0(a0)
   1830c:	fed71be3          	bne	a4,a3,18302 <memchr+0x3e>
   18310:	8082                	ret
   18312:	6641                	lui	a2,0x10
   18314:	0085971b          	slliw	a4,a1,0x8
   18318:	167d                	addi	a2,a2,-1
   1831a:	8f71                	and	a4,a4,a2
   1831c:	0ff5f593          	zext.b	a1,a1
   18320:	8dd9                	or	a1,a1,a4
   18322:	2581                	sext.w	a1,a1
   18324:	01059713          	slli	a4,a1,0x10
   18328:	8f4d                	or	a4,a4,a1
   1832a:	02071593          	slli	a1,a4,0x20
   1832e:	8dd9                	or	a1,a1,a4
   18330:	00009897          	auipc	a7,0x9
   18334:	f008b883          	ld	a7,-256(a7) # 21230 <__SDATA_BEGIN__+0x40>
   18338:	00009817          	auipc	a6,0x9
   1833c:	f0083803          	ld	a6,-256(a6) # 21238 <__SDATA_BEGIN__+0x48>
   18340:	431d                	li	t1,7
   18342:	6118                	ld	a4,0(a0)
   18344:	8f2d                	xor	a4,a4,a1
   18346:	01170633          	add	a2,a4,a7
   1834a:	fff74713          	not	a4,a4
   1834e:	8f71                	and	a4,a4,a2
   18350:	01077733          	and	a4,a4,a6
   18354:	f74d                	bnez	a4,182fe <memchr+0x3a>
   18356:	17e1                	addi	a5,a5,-8
   18358:	0521                	addi	a0,a0,8
   1835a:	fef364e3          	bltu	t1,a5,18342 <memchr+0x7e>
   1835e:	f3c5                	bnez	a5,182fe <memchr+0x3a>
   18360:	bf69                	j	182fa <memchr+0x36>

0000000000018362 <memcpy>:
   18362:	00a5c7b3          	xor	a5,a1,a0
   18366:	8b9d                	andi	a5,a5,7
   18368:	00c508b3          	add	a7,a0,a2
   1836c:	e7a1                	bnez	a5,183b4 <memcpy+0x52>
   1836e:	479d                	li	a5,7
   18370:	04c7f263          	bgeu	a5,a2,183b4 <memcpy+0x52>
   18374:	00757793          	andi	a5,a0,7
   18378:	872a                	mv	a4,a0
   1837a:	eba9                	bnez	a5,183cc <memcpy+0x6a>
   1837c:	ff88f613          	andi	a2,a7,-8
   18380:	fc060793          	addi	a5,a2,-64 # ffc0 <register_fini-0x128>
   18384:	06f76763          	bltu	a4,a5,183f2 <memcpy+0x90>
   18388:	02c77363          	bgeu	a4,a2,183ae <memcpy+0x4c>
   1838c:	86ae                	mv	a3,a1
   1838e:	87ba                	mv	a5,a4
   18390:	0006b803          	ld	a6,0(a3)
   18394:	07a1                	addi	a5,a5,8
   18396:	06a1                	addi	a3,a3,8
   18398:	ff07bc23          	sd	a6,-8(a5)
   1839c:	fec7eae3          	bltu	a5,a2,18390 <memcpy+0x2e>
   183a0:	fff60793          	addi	a5,a2,-1
   183a4:	8f99                	sub	a5,a5,a4
   183a6:	9be1                	andi	a5,a5,-8
   183a8:	07a1                	addi	a5,a5,8
   183aa:	973e                	add	a4,a4,a5
   183ac:	95be                	add	a1,a1,a5
   183ae:	01176663          	bltu	a4,a7,183ba <memcpy+0x58>
   183b2:	8082                	ret
   183b4:	872a                	mv	a4,a0
   183b6:	ff157ee3          	bgeu	a0,a7,183b2 <memcpy+0x50>
   183ba:	0005c783          	lbu	a5,0(a1)
   183be:	0705                	addi	a4,a4,1
   183c0:	0585                	addi	a1,a1,1
   183c2:	fef70fa3          	sb	a5,-1(a4) # 1fff <register_fini-0xe0e9>
   183c6:	ff176ae3          	bltu	a4,a7,183ba <memcpy+0x58>
   183ca:	8082                	ret
   183cc:	0005c683          	lbu	a3,0(a1)
   183d0:	0705                	addi	a4,a4,1
   183d2:	00777793          	andi	a5,a4,7
   183d6:	fed70fa3          	sb	a3,-1(a4)
   183da:	0585                	addi	a1,a1,1
   183dc:	d3c5                	beqz	a5,1837c <memcpy+0x1a>
   183de:	0005c683          	lbu	a3,0(a1)
   183e2:	0705                	addi	a4,a4,1
   183e4:	00777793          	andi	a5,a4,7
   183e8:	fed70fa3          	sb	a3,-1(a4)
   183ec:	0585                	addi	a1,a1,1
   183ee:	fff9                	bnez	a5,183cc <memcpy+0x6a>
   183f0:	b771                	j	1837c <memcpy+0x1a>
   183f2:	6594                	ld	a3,8(a1)
   183f4:	0005b283          	ld	t0,0(a1)
   183f8:	0105bf83          	ld	t6,16(a1)
   183fc:	0185bf03          	ld	t5,24(a1)
   18400:	0205be83          	ld	t4,32(a1)
   18404:	0285be03          	ld	t3,40(a1)
   18408:	0305b303          	ld	t1,48(a1)
   1840c:	0385b803          	ld	a6,56(a1)
   18410:	e714                	sd	a3,8(a4)
   18412:	61b4                	ld	a3,64(a1)
   18414:	00573023          	sd	t0,0(a4)
   18418:	01f73823          	sd	t6,16(a4)
   1841c:	01e73c23          	sd	t5,24(a4)
   18420:	03d73023          	sd	t4,32(a4)
   18424:	03c73423          	sd	t3,40(a4)
   18428:	02673823          	sd	t1,48(a4)
   1842c:	03073c23          	sd	a6,56(a4)
   18430:	e334                	sd	a3,64(a4)
   18432:	04870713          	addi	a4,a4,72
   18436:	04858593          	addi	a1,a1,72
   1843a:	faf76ce3          	bltu	a4,a5,183f2 <memcpy+0x90>
   1843e:	b7a9                	j	18388 <memcpy+0x26>

0000000000018440 <memmove>:
   18440:	02a5f263          	bgeu	a1,a0,18464 <memmove+0x24>
   18444:	00c587b3          	add	a5,a1,a2
   18448:	00f57e63          	bgeu	a0,a5,18464 <memmove+0x24>
   1844c:	00c50733          	add	a4,a0,a2
   18450:	ca5d                	beqz	a2,18506 <memmove+0xc6>
   18452:	fff7c683          	lbu	a3,-1(a5)
   18456:	17fd                	addi	a5,a5,-1
   18458:	177d                	addi	a4,a4,-1
   1845a:	00d70023          	sb	a3,0(a4)
   1845e:	fef59ae3          	bne	a1,a5,18452 <memmove+0x12>
   18462:	8082                	ret
   18464:	47fd                	li	a5,31
   18466:	02c7e163          	bltu	a5,a2,18488 <memmove+0x48>
   1846a:	87aa                	mv	a5,a0
   1846c:	fff60693          	addi	a3,a2,-1
   18470:	c245                	beqz	a2,18510 <memmove+0xd0>
   18472:	0685                	addi	a3,a3,1
   18474:	96be                	add	a3,a3,a5
   18476:	0005c703          	lbu	a4,0(a1)
   1847a:	0785                	addi	a5,a5,1
   1847c:	0585                	addi	a1,a1,1
   1847e:	fee78fa3          	sb	a4,-1(a5)
   18482:	fed79ae3          	bne	a5,a3,18476 <memmove+0x36>
   18486:	8082                	ret
   18488:	00a5e7b3          	or	a5,a1,a0
   1848c:	8b9d                	andi	a5,a5,7
   1848e:	efad                	bnez	a5,18508 <memmove+0xc8>
   18490:	fe060893          	addi	a7,a2,-32
   18494:	fe08f893          	andi	a7,a7,-32
   18498:	02088893          	addi	a7,a7,32
   1849c:	01150833          	add	a6,a0,a7
   184a0:	872e                	mv	a4,a1
   184a2:	87aa                	mv	a5,a0
   184a4:	6314                	ld	a3,0(a4)
   184a6:	02070713          	addi	a4,a4,32
   184aa:	02078793          	addi	a5,a5,32
   184ae:	fed7b023          	sd	a3,-32(a5)
   184b2:	fe873683          	ld	a3,-24(a4)
   184b6:	fed7b423          	sd	a3,-24(a5)
   184ba:	ff073683          	ld	a3,-16(a4)
   184be:	fed7b823          	sd	a3,-16(a5)
   184c2:	ff873683          	ld	a3,-8(a4)
   184c6:	fed7bc23          	sd	a3,-8(a5)
   184ca:	fcf81de3          	bne	a6,a5,184a4 <memmove+0x64>
   184ce:	01867713          	andi	a4,a2,24
   184d2:	95c6                	add	a1,a1,a7
   184d4:	01f67813          	andi	a6,a2,31
   184d8:	cf0d                	beqz	a4,18512 <memmove+0xd2>
   184da:	872e                	mv	a4,a1
   184dc:	88be                	mv	a7,a5
   184de:	4e1d                	li	t3,7
   184e0:	00073303          	ld	t1,0(a4)
   184e4:	0721                	addi	a4,a4,8
   184e6:	40e806b3          	sub	a3,a6,a4
   184ea:	0068b023          	sd	t1,0(a7)
   184ee:	96ae                	add	a3,a3,a1
   184f0:	08a1                	addi	a7,a7,8
   184f2:	fede67e3          	bltu	t3,a3,184e0 <memmove+0xa0>
   184f6:	ff880713          	addi	a4,a6,-8
   184fa:	9b61                	andi	a4,a4,-8
   184fc:	0721                	addi	a4,a4,8
   184fe:	8a1d                	andi	a2,a2,7
   18500:	97ba                	add	a5,a5,a4
   18502:	95ba                	add	a1,a1,a4
   18504:	b7a5                	j	1846c <memmove+0x2c>
   18506:	8082                	ret
   18508:	fff60693          	addi	a3,a2,-1
   1850c:	87aa                	mv	a5,a0
   1850e:	b795                	j	18472 <memmove+0x32>
   18510:	8082                	ret
   18512:	8642                	mv	a2,a6
   18514:	bfa1                	j	1846c <memmove+0x2c>

0000000000018516 <_Balloc>:
   18516:	7d3c                	ld	a5,120(a0)
   18518:	1101                	addi	sp,sp,-32
   1851a:	e822                	sd	s0,16(sp)
   1851c:	e426                	sd	s1,8(sp)
   1851e:	ec06                	sd	ra,24(sp)
   18520:	e04a                	sd	s2,0(sp)
   18522:	842a                	mv	s0,a0
   18524:	84ae                	mv	s1,a1
   18526:	c385                	beqz	a5,18546 <_Balloc+0x30>
   18528:	00349513          	slli	a0,s1,0x3
   1852c:	97aa                	add	a5,a5,a0
   1852e:	6388                	ld	a0,0(a5)
   18530:	c50d                	beqz	a0,1855a <_Balloc+0x44>
   18532:	6118                	ld	a4,0(a0)
   18534:	e398                	sd	a4,0(a5)
   18536:	00053823          	sd	zero,16(a0)
   1853a:	60e2                	ld	ra,24(sp)
   1853c:	6442                	ld	s0,16(sp)
   1853e:	64a2                	ld	s1,8(sp)
   18540:	6902                	ld	s2,0(sp)
   18542:	6105                	addi	sp,sp,32
   18544:	8082                	ret
   18546:	04100613          	li	a2,65
   1854a:	45a1                	li	a1,8
   1854c:	ef4f90ef          	jal	ra,11c40 <_calloc_r>
   18550:	fc28                	sd	a0,120(s0)
   18552:	87aa                	mv	a5,a0
   18554:	f971                	bnez	a0,18528 <_Balloc+0x12>
   18556:	4501                	li	a0,0
   18558:	b7cd                	j	1853a <_Balloc+0x24>
   1855a:	4905                	li	s2,1
   1855c:	0099193b          	sllw	s2,s2,s1
   18560:	fff9061b          	addiw	a2,s2,-1
   18564:	0621                	addi	a2,a2,8
   18566:	060a                	slli	a2,a2,0x2
   18568:	4585                	li	a1,1
   1856a:	8522                	mv	a0,s0
   1856c:	ed4f90ef          	jal	ra,11c40 <_calloc_r>
   18570:	d17d                	beqz	a0,18556 <_Balloc+0x40>
   18572:	c504                	sw	s1,8(a0)
   18574:	01252623          	sw	s2,12(a0)
   18578:	bf7d                	j	18536 <_Balloc+0x20>

000000000001857a <_Bfree>:
   1857a:	c981                	beqz	a1,1858a <_Bfree+0x10>
   1857c:	4598                	lw	a4,8(a1)
   1857e:	7d3c                	ld	a5,120(a0)
   18580:	070e                	slli	a4,a4,0x3
   18582:	97ba                	add	a5,a5,a4
   18584:	6398                	ld	a4,0(a5)
   18586:	e198                	sd	a4,0(a1)
   18588:	e38c                	sd	a1,0(a5)
   1858a:	8082                	ret

000000000001858c <__multadd>:
   1858c:	7179                	addi	sp,sp,-48
   1858e:	ec26                	sd	s1,24(sp)
   18590:	49c4                	lw	s1,20(a1)
   18592:	6341                	lui	t1,0x10
   18594:	f022                	sd	s0,32(sp)
   18596:	e84a                	sd	s2,16(sp)
   18598:	e44e                	sd	s3,8(sp)
   1859a:	f406                	sd	ra,40(sp)
   1859c:	e052                	sd	s4,0(sp)
   1859e:	892e                	mv	s2,a1
   185a0:	89aa                	mv	s3,a0
   185a2:	8436                	mv	s0,a3
   185a4:	01858813          	addi	a6,a1,24
   185a8:	4881                	li	a7,0
   185aa:	137d                	addi	t1,t1,-1
   185ac:	00082783          	lw	a5,0(a6)
   185b0:	0811                	addi	a6,a6,4
   185b2:	2885                	addiw	a7,a7,1
   185b4:	0067f6b3          	and	a3,a5,t1
   185b8:	02c686bb          	mulw	a3,a3,a2
   185bc:	0107d79b          	srliw	a5,a5,0x10
   185c0:	02c787bb          	mulw	a5,a5,a2
   185c4:	9ea1                	addw	a3,a3,s0
   185c6:	0106de1b          	srliw	t3,a3,0x10
   185ca:	00d37733          	and	a4,t1,a3
   185ce:	01c786bb          	addw	a3,a5,t3
   185d2:	0106979b          	slliw	a5,a3,0x10
   185d6:	9f3d                	addw	a4,a4,a5
   185d8:	fee82e23          	sw	a4,-4(a6)
   185dc:	0106d41b          	srliw	s0,a3,0x10
   185e0:	fc98c6e3          	blt	a7,s1,185ac <__multadd+0x20>
   185e4:	cc09                	beqz	s0,185fe <__multadd+0x72>
   185e6:	00c92783          	lw	a5,12(s2)
   185ea:	02f4d363          	bge	s1,a5,18610 <__multadd+0x84>
   185ee:	00448793          	addi	a5,s1,4
   185f2:	078a                	slli	a5,a5,0x2
   185f4:	97ca                	add	a5,a5,s2
   185f6:	c780                	sw	s0,8(a5)
   185f8:	2485                	addiw	s1,s1,1
   185fa:	00992a23          	sw	s1,20(s2)
   185fe:	70a2                	ld	ra,40(sp)
   18600:	7402                	ld	s0,32(sp)
   18602:	64e2                	ld	s1,24(sp)
   18604:	69a2                	ld	s3,8(sp)
   18606:	6a02                	ld	s4,0(sp)
   18608:	854a                	mv	a0,s2
   1860a:	6942                	ld	s2,16(sp)
   1860c:	6145                	addi	sp,sp,48
   1860e:	8082                	ret
   18610:	00892583          	lw	a1,8(s2)
   18614:	854e                	mv	a0,s3
   18616:	2585                	addiw	a1,a1,1
   18618:	effff0ef          	jal	ra,18516 <_Balloc>
   1861c:	01492603          	lw	a2,20(s2)
   18620:	8a2a                	mv	s4,a0
   18622:	01090593          	addi	a1,s2,16
   18626:	0609                	addi	a2,a2,2
   18628:	060a                	slli	a2,a2,0x2
   1862a:	0541                	addi	a0,a0,16
   1862c:	d37ff0ef          	jal	ra,18362 <memcpy>
   18630:	00892703          	lw	a4,8(s2)
   18634:	0789b783          	ld	a5,120(s3)
   18638:	070e                	slli	a4,a4,0x3
   1863a:	97ba                	add	a5,a5,a4
   1863c:	6398                	ld	a4,0(a5)
   1863e:	00e93023          	sd	a4,0(s2)
   18642:	0127b023          	sd	s2,0(a5)
   18646:	8952                	mv	s2,s4
   18648:	b75d                	j	185ee <__multadd+0x62>

000000000001864a <__s2b>:
   1864a:	7139                	addi	sp,sp,-64
   1864c:	f822                	sd	s0,48(sp)
   1864e:	f426                	sd	s1,40(sp)
   18650:	f04a                	sd	s2,32(sp)
   18652:	ec4e                	sd	s3,24(sp)
   18654:	e852                	sd	s4,16(sp)
   18656:	84b6                	mv	s1,a3
   18658:	842e                	mv	s0,a1
   1865a:	26a1                	addiw	a3,a3,8
   1865c:	45a5                	li	a1,9
   1865e:	fc06                	sd	ra,56(sp)
   18660:	e456                	sd	s5,8(sp)
   18662:	e05a                	sd	s6,0(sp)
   18664:	47a5                	li	a5,9
   18666:	02b6c6bb          	divw	a3,a3,a1
   1866a:	892a                	mv	s2,a0
   1866c:	89b2                	mv	s3,a2
   1866e:	8a3a                	mv	s4,a4
   18670:	0a97d163          	bge	a5,s1,18712 <__s2b+0xc8>
   18674:	4785                	li	a5,1
   18676:	4581                	li	a1,0
   18678:	0017979b          	slliw	a5,a5,0x1
   1867c:	2585                	addiw	a1,a1,1
   1867e:	fed7cde3          	blt	a5,a3,18678 <__s2b+0x2e>
   18682:	854a                	mv	a0,s2
   18684:	e93ff0ef          	jal	ra,18516 <_Balloc>
   18688:	4785                	li	a5,1
   1868a:	c95c                	sw	a5,20(a0)
   1868c:	01452c23          	sw	s4,24(a0)
   18690:	47a5                	li	a5,9
   18692:	85aa                	mv	a1,a0
   18694:	0737dc63          	bge	a5,s3,1870c <__s2b+0xc2>
   18698:	ff698a9b          	addiw	s5,s3,-10
   1869c:	1a82                	slli	s5,s5,0x20
   1869e:	020ada93          	srli	s5,s5,0x20
   186a2:	00940b13          	addi	s6,s0,9
   186a6:	00aa8793          	addi	a5,s5,10
   186aa:	943e                	add	s0,s0,a5
   186ac:	8a5a                	mv	s4,s6
   186ae:	000a4683          	lbu	a3,0(s4)
   186b2:	4629                	li	a2,10
   186b4:	854a                	mv	a0,s2
   186b6:	fd06869b          	addiw	a3,a3,-48
   186ba:	ed3ff0ef          	jal	ra,1858c <__multadd>
   186be:	0a05                	addi	s4,s4,1
   186c0:	85aa                	mv	a1,a0
   186c2:	fe8a16e3          	bne	s4,s0,186ae <__s2b+0x64>
   186c6:	002a8413          	addi	s0,s5,2
   186ca:	945a                	add	s0,s0,s6
   186cc:	0299d563          	bge	s3,s1,186f6 <__s2b+0xac>
   186d0:	34fd                	addiw	s1,s1,-1
   186d2:	413484bb          	subw	s1,s1,s3
   186d6:	1482                	slli	s1,s1,0x20
   186d8:	9081                	srli	s1,s1,0x20
   186da:	0485                	addi	s1,s1,1
   186dc:	94a2                	add	s1,s1,s0
   186de:	00044683          	lbu	a3,0(s0)
   186e2:	4629                	li	a2,10
   186e4:	854a                	mv	a0,s2
   186e6:	fd06869b          	addiw	a3,a3,-48
   186ea:	ea3ff0ef          	jal	ra,1858c <__multadd>
   186ee:	0405                	addi	s0,s0,1
   186f0:	85aa                	mv	a1,a0
   186f2:	fe9416e3          	bne	s0,s1,186de <__s2b+0x94>
   186f6:	70e2                	ld	ra,56(sp)
   186f8:	7442                	ld	s0,48(sp)
   186fa:	74a2                	ld	s1,40(sp)
   186fc:	7902                	ld	s2,32(sp)
   186fe:	69e2                	ld	s3,24(sp)
   18700:	6a42                	ld	s4,16(sp)
   18702:	6aa2                	ld	s5,8(sp)
   18704:	6b02                	ld	s6,0(sp)
   18706:	852e                	mv	a0,a1
   18708:	6121                	addi	sp,sp,64
   1870a:	8082                	ret
   1870c:	0429                	addi	s0,s0,10
   1870e:	49a5                	li	s3,9
   18710:	bf75                	j	186cc <__s2b+0x82>
   18712:	4581                	li	a1,0
   18714:	b7bd                	j	18682 <__s2b+0x38>

0000000000018716 <__hi0bits>:
   18716:	7741                	lui	a4,0xffff0
   18718:	8f69                	and	a4,a4,a0
   1871a:	87aa                	mv	a5,a0
   1871c:	4501                	li	a0,0
   1871e:	e701                	bnez	a4,18726 <__hi0bits+0x10>
   18720:	0107979b          	slliw	a5,a5,0x10
   18724:	4541                	li	a0,16
   18726:	ff000737          	lui	a4,0xff000
   1872a:	8f7d                	and	a4,a4,a5
   1872c:	e701                	bnez	a4,18734 <__hi0bits+0x1e>
   1872e:	0087979b          	slliw	a5,a5,0x8
   18732:	2521                	addiw	a0,a0,8
   18734:	f0000737          	lui	a4,0xf0000
   18738:	8f7d                	and	a4,a4,a5
   1873a:	e701                	bnez	a4,18742 <__hi0bits+0x2c>
   1873c:	0047979b          	slliw	a5,a5,0x4
   18740:	2511                	addiw	a0,a0,4
   18742:	c0000737          	lui	a4,0xc0000
   18746:	8f7d                	and	a4,a4,a5
   18748:	e701                	bnez	a4,18750 <__hi0bits+0x3a>
   1874a:	0027979b          	slliw	a5,a5,0x2
   1874e:	2509                	addiw	a0,a0,2
   18750:	0007c763          	bltz	a5,1875e <__hi0bits+0x48>
   18754:	02179713          	slli	a4,a5,0x21
   18758:	2505                	addiw	a0,a0,1
   1875a:	00075363          	bgez	a4,18760 <__hi0bits+0x4a>
   1875e:	8082                	ret
   18760:	02000513          	li	a0,32
   18764:	8082                	ret

0000000000018766 <__lo0bits>:
   18766:	411c                	lw	a5,0(a0)
   18768:	872a                	mv	a4,a0
   1876a:	0077f693          	andi	a3,a5,7
   1876e:	863e                	mv	a2,a5
   18770:	ce81                	beqz	a3,18788 <__lo0bits+0x22>
   18772:	0017f693          	andi	a3,a5,1
   18776:	4501                	li	a0,0
   18778:	eab9                	bnez	a3,187ce <__lo0bits+0x68>
   1877a:	8a09                	andi	a2,a2,2
   1877c:	ce21                	beqz	a2,187d4 <__lo0bits+0x6e>
   1877e:	0017d79b          	srliw	a5,a5,0x1
   18782:	c31c                	sw	a5,0(a4)
   18784:	4505                	li	a0,1
   18786:	8082                	ret
   18788:	03079693          	slli	a3,a5,0x30
   1878c:	92c1                	srli	a3,a3,0x30
   1878e:	4501                	li	a0,0
   18790:	e681                	bnez	a3,18798 <__lo0bits+0x32>
   18792:	0107d79b          	srliw	a5,a5,0x10
   18796:	4541                	li	a0,16
   18798:	0ff7f693          	zext.b	a3,a5
   1879c:	e681                	bnez	a3,187a4 <__lo0bits+0x3e>
   1879e:	2521                	addiw	a0,a0,8
   187a0:	0087d79b          	srliw	a5,a5,0x8
   187a4:	00f7f693          	andi	a3,a5,15
   187a8:	e681                	bnez	a3,187b0 <__lo0bits+0x4a>
   187aa:	2511                	addiw	a0,a0,4
   187ac:	0047d79b          	srliw	a5,a5,0x4
   187b0:	0037f693          	andi	a3,a5,3
   187b4:	e681                	bnez	a3,187bc <__lo0bits+0x56>
   187b6:	2509                	addiw	a0,a0,2
   187b8:	0027d79b          	srliw	a5,a5,0x2
   187bc:	0017f693          	andi	a3,a5,1
   187c0:	ea81                	bnez	a3,187d0 <__lo0bits+0x6a>
   187c2:	0017d79b          	srliw	a5,a5,0x1
   187c6:	2505                	addiw	a0,a0,1
   187c8:	e781                	bnez	a5,187d0 <__lo0bits+0x6a>
   187ca:	02000513          	li	a0,32
   187ce:	8082                	ret
   187d0:	c31c                	sw	a5,0(a4)
   187d2:	8082                	ret
   187d4:	0027d79b          	srliw	a5,a5,0x2
   187d8:	c31c                	sw	a5,0(a4)
   187da:	4509                	li	a0,2
   187dc:	8082                	ret

00000000000187de <__i2b>:
   187de:	1141                	addi	sp,sp,-16
   187e0:	e022                	sd	s0,0(sp)
   187e2:	842e                	mv	s0,a1
   187e4:	4585                	li	a1,1
   187e6:	e406                	sd	ra,8(sp)
   187e8:	d2fff0ef          	jal	ra,18516 <_Balloc>
   187ec:	60a2                	ld	ra,8(sp)
   187ee:	cd00                	sw	s0,24(a0)
   187f0:	6402                	ld	s0,0(sp)
   187f2:	4705                	li	a4,1
   187f4:	c958                	sw	a4,20(a0)
   187f6:	0141                	addi	sp,sp,16
   187f8:	8082                	ret

00000000000187fa <__multiply>:
   187fa:	7179                	addi	sp,sp,-48
   187fc:	e84a                	sd	s2,16(sp)
   187fe:	e44e                	sd	s3,8(sp)
   18800:	01462903          	lw	s2,20(a2)
   18804:	0145a983          	lw	s3,20(a1)
   18808:	ec26                	sd	s1,24(sp)
   1880a:	e052                	sd	s4,0(sp)
   1880c:	f406                	sd	ra,40(sp)
   1880e:	f022                	sd	s0,32(sp)
   18810:	8a2e                	mv	s4,a1
   18812:	84b2                	mv	s1,a2
   18814:	0129c763          	blt	s3,s2,18822 <__multiply+0x28>
   18818:	87ca                	mv	a5,s2
   1881a:	84ae                	mv	s1,a1
   1881c:	894e                	mv	s2,s3
   1881e:	8a32                	mv	s4,a2
   18820:	89be                	mv	s3,a5
   18822:	44dc                	lw	a5,12(s1)
   18824:	0139043b          	addw	s0,s2,s3
   18828:	448c                	lw	a1,8(s1)
   1882a:	0087d363          	bge	a5,s0,18830 <__multiply+0x36>
   1882e:	2585                	addiw	a1,a1,1
   18830:	ce7ff0ef          	jal	ra,18516 <_Balloc>
   18834:	01850313          	addi	t1,a0,24
   18838:	00241893          	slli	a7,s0,0x2
   1883c:	989a                	add	a7,a7,t1
   1883e:	879a                	mv	a5,t1
   18840:	01137763          	bgeu	t1,a7,1884e <__multiply+0x54>
   18844:	0007a023          	sw	zero,0(a5)
   18848:	0791                	addi	a5,a5,4
   1884a:	ff17ede3          	bltu	a5,a7,18844 <__multiply+0x4a>
   1884e:	018a0813          	addi	a6,s4,24
   18852:	00299e13          	slli	t3,s3,0x2
   18856:	01848e93          	addi	t4,s1,24
   1885a:	00291593          	slli	a1,s2,0x2
   1885e:	9e42                	add	t3,t3,a6
   18860:	95f6                	add	a1,a1,t4
   18862:	0fc87a63          	bgeu	a6,t3,18956 <__multiply+0x15c>
   18866:	01948793          	addi	a5,s1,25
   1886a:	4f11                	li	t5,4
   1886c:	10f5f763          	bgeu	a1,a5,1897a <__multiply+0x180>
   18870:	6641                	lui	a2,0x10
   18872:	167d                	addi	a2,a2,-1
   18874:	a809                	j	18886 <__multiply+0x8c>
   18876:	0102d29b          	srliw	t0,t0,0x10
   1887a:	06029c63          	bnez	t0,188f2 <__multiply+0xf8>
   1887e:	0811                	addi	a6,a6,4
   18880:	0311                	addi	t1,t1,4
   18882:	0dc87a63          	bgeu	a6,t3,18956 <__multiply+0x15c>
   18886:	00082283          	lw	t0,0(a6)
   1888a:	00c2f4b3          	and	s1,t0,a2
   1888e:	d4e5                	beqz	s1,18876 <__multiply+0x7c>
   18890:	839a                	mv	t2,t1
   18892:	82f6                	mv	t0,t4
   18894:	4901                	li	s2,0
   18896:	0002a683          	lw	a3,0(t0) # 12616 <memset+0x90>
   1889a:	0003af83          	lw	t6,0(t2)
   1889e:	0391                	addi	t2,t2,4
   188a0:	00c6f7b3          	and	a5,a3,a2
   188a4:	029787bb          	mulw	a5,a5,s1
   188a8:	0106d71b          	srliw	a4,a3,0x10
   188ac:	00cff6b3          	and	a3,t6,a2
   188b0:	010fdf9b          	srliw	t6,t6,0x10
   188b4:	0291                	addi	t0,t0,4
   188b6:	0297073b          	mulw	a4,a4,s1
   188ba:	9fb5                	addw	a5,a5,a3
   188bc:	012787bb          	addw	a5,a5,s2
   188c0:	0107d69b          	srliw	a3,a5,0x10
   188c4:	8ff1                	and	a5,a5,a2
   188c6:	01f7073b          	addw	a4,a4,t6
   188ca:	9f35                	addw	a4,a4,a3
   188cc:	0107169b          	slliw	a3,a4,0x10
   188d0:	8fd5                	or	a5,a5,a3
   188d2:	fef3ae23          	sw	a5,-4(t2)
   188d6:	0107591b          	srliw	s2,a4,0x10
   188da:	fab2eee3          	bltu	t0,a1,18896 <__multiply+0x9c>
   188de:	01e307b3          	add	a5,t1,t5
   188e2:	0127a023          	sw	s2,0(a5)
   188e6:	00082283          	lw	t0,0(a6)
   188ea:	0102d29b          	srliw	t0,t0,0x10
   188ee:	f80288e3          	beqz	t0,1887e <__multiply+0x84>
   188f2:	00032683          	lw	a3,0(t1) # 10000 <register_fini-0xe8>
   188f6:	839a                	mv	t2,t1
   188f8:	8ff6                	mv	t6,t4
   188fa:	84b6                	mv	s1,a3
   188fc:	4701                	li	a4,0
   188fe:	000fa783          	lw	a5,0(t6)
   18902:	0104d99b          	srliw	s3,s1,0x10
   18906:	8ef1                	and	a3,a3,a2
   18908:	8ff1                	and	a5,a5,a2
   1890a:	025787bb          	mulw	a5,a5,t0
   1890e:	0043a483          	lw	s1,4(t2)
   18912:	0391                	addi	t2,t2,4
   18914:	0f91                	addi	t6,t6,4
   18916:	00c4f933          	and	s2,s1,a2
   1891a:	013787bb          	addw	a5,a5,s3
   1891e:	9fb9                	addw	a5,a5,a4
   18920:	0107971b          	slliw	a4,a5,0x10
   18924:	8ed9                	or	a3,a3,a4
   18926:	fed3ae23          	sw	a3,-4(t2)
   1892a:	ffefd703          	lhu	a4,-2(t6)
   1892e:	0107d79b          	srliw	a5,a5,0x10
   18932:	0257073b          	mulw	a4,a4,t0
   18936:	0127073b          	addw	a4,a4,s2
   1893a:	9fb9                	addw	a5,a5,a4
   1893c:	0007869b          	sext.w	a3,a5
   18940:	0107d71b          	srliw	a4,a5,0x10
   18944:	fabfede3          	bltu	t6,a1,188fe <__multiply+0x104>
   18948:	01e307b3          	add	a5,t1,t5
   1894c:	c394                	sw	a3,0(a5)
   1894e:	0811                	addi	a6,a6,4
   18950:	0311                	addi	t1,t1,4
   18952:	f3c86ae3          	bltu	a6,t3,18886 <__multiply+0x8c>
   18956:	00804563          	bgtz	s0,18960 <__multiply+0x166>
   1895a:	a039                	j	18968 <__multiply+0x16e>
   1895c:	347d                	addiw	s0,s0,-1
   1895e:	c409                	beqz	s0,18968 <__multiply+0x16e>
   18960:	ffc8a783          	lw	a5,-4(a7)
   18964:	18f1                	addi	a7,a7,-4
   18966:	dbfd                	beqz	a5,1895c <__multiply+0x162>
   18968:	70a2                	ld	ra,40(sp)
   1896a:	c940                	sw	s0,20(a0)
   1896c:	7402                	ld	s0,32(sp)
   1896e:	64e2                	ld	s1,24(sp)
   18970:	6942                	ld	s2,16(sp)
   18972:	69a2                	ld	s3,8(sp)
   18974:	6a02                	ld	s4,0(sp)
   18976:	6145                	addi	sp,sp,48
   18978:	8082                	ret
   1897a:	40958f33          	sub	t5,a1,s1
   1897e:	1f1d                	addi	t5,t5,-25
   18980:	ffcf7f13          	andi	t5,t5,-4
   18984:	0f11                	addi	t5,t5,4
   18986:	b5ed                	j	18870 <__multiply+0x76>

0000000000018988 <__pow5mult>:
   18988:	7179                	addi	sp,sp,-48
   1898a:	f022                	sd	s0,32(sp)
   1898c:	e44e                	sd	s3,8(sp)
   1898e:	e052                	sd	s4,0(sp)
   18990:	f406                	sd	ra,40(sp)
   18992:	ec26                	sd	s1,24(sp)
   18994:	e84a                	sd	s2,16(sp)
   18996:	00367793          	andi	a5,a2,3
   1899a:	8432                	mv	s0,a2
   1899c:	89aa                	mv	s3,a0
   1899e:	8a2e                	mv	s4,a1
   189a0:	efad                	bnez	a5,18a1a <__pow5mult+0x92>
   189a2:	8409                	srai	s0,s0,0x2
   189a4:	8952                	mv	s2,s4
   189a6:	c429                	beqz	s0,189f0 <__pow5mult+0x68>
   189a8:	0709b483          	ld	s1,112(s3)
   189ac:	c4c1                	beqz	s1,18a34 <__pow5mult+0xac>
   189ae:	00147793          	andi	a5,s0,1
   189b2:	8952                	mv	s2,s4
   189b4:	eb89                	bnez	a5,189c6 <__pow5mult+0x3e>
   189b6:	8405                	srai	s0,s0,0x1
   189b8:	cc05                	beqz	s0,189f0 <__pow5mult+0x68>
   189ba:	6088                	ld	a0,0(s1)
   189bc:	c139                	beqz	a0,18a02 <__pow5mult+0x7a>
   189be:	84aa                	mv	s1,a0
   189c0:	00147793          	andi	a5,s0,1
   189c4:	dbed                	beqz	a5,189b6 <__pow5mult+0x2e>
   189c6:	8626                	mv	a2,s1
   189c8:	85ca                	mv	a1,s2
   189ca:	854e                	mv	a0,s3
   189cc:	e2fff0ef          	jal	ra,187fa <__multiply>
   189d0:	04090363          	beqz	s2,18a16 <__pow5mult+0x8e>
   189d4:	00892703          	lw	a4,8(s2)
   189d8:	0789b783          	ld	a5,120(s3)
   189dc:	8405                	srai	s0,s0,0x1
   189de:	070e                	slli	a4,a4,0x3
   189e0:	97ba                	add	a5,a5,a4
   189e2:	6398                	ld	a4,0(a5)
   189e4:	00e93023          	sd	a4,0(s2)
   189e8:	0127b023          	sd	s2,0(a5)
   189ec:	892a                	mv	s2,a0
   189ee:	f471                	bnez	s0,189ba <__pow5mult+0x32>
   189f0:	70a2                	ld	ra,40(sp)
   189f2:	7402                	ld	s0,32(sp)
   189f4:	64e2                	ld	s1,24(sp)
   189f6:	69a2                	ld	s3,8(sp)
   189f8:	6a02                	ld	s4,0(sp)
   189fa:	854a                	mv	a0,s2
   189fc:	6942                	ld	s2,16(sp)
   189fe:	6145                	addi	sp,sp,48
   18a00:	8082                	ret
   18a02:	8626                	mv	a2,s1
   18a04:	85a6                	mv	a1,s1
   18a06:	854e                	mv	a0,s3
   18a08:	df3ff0ef          	jal	ra,187fa <__multiply>
   18a0c:	e088                	sd	a0,0(s1)
   18a0e:	00053023          	sd	zero,0(a0)
   18a12:	84aa                	mv	s1,a0
   18a14:	b775                	j	189c0 <__pow5mult+0x38>
   18a16:	892a                	mv	s2,a0
   18a18:	bf79                	j	189b6 <__pow5mult+0x2e>
   18a1a:	37fd                	addiw	a5,a5,-1
   18a1c:	00006717          	auipc	a4,0x6
   18a20:	f9c70713          	addi	a4,a4,-100 # 1e9b8 <p05.3314>
   18a24:	078a                	slli	a5,a5,0x2
   18a26:	97ba                	add	a5,a5,a4
   18a28:	4390                	lw	a2,0(a5)
   18a2a:	4681                	li	a3,0
   18a2c:	b61ff0ef          	jal	ra,1858c <__multadd>
   18a30:	8a2a                	mv	s4,a0
   18a32:	bf85                	j	189a2 <__pow5mult+0x1a>
   18a34:	4585                	li	a1,1
   18a36:	854e                	mv	a0,s3
   18a38:	adfff0ef          	jal	ra,18516 <_Balloc>
   18a3c:	27100793          	li	a5,625
   18a40:	cd1c                	sw	a5,24(a0)
   18a42:	4785                	li	a5,1
   18a44:	c95c                	sw	a5,20(a0)
   18a46:	06a9b823          	sd	a0,112(s3)
   18a4a:	84aa                	mv	s1,a0
   18a4c:	00053023          	sd	zero,0(a0)
   18a50:	bfb9                	j	189ae <__pow5mult+0x26>

0000000000018a52 <__lshift>:
   18a52:	7139                	addi	sp,sp,-64
   18a54:	f04a                	sd	s2,32(sp)
   18a56:	0145a903          	lw	s2,20(a1)
   18a5a:	45dc                	lw	a5,12(a1)
   18a5c:	e456                	sd	s5,8(sp)
   18a5e:	40565a9b          	sraiw	s5,a2,0x5
   18a62:	0159093b          	addw	s2,s2,s5
   18a66:	f822                	sd	s0,48(sp)
   18a68:	f426                	sd	s1,40(sp)
   18a6a:	ec4e                	sd	s3,24(sp)
   18a6c:	e852                	sd	s4,16(sp)
   18a6e:	e05a                	sd	s6,0(sp)
   18a70:	fc06                	sd	ra,56(sp)
   18a72:	0019049b          	addiw	s1,s2,1
   18a76:	842e                	mv	s0,a1
   18a78:	8a32                	mv	s4,a2
   18a7a:	458c                	lw	a1,8(a1)
   18a7c:	89aa                	mv	s3,a0
   18a7e:	40565b13          	srai	s6,a2,0x5
   18a82:	0097d763          	bge	a5,s1,18a90 <__lshift+0x3e>
   18a86:	0017979b          	slliw	a5,a5,0x1
   18a8a:	2585                	addiw	a1,a1,1
   18a8c:	fe97cde3          	blt	a5,s1,18a86 <__lshift+0x34>
   18a90:	854e                	mv	a0,s3
   18a92:	a85ff0ef          	jal	ra,18516 <_Balloc>
   18a96:	01850693          	addi	a3,a0,24
   18a9a:	03605363          	blez	s6,18ac0 <__lshift+0x6e>
   18a9e:	3afd                	addiw	s5,s5,-1
   18aa0:	1a82                	slli	s5,s5,0x20
   18aa2:	020ada93          	srli	s5,s5,0x20
   18aa6:	007a8713          	addi	a4,s5,7
   18aaa:	070a                	slli	a4,a4,0x2
   18aac:	972a                	add	a4,a4,a0
   18aae:	87b6                	mv	a5,a3
   18ab0:	0791                	addi	a5,a5,4
   18ab2:	fe07ae23          	sw	zero,-4(a5)
   18ab6:	fee79de3          	bne	a5,a4,18ab0 <__lshift+0x5e>
   18aba:	0a85                	addi	s5,s5,1
   18abc:	0a8a                	slli	s5,s5,0x2
   18abe:	96d6                	add	a3,a3,s5
   18ac0:	01442803          	lw	a6,20(s0)
   18ac4:	01840793          	addi	a5,s0,24
   18ac8:	01fa7593          	andi	a1,s4,31
   18acc:	080a                	slli	a6,a6,0x2
   18ace:	983e                	add	a6,a6,a5
   18ad0:	c1b5                	beqz	a1,18b34 <__lshift+0xe2>
   18ad2:	02000313          	li	t1,32
   18ad6:	40b3033b          	subw	t1,t1,a1
   18ada:	88b6                	mv	a7,a3
   18adc:	4701                	li	a4,0
   18ade:	4390                	lw	a2,0(a5)
   18ae0:	0891                	addi	a7,a7,4
   18ae2:	0791                	addi	a5,a5,4
   18ae4:	00b6163b          	sllw	a2,a2,a1
   18ae8:	8f51                	or	a4,a4,a2
   18aea:	fee8ae23          	sw	a4,-4(a7)
   18aee:	ffc7a703          	lw	a4,-4(a5)
   18af2:	0067573b          	srlw	a4,a4,t1
   18af6:	ff07e4e3          	bltu	a5,a6,18ade <__lshift+0x8c>
   18afa:	01940613          	addi	a2,s0,25
   18afe:	4791                	li	a5,4
   18b00:	04c87963          	bgeu	a6,a2,18b52 <__lshift+0x100>
   18b04:	96be                	add	a3,a3,a5
   18b06:	c298                	sw	a4,0(a3)
   18b08:	c311                	beqz	a4,18b0c <__lshift+0xba>
   18b0a:	8926                	mv	s2,s1
   18b0c:	4418                	lw	a4,8(s0)
   18b0e:	0789b783          	ld	a5,120(s3)
   18b12:	01252a23          	sw	s2,20(a0)
   18b16:	070e                	slli	a4,a4,0x3
   18b18:	97ba                	add	a5,a5,a4
   18b1a:	6398                	ld	a4,0(a5)
   18b1c:	70e2                	ld	ra,56(sp)
   18b1e:	74a2                	ld	s1,40(sp)
   18b20:	e018                	sd	a4,0(s0)
   18b22:	e380                	sd	s0,0(a5)
   18b24:	7442                	ld	s0,48(sp)
   18b26:	7902                	ld	s2,32(sp)
   18b28:	69e2                	ld	s3,24(sp)
   18b2a:	6a42                	ld	s4,16(sp)
   18b2c:	6aa2                	ld	s5,8(sp)
   18b2e:	6b02                	ld	s6,0(sp)
   18b30:	6121                	addi	sp,sp,64
   18b32:	8082                	ret
   18b34:	4398                	lw	a4,0(a5)
   18b36:	0791                	addi	a5,a5,4
   18b38:	0691                	addi	a3,a3,4
   18b3a:	fee6ae23          	sw	a4,-4(a3)
   18b3e:	fd07f7e3          	bgeu	a5,a6,18b0c <__lshift+0xba>
   18b42:	4398                	lw	a4,0(a5)
   18b44:	0791                	addi	a5,a5,4
   18b46:	0691                	addi	a3,a3,4
   18b48:	fee6ae23          	sw	a4,-4(a3)
   18b4c:	ff07e4e3          	bltu	a5,a6,18b34 <__lshift+0xe2>
   18b50:	bf75                	j	18b0c <__lshift+0xba>
   18b52:	408807b3          	sub	a5,a6,s0
   18b56:	179d                	addi	a5,a5,-25
   18b58:	9bf1                	andi	a5,a5,-4
   18b5a:	0791                	addi	a5,a5,4
   18b5c:	96be                	add	a3,a3,a5
   18b5e:	c298                	sw	a4,0(a3)
   18b60:	d755                	beqz	a4,18b0c <__lshift+0xba>
   18b62:	b765                	j	18b0a <__lshift+0xb8>

0000000000018b64 <__mcmp>:
   18b64:	49dc                	lw	a5,20(a1)
   18b66:	882a                	mv	a6,a0
   18b68:	4948                	lw	a0,20(a0)
   18b6a:	9d1d                	subw	a0,a0,a5
   18b6c:	e50d                	bnez	a0,18b96 <__mcmp+0x32>
   18b6e:	078a                	slli	a5,a5,0x2
   18b70:	0861                	addi	a6,a6,24
   18b72:	05e1                	addi	a1,a1,24
   18b74:	00f80733          	add	a4,a6,a5
   18b78:	97ae                	add	a5,a5,a1
   18b7a:	a019                	j	18b80 <__mcmp+0x1c>
   18b7c:	00e87d63          	bgeu	a6,a4,18b96 <__mcmp+0x32>
   18b80:	ffc72603          	lw	a2,-4(a4)
   18b84:	ffc7a683          	lw	a3,-4(a5)
   18b88:	1771                	addi	a4,a4,-4
   18b8a:	17f1                	addi	a5,a5,-4
   18b8c:	fed608e3          	beq	a2,a3,18b7c <__mcmp+0x18>
   18b90:	557d                	li	a0,-1
   18b92:	00d67363          	bgeu	a2,a3,18b98 <__mcmp+0x34>
   18b96:	8082                	ret
   18b98:	4505                	li	a0,1
   18b9a:	8082                	ret

0000000000018b9c <__mdiff>:
   18b9c:	7179                	addi	sp,sp,-48
   18b9e:	4a58                	lw	a4,20(a2)
   18ba0:	e052                	sd	s4,0(sp)
   18ba2:	0145aa03          	lw	s4,20(a1)
   18ba6:	f022                	sd	s0,32(sp)
   18ba8:	ec26                	sd	s1,24(sp)
   18baa:	e84a                	sd	s2,16(sp)
   18bac:	e44e                	sd	s3,8(sp)
   18bae:	f406                	sd	ra,40(sp)
   18bb0:	40ea0a3b          	subw	s4,s4,a4
   18bb4:	892e                	mv	s2,a1
   18bb6:	89b2                	mv	s3,a2
   18bb8:	01858413          	addi	s0,a1,24
   18bbc:	01860493          	addi	s1,a2,24 # 10018 <register_fini-0xd0>
   18bc0:	020a1b63          	bnez	s4,18bf6 <__mdiff+0x5a>
   18bc4:	070a                	slli	a4,a4,0x2
   18bc6:	00e407b3          	add	a5,s0,a4
   18bca:	9726                	add	a4,a4,s1
   18bcc:	a019                	j	18bd2 <__mdiff+0x36>
   18bce:	12f47563          	bgeu	s0,a5,18cf8 <__mdiff+0x15c>
   18bd2:	ffc7a803          	lw	a6,-4(a5)
   18bd6:	ffc72683          	lw	a3,-4(a4)
   18bda:	17f1                	addi	a5,a5,-4
   18bdc:	1771                	addi	a4,a4,-4
   18bde:	fed808e3          	beq	a6,a3,18bce <__mdiff+0x32>
   18be2:	00d87d63          	bgeu	a6,a3,18bfc <__mdiff+0x60>
   18be6:	8722                	mv	a4,s0
   18be8:	87ca                	mv	a5,s2
   18bea:	8426                	mv	s0,s1
   18bec:	894e                	mv	s2,s3
   18bee:	84ba                	mv	s1,a4
   18bf0:	89be                	mv	s3,a5
   18bf2:	4a05                	li	s4,1
   18bf4:	a021                	j	18bfc <__mdiff+0x60>
   18bf6:	fe0a48e3          	bltz	s4,18be6 <__mdiff+0x4a>
   18bfa:	4a01                	li	s4,0
   18bfc:	00892583          	lw	a1,8(s2)
   18c00:	917ff0ef          	jal	ra,18516 <_Balloc>
   18c04:	01492803          	lw	a6,20(s2)
   18c08:	0149af03          	lw	t5,20(s3)
   18c0c:	01850f93          	addi	t6,a0,24
   18c10:	00281893          	slli	a7,a6,0x2
   18c14:	0f0a                	slli	t5,t5,0x2
   18c16:	6341                	lui	t1,0x10
   18c18:	01452823          	sw	s4,16(a0)
   18c1c:	98a2                	add	a7,a7,s0
   18c1e:	9f26                	add	t5,t5,s1
   18c20:	8efe                	mv	t4,t6
   18c22:	85a6                	mv	a1,s1
   18c24:	8e22                	mv	t3,s0
   18c26:	4701                	li	a4,0
   18c28:	137d                	addi	t1,t1,-1
   18c2a:	000e2683          	lw	a3,0(t3)
   18c2e:	4190                	lw	a2,0(a1)
   18c30:	0e91                	addi	t4,t4,4
   18c32:	0066f7b3          	and	a5,a3,t1
   18c36:	9fb9                	addw	a5,a5,a4
   18c38:	00667733          	and	a4,a2,t1
   18c3c:	9f99                	subw	a5,a5,a4
   18c3e:	0106561b          	srliw	a2,a2,0x10
   18c42:	0106d71b          	srliw	a4,a3,0x10
   18c46:	9f11                	subw	a4,a4,a2
   18c48:	4107d69b          	sraiw	a3,a5,0x10
   18c4c:	9f35                	addw	a4,a4,a3
   18c4e:	0107169b          	slliw	a3,a4,0x10
   18c52:	0067f7b3          	and	a5,a5,t1
   18c56:	8fd5                	or	a5,a5,a3
   18c58:	2781                	sext.w	a5,a5
   18c5a:	0591                	addi	a1,a1,4
   18c5c:	fefeae23          	sw	a5,-4(t4)
   18c60:	0e11                	addi	t3,t3,4
   18c62:	4107571b          	sraiw	a4,a4,0x10
   18c66:	fde5e2e3          	bltu	a1,t5,18c2a <__mdiff+0x8e>
   18c6a:	fff4c613          	not	a2,s1
   18c6e:	967a                	add	a2,a2,t5
   18c70:	0485                	addi	s1,s1,1
   18c72:	8209                	srli	a2,a2,0x2
   18c74:	4681                	li	a3,0
   18c76:	009f6463          	bltu	t5,s1,18c7e <__mdiff+0xe2>
   18c7a:	00261693          	slli	a3,a2,0x2
   18c7e:	96fe                	add	a3,a3,t6
   18c80:	4591                	li	a1,4
   18c82:	009f6563          	bltu	t5,s1,18c8c <__mdiff+0xf0>
   18c86:	0605                	addi	a2,a2,1
   18c88:	00261593          	slli	a1,a2,0x2
   18c8c:	942e                	add	s0,s0,a1
   18c8e:	9fae                	add	t6,t6,a1
   18c90:	05147463          	bgeu	s0,a7,18cd8 <__mdiff+0x13c>
   18c94:	6341                	lui	t1,0x10
   18c96:	85fe                	mv	a1,t6
   18c98:	8622                	mv	a2,s0
   18c9a:	137d                	addi	t1,t1,-1
   18c9c:	4214                	lw	a3,0(a2)
   18c9e:	0591                	addi	a1,a1,4
   18ca0:	0611                	addi	a2,a2,4
   18ca2:	0066f7b3          	and	a5,a3,t1
   18ca6:	9fb9                	addw	a5,a5,a4
   18ca8:	4107de1b          	sraiw	t3,a5,0x10
   18cac:	0106d71b          	srliw	a4,a3,0x10
   18cb0:	01c7073b          	addw	a4,a4,t3
   18cb4:	01071e1b          	slliw	t3,a4,0x10
   18cb8:	0067f7b3          	and	a5,a5,t1
   18cbc:	01c7e7b3          	or	a5,a5,t3
   18cc0:	2781                	sext.w	a5,a5
   18cc2:	fef5ae23          	sw	a5,-4(a1)
   18cc6:	4107571b          	sraiw	a4,a4,0x10
   18cca:	fd1669e3          	bltu	a2,a7,18c9c <__mdiff+0x100>
   18cce:	fff88693          	addi	a3,a7,-1
   18cd2:	8e81                	sub	a3,a3,s0
   18cd4:	9af1                	andi	a3,a3,-4
   18cd6:	96fe                	add	a3,a3,t6
   18cd8:	e791                	bnez	a5,18ce4 <__mdiff+0x148>
   18cda:	ffc6a783          	lw	a5,-4(a3)
   18cde:	387d                	addiw	a6,a6,-1
   18ce0:	16f1                	addi	a3,a3,-4
   18ce2:	dfe5                	beqz	a5,18cda <__mdiff+0x13e>
   18ce4:	70a2                	ld	ra,40(sp)
   18ce6:	7402                	ld	s0,32(sp)
   18ce8:	01052a23          	sw	a6,20(a0)
   18cec:	64e2                	ld	s1,24(sp)
   18cee:	6942                	ld	s2,16(sp)
   18cf0:	69a2                	ld	s3,8(sp)
   18cf2:	6a02                	ld	s4,0(sp)
   18cf4:	6145                	addi	sp,sp,48
   18cf6:	8082                	ret
   18cf8:	4581                	li	a1,0
   18cfa:	81dff0ef          	jal	ra,18516 <_Balloc>
   18cfe:	70a2                	ld	ra,40(sp)
   18d00:	7402                	ld	s0,32(sp)
   18d02:	4785                	li	a5,1
   18d04:	c95c                	sw	a5,20(a0)
   18d06:	00052c23          	sw	zero,24(a0)
   18d0a:	64e2                	ld	s1,24(sp)
   18d0c:	6942                	ld	s2,16(sp)
   18d0e:	69a2                	ld	s3,8(sp)
   18d10:	6a02                	ld	s4,0(sp)
   18d12:	6145                	addi	sp,sp,48
   18d14:	8082                	ret

0000000000018d16 <__ulp>:
   18d16:	e20507d3          	fmv.x.d	a5,fa0
   18d1a:	7ff00737          	lui	a4,0x7ff00
   18d1e:	9381                	srli	a5,a5,0x20
   18d20:	8f7d                	and	a4,a4,a5
   18d22:	fcc007b7          	lui	a5,0xfcc00
   18d26:	9fb9                	addw	a5,a5,a4
   18d28:	0007871b          	sext.w	a4,a5
   18d2c:	00e05663          	blez	a4,18d38 <__ulp+0x22>
   18d30:	1782                	slli	a5,a5,0x20
   18d32:	f2078553          	fmv.d.x	fa0,a5
   18d36:	8082                	ret
   18d38:	40f007bb          	negw	a5,a5
   18d3c:	4147d71b          	sraiw	a4,a5,0x14
   18d40:	46cd                	li	a3,19
   18d42:	00e6c763          	blt	a3,a4,18d50 <__ulp+0x3a>
   18d46:	000807b7          	lui	a5,0x80
   18d4a:	40e7d7bb          	sraw	a5,a5,a4
   18d4e:	b7cd                	j	18d30 <__ulp+0x1a>
   18d50:	fec7069b          	addiw	a3,a4,-20
   18d54:	4679                	li	a2,30
   18d56:	4781                	li	a5,0
   18d58:	4705                	li	a4,1
   18d5a:	00d64663          	blt	a2,a3,18d66 <__ulp+0x50>
   18d5e:	80000737          	lui	a4,0x80000
   18d62:	00d7573b          	srlw	a4,a4,a3
   18d66:	9381                	srli	a5,a5,0x20
   18d68:	1702                	slli	a4,a4,0x20
   18d6a:	9301                	srli	a4,a4,0x20
   18d6c:	1782                	slli	a5,a5,0x20
   18d6e:	8fd9                	or	a5,a5,a4
   18d70:	f2078553          	fmv.d.x	fa0,a5
   18d74:	8082                	ret

0000000000018d76 <__b2d>:
   18d76:	7179                	addi	sp,sp,-48
   18d78:	ec26                	sd	s1,24(sp)
   18d7a:	4944                	lw	s1,20(a0)
   18d7c:	f022                	sd	s0,32(sp)
   18d7e:	01850413          	addi	s0,a0,24
   18d82:	048a                	slli	s1,s1,0x2
   18d84:	94a2                	add	s1,s1,s0
   18d86:	e84a                	sd	s2,16(sp)
   18d88:	ffc4a903          	lw	s2,-4(s1)
   18d8c:	e44e                	sd	s3,8(sp)
   18d8e:	e052                	sd	s4,0(sp)
   18d90:	854a                	mv	a0,s2
   18d92:	89ae                	mv	s3,a1
   18d94:	f406                	sd	ra,40(sp)
   18d96:	981ff0ef          	jal	ra,18716 <__hi0bits>
   18d9a:	02000693          	li	a3,32
   18d9e:	40a687bb          	subw	a5,a3,a0
   18da2:	00f9a023          	sw	a5,0(s3)
   18da6:	47a9                	li	a5,10
   18da8:	ffc48a13          	addi	s4,s1,-4
   18dac:	08a7d063          	bge	a5,a0,18e2c <__b2d+0xb6>
   18db0:	ff55079b          	addiw	a5,a0,-11
   18db4:	05447863          	bgeu	s0,s4,18e04 <__b2d+0x8e>
   18db8:	ff84a703          	lw	a4,-8(s1)
   18dbc:	c7b1                	beqz	a5,18e08 <__b2d+0x92>
   18dbe:	40f6853b          	subw	a0,a3,a5
   18dc2:	00f916bb          	sllw	a3,s2,a5
   18dc6:	00a7593b          	srlw	s2,a4,a0
   18dca:	0126e6b3          	or	a3,a3,s2
   18dce:	3ff00937          	lui	s2,0x3ff00
   18dd2:	0126e6b3          	or	a3,a3,s2
   18dd6:	00f7173b          	sllw	a4,a4,a5
   18dda:	ff848613          	addi	a2,s1,-8
   18dde:	02069793          	slli	a5,a3,0x20
   18de2:	0007069b          	sext.w	a3,a4
   18de6:	00c47963          	bgeu	s0,a2,18df8 <__b2d+0x82>
   18dea:	ff44a683          	lw	a3,-12(s1)
   18dee:	00a6d53b          	srlw	a0,a3,a0
   18df2:	00e566b3          	or	a3,a0,a4
   18df6:	2681                	sext.w	a3,a3
   18df8:	9381                	srli	a5,a5,0x20
   18dfa:	1682                	slli	a3,a3,0x20
   18dfc:	9281                	srli	a3,a3,0x20
   18dfe:	1782                	slli	a5,a5,0x20
   18e00:	8fd5                	or	a5,a5,a3
   18e02:	a819                	j	18e18 <__b2d+0xa2>
   18e04:	4701                	li	a4,0
   18e06:	efa1                	bnez	a5,18e5e <__b2d+0xe8>
   18e08:	3ff007b7          	lui	a5,0x3ff00
   18e0c:	00f967b3          	or	a5,s2,a5
   18e10:	1702                	slli	a4,a4,0x20
   18e12:	9301                	srli	a4,a4,0x20
   18e14:	1782                	slli	a5,a5,0x20
   18e16:	8fd9                	or	a5,a5,a4
   18e18:	70a2                	ld	ra,40(sp)
   18e1a:	7402                	ld	s0,32(sp)
   18e1c:	64e2                	ld	s1,24(sp)
   18e1e:	6942                	ld	s2,16(sp)
   18e20:	69a2                	ld	s3,8(sp)
   18e22:	6a02                	ld	s4,0(sp)
   18e24:	f2078553          	fmv.d.x	fa0,a5
   18e28:	6145                	addi	sp,sp,48
   18e2a:	8082                	ret
   18e2c:	46ad                	li	a3,11
   18e2e:	9e89                	subw	a3,a3,a0
   18e30:	3ff00737          	lui	a4,0x3ff00
   18e34:	00d957bb          	srlw	a5,s2,a3
   18e38:	8fd9                	or	a5,a5,a4
   18e3a:	1782                	slli	a5,a5,0x20
   18e3c:	4701                	li	a4,0
   18e3e:	01447663          	bgeu	s0,s4,18e4a <__b2d+0xd4>
   18e42:	ff84a703          	lw	a4,-8(s1)
   18e46:	00d7573b          	srlw	a4,a4,a3
   18e4a:	2555                	addiw	a0,a0,21
   18e4c:	00a9153b          	sllw	a0,s2,a0
   18e50:	8d59                	or	a0,a0,a4
   18e52:	9381                	srli	a5,a5,0x20
   18e54:	1502                	slli	a0,a0,0x20
   18e56:	9101                	srli	a0,a0,0x20
   18e58:	1782                	slli	a5,a5,0x20
   18e5a:	8fc9                	or	a5,a5,a0
   18e5c:	bf75                	j	18e18 <__b2d+0xa2>
   18e5e:	00f917bb          	sllw	a5,s2,a5
   18e62:	3ff00937          	lui	s2,0x3ff00
   18e66:	0127e7b3          	or	a5,a5,s2
   18e6a:	1782                	slli	a5,a5,0x20
   18e6c:	4681                	li	a3,0
   18e6e:	b769                	j	18df8 <__b2d+0x82>

0000000000018e70 <__d2b>:
   18e70:	7139                	addi	sp,sp,-64
   18e72:	f822                	sd	s0,48(sp)
   18e74:	e2050453          	fmv.x.d	s0,fa0
   18e78:	ec4e                	sd	s3,24(sp)
   18e7a:	89ae                	mv	s3,a1
   18e7c:	4585                	li	a1,1
   18e7e:	f426                	sd	s1,40(sp)
   18e80:	f04a                	sd	s2,32(sp)
   18e82:	e852                	sd	s4,16(sp)
   18e84:	fc06                	sd	ra,56(sp)
   18e86:	8932                	mv	s2,a2
   18e88:	e8eff0ef          	jal	ra,18516 <_Balloc>
   18e8c:	42045793          	srai	a5,s0,0x20
   18e90:	02c79713          	slli	a4,a5,0x2c
   18e94:	0147d79b          	srliw	a5,a5,0x14
   18e98:	03579693          	slli	a3,a5,0x35
   18e9c:	84aa                	mv	s1,a0
   18e9e:	9331                	srli	a4,a4,0x2c
   18ea0:	7ff7fa13          	andi	s4,a5,2047
   18ea4:	c681                	beqz	a3,18eac <__d2b+0x3c>
   18ea6:	001007b7          	lui	a5,0x100
   18eaa:	8f5d                	or	a4,a4,a5
   18eac:	c63a                	sw	a4,12(sp)
   18eae:	2401                	sext.w	s0,s0
   18eb0:	c429                	beqz	s0,18efa <__d2b+0x8a>
   18eb2:	0028                	addi	a0,sp,8
   18eb4:	c422                	sw	s0,8(sp)
   18eb6:	8b1ff0ef          	jal	ra,18766 <__lo0bits>
   18eba:	ed25                	bnez	a0,18f32 <__d2b+0xc2>
   18ebc:	4722                	lw	a4,8(sp)
   18ebe:	47b2                	lw	a5,12(sp)
   18ec0:	cc98                	sw	a4,24(s1)
   18ec2:	00f03433          	snez	s0,a5
   18ec6:	0405                	addi	s0,s0,1
   18ec8:	ccdc                	sw	a5,28(s1)
   18eca:	c8c0                	sw	s0,20(s1)
   18ecc:	040a0363          	beqz	s4,18f12 <__d2b+0xa2>
   18ed0:	bcda0a1b          	addiw	s4,s4,-1075
   18ed4:	00aa0a3b          	addw	s4,s4,a0
   18ed8:	03500793          	li	a5,53
   18edc:	0149a023          	sw	s4,0(s3)
   18ee0:	40a7853b          	subw	a0,a5,a0
   18ee4:	00a92023          	sw	a0,0(s2) # 3ff00000 <__BSS_END__+0x3fde92d0>
   18ee8:	70e2                	ld	ra,56(sp)
   18eea:	7442                	ld	s0,48(sp)
   18eec:	7902                	ld	s2,32(sp)
   18eee:	69e2                	ld	s3,24(sp)
   18ef0:	6a42                	ld	s4,16(sp)
   18ef2:	8526                	mv	a0,s1
   18ef4:	74a2                	ld	s1,40(sp)
   18ef6:	6121                	addi	sp,sp,64
   18ef8:	8082                	ret
   18efa:	0068                	addi	a0,sp,12
   18efc:	86bff0ef          	jal	ra,18766 <__lo0bits>
   18f00:	4785                	li	a5,1
   18f02:	c8dc                	sw	a5,20(s1)
   18f04:	47b2                	lw	a5,12(sp)
   18f06:	0205051b          	addiw	a0,a0,32
   18f0a:	4405                	li	s0,1
   18f0c:	cc9c                	sw	a5,24(s1)
   18f0e:	fc0a11e3          	bnez	s4,18ed0 <__d2b+0x60>
   18f12:	bce5051b          	addiw	a0,a0,-1074
   18f16:	00241793          	slli	a5,s0,0x2
   18f1a:	00a9a023          	sw	a0,0(s3)
   18f1e:	97a6                	add	a5,a5,s1
   18f20:	4bc8                	lw	a0,20(a5)
   18f22:	0054141b          	slliw	s0,s0,0x5
   18f26:	ff0ff0ef          	jal	ra,18716 <__hi0bits>
   18f2a:	9c09                	subw	s0,s0,a0
   18f2c:	00892023          	sw	s0,0(s2)
   18f30:	bf65                	j	18ee8 <__d2b+0x78>
   18f32:	4732                	lw	a4,12(sp)
   18f34:	46a2                	lw	a3,8(sp)
   18f36:	02000793          	li	a5,32
   18f3a:	9f89                	subw	a5,a5,a0
   18f3c:	00f717bb          	sllw	a5,a4,a5
   18f40:	8fd5                	or	a5,a5,a3
   18f42:	00a7573b          	srlw	a4,a4,a0
   18f46:	cc9c                	sw	a5,24(s1)
   18f48:	c63a                	sw	a4,12(sp)
   18f4a:	0007079b          	sext.w	a5,a4
   18f4e:	bf95                	j	18ec2 <__d2b+0x52>

0000000000018f50 <__ratio>:
   18f50:	7179                	addi	sp,sp,-48
   18f52:	ec26                	sd	s1,24(sp)
   18f54:	84ae                	mv	s1,a1
   18f56:	002c                	addi	a1,sp,8
   18f58:	f406                	sd	ra,40(sp)
   18f5a:	f022                	sd	s0,32(sp)
   18f5c:	e84a                	sd	s2,16(sp)
   18f5e:	892a                	mv	s2,a0
   18f60:	e17ff0ef          	jal	ra,18d76 <__b2d>
   18f64:	006c                	addi	a1,sp,12
   18f66:	8526                	mv	a0,s1
   18f68:	e2050453          	fmv.x.d	s0,fa0
   18f6c:	e0bff0ef          	jal	ra,18d76 <__b2d>
   18f70:	48d8                	lw	a4,20(s1)
   18f72:	01492783          	lw	a5,20(s2)
   18f76:	46b2                	lw	a3,12(sp)
   18f78:	9f99                	subw	a5,a5,a4
   18f7a:	4722                	lw	a4,8(sp)
   18f7c:	0057979b          	slliw	a5,a5,0x5
   18f80:	9f15                	subw	a4,a4,a3
   18f82:	00e786bb          	addw	a3,a5,a4
   18f86:	87b6                	mv	a5,a3
   18f88:	e2050753          	fmv.x.d	a4,fa0
   18f8c:	02d05863          	blez	a3,18fbc <__ratio+0x6c>
   18f90:	02045693          	srli	a3,s0,0x20
   18f94:	0147979b          	slliw	a5,a5,0x14
   18f98:	9fb5                	addw	a5,a5,a3
   18f9a:	56fd                	li	a3,-1
   18f9c:	9281                	srli	a3,a3,0x20
   18f9e:	1782                	slli	a5,a5,0x20
   18fa0:	8c75                	and	s0,s0,a3
   18fa2:	8c5d                	or	s0,s0,a5
   18fa4:	f20407d3          	fmv.d.x	fa5,s0
   18fa8:	70a2                	ld	ra,40(sp)
   18faa:	7402                	ld	s0,32(sp)
   18fac:	f2070753          	fmv.d.x	fa4,a4
   18fb0:	64e2                	ld	s1,24(sp)
   18fb2:	6942                	ld	s2,16(sp)
   18fb4:	1ae7f553          	fdiv.d	fa0,fa5,fa4
   18fb8:	6145                	addi	sp,sp,48
   18fba:	8082                	ret
   18fbc:	02075693          	srli	a3,a4,0x20
   18fc0:	0147979b          	slliw	a5,a5,0x14
   18fc4:	40f687bb          	subw	a5,a3,a5
   18fc8:	56fd                	li	a3,-1
   18fca:	9281                	srli	a3,a3,0x20
   18fcc:	1782                	slli	a5,a5,0x20
   18fce:	8f75                	and	a4,a4,a3
   18fd0:	8f5d                	or	a4,a4,a5
   18fd2:	bfc9                	j	18fa4 <__ratio+0x54>

0000000000018fd4 <_mprec_log10>:
   18fd4:	47dd                	li	a5,23
   18fd6:	00a7df63          	bge	a5,a0,18ff4 <_mprec_log10+0x20>
   18fda:	00008797          	auipc	a5,0x8
   18fde:	2667b507          	fld	fa0,614(a5) # 21240 <__SDATA_BEGIN__+0x50>
   18fe2:	00008797          	auipc	a5,0x8
   18fe6:	20e7b787          	fld	fa5,526(a5) # 211f0 <__SDATA_BEGIN__>
   18fea:	357d                	addiw	a0,a0,-1
   18fec:	12f57553          	fmul.d	fa0,fa0,fa5
   18ff0:	fd6d                	bnez	a0,18fea <_mprec_log10+0x16>
   18ff2:	8082                	ret
   18ff4:	00006797          	auipc	a5,0x6
   18ff8:	9c478793          	addi	a5,a5,-1596 # 1e9b8 <p05.3314>
   18ffc:	050e                	slli	a0,a0,0x3
   18ffe:	953e                	add	a0,a0,a5
   19000:	2908                	fld	fa0,16(a0)
   19002:	8082                	ret

0000000000019004 <__copybits>:
   19004:	4a54                	lw	a3,20(a2)
   19006:	35fd                	addiw	a1,a1,-1
   19008:	4055d59b          	sraiw	a1,a1,0x5
   1900c:	0585                	addi	a1,a1,1
   1900e:	01860793          	addi	a5,a2,24
   19012:	068a                	slli	a3,a3,0x2
   19014:	058a                	slli	a1,a1,0x2
   19016:	96be                	add	a3,a3,a5
   19018:	95aa                	add	a1,a1,a0
   1901a:	02d7f163          	bgeu	a5,a3,1903c <__copybits+0x38>
   1901e:	872a                	mv	a4,a0
   19020:	0007a803          	lw	a6,0(a5)
   19024:	0791                	addi	a5,a5,4
   19026:	0711                	addi	a4,a4,4
   19028:	ff072e23          	sw	a6,-4(a4) # 3feffffc <__BSS_END__+0x3fde92cc>
   1902c:	fed7eae3          	bltu	a5,a3,19020 <__copybits+0x1c>
   19030:	40c687b3          	sub	a5,a3,a2
   19034:	179d                	addi	a5,a5,-25
   19036:	9bf1                	andi	a5,a5,-4
   19038:	0791                	addi	a5,a5,4
   1903a:	953e                	add	a0,a0,a5
   1903c:	00b57763          	bgeu	a0,a1,1904a <__copybits+0x46>
   19040:	0511                	addi	a0,a0,4
   19042:	fe052e23          	sw	zero,-4(a0)
   19046:	feb56de3          	bltu	a0,a1,19040 <__copybits+0x3c>
   1904a:	8082                	ret

000000000001904c <__any_on>:
   1904c:	4958                	lw	a4,20(a0)
   1904e:	4055d613          	srai	a2,a1,0x5
   19052:	01850693          	addi	a3,a0,24
   19056:	00c75d63          	bge	a4,a2,19070 <__any_on+0x24>
   1905a:	00271793          	slli	a5,a4,0x2
   1905e:	97b6                	add	a5,a5,a3
   19060:	02f6f863          	bgeu	a3,a5,19090 <__any_on+0x44>
   19064:	ffc7a703          	lw	a4,-4(a5)
   19068:	17f1                	addi	a5,a5,-4
   1906a:	db7d                	beqz	a4,19060 <__any_on+0x14>
   1906c:	4505                	li	a0,1
   1906e:	8082                	ret
   19070:	00261793          	slli	a5,a2,0x2
   19074:	97b6                	add	a5,a5,a3
   19076:	fee655e3          	bge	a2,a4,19060 <__any_on+0x14>
   1907a:	89fd                	andi	a1,a1,31
   1907c:	d1f5                	beqz	a1,19060 <__any_on+0x14>
   1907e:	4390                	lw	a2,0(a5)
   19080:	4505                	li	a0,1
   19082:	00b6573b          	srlw	a4,a2,a1
   19086:	00b715bb          	sllw	a1,a4,a1
   1908a:	fcc58be3          	beq	a1,a2,19060 <__any_on+0x14>
   1908e:	8082                	ret
   19090:	4501                	li	a0,0
   19092:	8082                	ret

0000000000019094 <_putc_r>:
   19094:	1101                	addi	sp,sp,-32
   19096:	e84a                	sd	s2,16(sp)
   19098:	ec06                	sd	ra,24(sp)
   1909a:	892a                	mv	s2,a0
   1909c:	c119                	beqz	a0,190a2 <_putc_r+0xe>
   1909e:	493c                	lw	a5,80(a0)
   190a0:	cf95                	beqz	a5,190dc <_putc_r+0x48>
   190a2:	465c                	lw	a5,12(a2)
   190a4:	37fd                	addiw	a5,a5,-1
   190a6:	c65c                	sw	a5,12(a2)
   190a8:	02079693          	slli	a3,a5,0x20
   190ac:	0007871b          	sext.w	a4,a5
   190b0:	0006da63          	bgez	a3,190c4 <_putc_r+0x30>
   190b4:	561c                	lw	a5,40(a2)
   190b6:	02f74a63          	blt	a4,a5,190ea <_putc_r+0x56>
   190ba:	0ff5f793          	zext.b	a5,a1
   190be:	4729                	li	a4,10
   190c0:	02e78563          	beq	a5,a4,190ea <_putc_r+0x56>
   190c4:	621c                	ld	a5,0(a2)
   190c6:	0ff5f513          	zext.b	a0,a1
   190ca:	00178713          	addi	a4,a5,1
   190ce:	e218                	sd	a4,0(a2)
   190d0:	00b78023          	sb	a1,0(a5)
   190d4:	60e2                	ld	ra,24(sp)
   190d6:	6942                	ld	s2,16(sp)
   190d8:	6105                	addi	sp,sp,32
   190da:	8082                	ret
   190dc:	e432                	sd	a2,8(sp)
   190de:	e02e                	sd	a1,0(sp)
   190e0:	e2afc0ef          	jal	ra,1570a <__sinit>
   190e4:	6622                	ld	a2,8(sp)
   190e6:	6582                	ld	a1,0(sp)
   190e8:	bf6d                	j	190a2 <_putc_r+0xe>
   190ea:	60e2                	ld	ra,24(sp)
   190ec:	854a                	mv	a0,s2
   190ee:	6942                	ld	s2,16(sp)
   190f0:	6105                	addi	sp,sp,32
   190f2:	7d60206f          	j	1b8c8 <__swbuf_r>

00000000000190f6 <putc>:
   190f6:	1101                	addi	sp,sp,-32
   190f8:	e822                	sd	s0,16(sp)
   190fa:	e426                	sd	s1,8(sp)
   190fc:	e04a                	sd	s2,0(sp)
   190fe:	ec06                	sd	ra,24(sp)
   19100:	8901b903          	ld	s2,-1904(gp) # 21280 <_impure_ptr>
   19104:	84aa                	mv	s1,a0
   19106:	842e                	mv	s0,a1
   19108:	00090563          	beqz	s2,19112 <putc+0x1c>
   1910c:	05092783          	lw	a5,80(s2)
   19110:	c3a1                	beqz	a5,19150 <putc+0x5a>
   19112:	445c                	lw	a5,12(s0)
   19114:	37fd                	addiw	a5,a5,-1
   19116:	c45c                	sw	a5,12(s0)
   19118:	02079693          	slli	a3,a5,0x20
   1911c:	0007871b          	sext.w	a4,a5
   19120:	0006da63          	bgez	a3,19134 <putc+0x3e>
   19124:	541c                	lw	a5,40(s0)
   19126:	02f74963          	blt	a4,a5,19158 <putc+0x62>
   1912a:	0ff4f793          	zext.b	a5,s1
   1912e:	4729                	li	a4,10
   19130:	02e78463          	beq	a5,a4,19158 <putc+0x62>
   19134:	601c                	ld	a5,0(s0)
   19136:	0ff4f513          	zext.b	a0,s1
   1913a:	00178713          	addi	a4,a5,1
   1913e:	e018                	sd	a4,0(s0)
   19140:	00978023          	sb	s1,0(a5)
   19144:	60e2                	ld	ra,24(sp)
   19146:	6442                	ld	s0,16(sp)
   19148:	64a2                	ld	s1,8(sp)
   1914a:	6902                	ld	s2,0(sp)
   1914c:	6105                	addi	sp,sp,32
   1914e:	8082                	ret
   19150:	854a                	mv	a0,s2
   19152:	db8fc0ef          	jal	ra,1570a <__sinit>
   19156:	bf75                	j	19112 <putc+0x1c>
   19158:	8622                	mv	a2,s0
   1915a:	6442                	ld	s0,16(sp)
   1915c:	60e2                	ld	ra,24(sp)
   1915e:	85a6                	mv	a1,s1
   19160:	854a                	mv	a0,s2
   19162:	64a2                	ld	s1,8(sp)
   19164:	6902                	ld	s2,0(sp)
   19166:	6105                	addi	sp,sp,32
   19168:	7600206f          	j	1b8c8 <__swbuf_r>

000000000001916c <_realloc_r>:
   1916c:	715d                	addi	sp,sp,-80
   1916e:	f84a                	sd	s2,48(sp)
   19170:	e486                	sd	ra,72(sp)
   19172:	e0a2                	sd	s0,64(sp)
   19174:	fc26                	sd	s1,56(sp)
   19176:	f44e                	sd	s3,40(sp)
   19178:	f052                	sd	s4,32(sp)
   1917a:	ec56                	sd	s5,24(sp)
   1917c:	e85a                	sd	s6,16(sp)
   1917e:	e45e                	sd	s7,8(sp)
   19180:	e062                	sd	s8,0(sp)
   19182:	8932                	mv	s2,a2
   19184:	1a058163          	beqz	a1,19326 <_realloc_r+0x1ba>
   19188:	842e                	mv	s0,a1
   1918a:	8aaa                	mv	s5,a0
   1918c:	ca4f90ef          	jal	ra,12630 <__malloc_lock>
   19190:	ff843703          	ld	a4,-8(s0)
   19194:	01790493          	addi	s1,s2,23
   19198:	02e00793          	li	a5,46
   1919c:	ff040b13          	addi	s6,s0,-16
   191a0:	ffc77a13          	andi	s4,a4,-4
   191a4:	0a97ff63          	bgeu	a5,s1,19262 <_realloc_r+0xf6>
   191a8:	800007b7          	lui	a5,0x80000
   191ac:	98c1                	andi	s1,s1,-16
   191ae:	fff7c793          	not	a5,a5
   191b2:	0a97ec63          	bltu	a5,s1,1926a <_realloc_r+0xfe>
   191b6:	0b24ea63          	bltu	s1,s2,1926a <_realloc_r+0xfe>
   191ba:	014b09b3          	add	s3,s6,s4
   191be:	129a5263          	bge	s4,s1,192e2 <_realloc_r+0x176>
   191c2:	00007b97          	auipc	s7,0x7
   191c6:	676b8b93          	addi	s7,s7,1654 # 20838 <__malloc_av_>
   191ca:	010bb683          	ld	a3,16(s7)
   191ce:	0089b783          	ld	a5,8(s3)
   191d2:	19368b63          	beq	a3,s3,19368 <_realloc_r+0x1fc>
   191d6:	ffe7f693          	andi	a3,a5,-2
   191da:	96ce                	add	a3,a3,s3
   191dc:	6694                	ld	a3,8(a3)
   191de:	8a85                	andi	a3,a3,1
   191e0:	12069863          	bnez	a3,19310 <_realloc_r+0x1a4>
   191e4:	9bf1                	andi	a5,a5,-4
   191e6:	00fa06b3          	add	a3,s4,a5
   191ea:	2496df63          	bge	a3,s1,19448 <_realloc_r+0x2dc>
   191ee:	8b05                	andi	a4,a4,1
   191f0:	e30d                	bnez	a4,19212 <_realloc_r+0xa6>
   191f2:	ff043c03          	ld	s8,-16(s0)
   191f6:	418b0c33          	sub	s8,s6,s8
   191fa:	008c3703          	ld	a4,8(s8) # 1008 <register_fini-0xf0e0>
   191fe:	9b71                	andi	a4,a4,-4
   19200:	97ba                	add	a5,a5,a4
   19202:	01478bb3          	add	s7,a5,s4
   19206:	269bd663          	bge	s7,s1,19472 <_realloc_r+0x306>
   1920a:	00ea0bb3          	add	s7,s4,a4
   1920e:	069bdf63          	bge	s7,s1,1928c <_realloc_r+0x120>
   19212:	85ca                	mv	a1,s2
   19214:	8556                	mv	a0,s5
   19216:	d43f80ef          	jal	ra,11f58 <_malloc_r>
   1921a:	892a                	mv	s2,a0
   1921c:	cd1d                	beqz	a0,1925a <_realloc_r+0xee>
   1921e:	ff843783          	ld	a5,-8(s0)
   19222:	ff050713          	addi	a4,a0,-16
   19226:	9bf9                	andi	a5,a5,-2
   19228:	97da                	add	a5,a5,s6
   1922a:	22e78963          	beq	a5,a4,1945c <_realloc_r+0x2f0>
   1922e:	ff8a0613          	addi	a2,s4,-8
   19232:	04800793          	li	a5,72
   19236:	22c7ea63          	bltu	a5,a2,1946a <_realloc_r+0x2fe>
   1923a:	02700713          	li	a4,39
   1923e:	6014                	ld	a3,0(s0)
   19240:	1cc76363          	bltu	a4,a2,19406 <_realloc_r+0x29a>
   19244:	87aa                	mv	a5,a0
   19246:	8722                	mv	a4,s0
   19248:	e394                	sd	a3,0(a5)
   1924a:	6714                	ld	a3,8(a4)
   1924c:	e794                	sd	a3,8(a5)
   1924e:	6b18                	ld	a4,16(a4)
   19250:	eb98                	sd	a4,16(a5)
   19252:	85a2                	mv	a1,s0
   19254:	8556                	mv	a0,s5
   19256:	f30fc0ef          	jal	ra,15986 <_free_r>
   1925a:	8556                	mv	a0,s5
   1925c:	bd6f90ef          	jal	ra,12632 <__malloc_unlock>
   19260:	a809                	j	19272 <_realloc_r+0x106>
   19262:	02000493          	li	s1,32
   19266:	f524fae3          	bgeu	s1,s2,191ba <_realloc_r+0x4e>
   1926a:	47b1                	li	a5,12
   1926c:	00faa023          	sw	a5,0(s5)
   19270:	4901                	li	s2,0
   19272:	60a6                	ld	ra,72(sp)
   19274:	6406                	ld	s0,64(sp)
   19276:	74e2                	ld	s1,56(sp)
   19278:	79a2                	ld	s3,40(sp)
   1927a:	7a02                	ld	s4,32(sp)
   1927c:	6ae2                	ld	s5,24(sp)
   1927e:	6b42                	ld	s6,16(sp)
   19280:	6ba2                	ld	s7,8(sp)
   19282:	6c02                	ld	s8,0(sp)
   19284:	854a                	mv	a0,s2
   19286:	7942                	ld	s2,48(sp)
   19288:	6161                	addi	sp,sp,80
   1928a:	8082                	ret
   1928c:	018c3783          	ld	a5,24(s8)
   19290:	010c3703          	ld	a4,16(s8)
   19294:	ff8a0613          	addi	a2,s4,-8
   19298:	04800693          	li	a3,72
   1929c:	ef1c                	sd	a5,24(a4)
   1929e:	eb98                	sd	a4,16(a5)
   192a0:	010c0913          	addi	s2,s8,16
   192a4:	017c09b3          	add	s3,s8,s7
   192a8:	22c6ea63          	bltu	a3,a2,194dc <_realloc_r+0x370>
   192ac:	02700593          	li	a1,39
   192b0:	6018                	ld	a4,0(s0)
   192b2:	87ca                	mv	a5,s2
   192b4:	00c5ff63          	bgeu	a1,a2,192d2 <_realloc_r+0x166>
   192b8:	00ec3823          	sd	a4,16(s8)
   192bc:	6418                	ld	a4,8(s0)
   192be:	03700793          	li	a5,55
   192c2:	00ec3c23          	sd	a4,24(s8)
   192c6:	22c7ef63          	bltu	a5,a2,19504 <_realloc_r+0x398>
   192ca:	6818                	ld	a4,16(s0)
   192cc:	020c0793          	addi	a5,s8,32
   192d0:	0441                	addi	s0,s0,16
   192d2:	e398                	sd	a4,0(a5)
   192d4:	6418                	ld	a4,8(s0)
   192d6:	8a5e                	mv	s4,s7
   192d8:	8b62                	mv	s6,s8
   192da:	e798                	sd	a4,8(a5)
   192dc:	6818                	ld	a4,16(s0)
   192de:	844a                	mv	s0,s2
   192e0:	eb98                	sd	a4,16(a5)
   192e2:	008b3783          	ld	a5,8(s6) # 4008 <register_fini-0xc0e0>
   192e6:	409a0733          	sub	a4,s4,s1
   192ea:	46fd                	li	a3,31
   192ec:	8b85                	andi	a5,a5,1
   192ee:	04e6ea63          	bltu	a3,a4,19342 <_realloc_r+0x1d6>
   192f2:	00fa67b3          	or	a5,s4,a5
   192f6:	00fb3423          	sd	a5,8(s6)
   192fa:	0089b783          	ld	a5,8(s3)
   192fe:	0017e793          	ori	a5,a5,1
   19302:	00f9b423          	sd	a5,8(s3)
   19306:	8556                	mv	a0,s5
   19308:	b2af90ef          	jal	ra,12632 <__malloc_unlock>
   1930c:	8922                	mv	s2,s0
   1930e:	b795                	j	19272 <_realloc_r+0x106>
   19310:	8b05                	andi	a4,a4,1
   19312:	f00710e3          	bnez	a4,19212 <_realloc_r+0xa6>
   19316:	ff043c03          	ld	s8,-16(s0)
   1931a:	418b0c33          	sub	s8,s6,s8
   1931e:	008c3703          	ld	a4,8(s8)
   19322:	9b71                	andi	a4,a4,-4
   19324:	b5dd                	j	1920a <_realloc_r+0x9e>
   19326:	6406                	ld	s0,64(sp)
   19328:	60a6                	ld	ra,72(sp)
   1932a:	74e2                	ld	s1,56(sp)
   1932c:	7942                	ld	s2,48(sp)
   1932e:	79a2                	ld	s3,40(sp)
   19330:	7a02                	ld	s4,32(sp)
   19332:	6ae2                	ld	s5,24(sp)
   19334:	6b42                	ld	s6,16(sp)
   19336:	6ba2                	ld	s7,8(sp)
   19338:	6c02                	ld	s8,0(sp)
   1933a:	85b2                	mv	a1,a2
   1933c:	6161                	addi	sp,sp,80
   1933e:	c1bf806f          	j	11f58 <_malloc_r>
   19342:	8fc5                	or	a5,a5,s1
   19344:	00fb3423          	sd	a5,8(s6)
   19348:	009b05b3          	add	a1,s6,s1
   1934c:	00176713          	ori	a4,a4,1
   19350:	e598                	sd	a4,8(a1)
   19352:	0089b783          	ld	a5,8(s3)
   19356:	05c1                	addi	a1,a1,16
   19358:	8556                	mv	a0,s5
   1935a:	0017e793          	ori	a5,a5,1
   1935e:	00f9b423          	sd	a5,8(s3)
   19362:	e24fc0ef          	jal	ra,15986 <_free_r>
   19366:	b745                	j	19306 <_realloc_r+0x19a>
   19368:	9bf1                	andi	a5,a5,-4
   1936a:	00fa06b3          	add	a3,s4,a5
   1936e:	02048613          	addi	a2,s1,32
   19372:	0ac6d763          	bge	a3,a2,19420 <_realloc_r+0x2b4>
   19376:	8b05                	andi	a4,a4,1
   19378:	e8071de3          	bnez	a4,19212 <_realloc_r+0xa6>
   1937c:	ff043c03          	ld	s8,-16(s0)
   19380:	418b0c33          	sub	s8,s6,s8
   19384:	008c3703          	ld	a4,8(s8)
   19388:	9b71                	andi	a4,a4,-4
   1938a:	97ba                	add	a5,a5,a4
   1938c:	014789b3          	add	s3,a5,s4
   19390:	e6c9cde3          	blt	s3,a2,1920a <_realloc_r+0x9e>
   19394:	018c3783          	ld	a5,24(s8)
   19398:	010c3703          	ld	a4,16(s8)
   1939c:	ff8a0613          	addi	a2,s4,-8
   193a0:	04800693          	li	a3,72
   193a4:	ef1c                	sd	a5,24(a4)
   193a6:	eb98                	sd	a4,16(a5)
   193a8:	010c0913          	addi	s2,s8,16
   193ac:	18c6e963          	bltu	a3,a2,1953e <_realloc_r+0x3d2>
   193b0:	02700593          	li	a1,39
   193b4:	6018                	ld	a4,0(s0)
   193b6:	87ca                	mv	a5,s2
   193b8:	00c5ff63          	bgeu	a1,a2,193d6 <_realloc_r+0x26a>
   193bc:	00ec3823          	sd	a4,16(s8)
   193c0:	6418                	ld	a4,8(s0)
   193c2:	03700793          	li	a5,55
   193c6:	00ec3c23          	sd	a4,24(s8)
   193ca:	16c7ef63          	bltu	a5,a2,19548 <_realloc_r+0x3dc>
   193ce:	6818                	ld	a4,16(s0)
   193d0:	020c0793          	addi	a5,s8,32
   193d4:	0441                	addi	s0,s0,16
   193d6:	e398                	sd	a4,0(a5)
   193d8:	6418                	ld	a4,8(s0)
   193da:	e798                	sd	a4,8(a5)
   193dc:	6818                	ld	a4,16(s0)
   193de:	eb98                	sd	a4,16(a5)
   193e0:	009c0733          	add	a4,s8,s1
   193e4:	409987b3          	sub	a5,s3,s1
   193e8:	00ebb823          	sd	a4,16(s7)
   193ec:	0017e793          	ori	a5,a5,1
   193f0:	e71c                	sd	a5,8(a4)
   193f2:	008c3783          	ld	a5,8(s8)
   193f6:	8556                	mv	a0,s5
   193f8:	8b85                	andi	a5,a5,1
   193fa:	8cdd                	or	s1,s1,a5
   193fc:	009c3423          	sd	s1,8(s8)
   19400:	a32f90ef          	jal	ra,12632 <__malloc_unlock>
   19404:	b5bd                	j	19272 <_realloc_r+0x106>
   19406:	e114                	sd	a3,0(a0)
   19408:	6414                	ld	a3,8(s0)
   1940a:	03700713          	li	a4,55
   1940e:	e514                	sd	a3,8(a0)
   19410:	0cc76e63          	bltu	a4,a2,194ec <_realloc_r+0x380>
   19414:	6814                	ld	a3,16(s0)
   19416:	01040713          	addi	a4,s0,16
   1941a:	01050793          	addi	a5,a0,16
   1941e:	b52d                	j	19248 <_realloc_r+0xdc>
   19420:	9b26                	add	s6,s6,s1
   19422:	409687b3          	sub	a5,a3,s1
   19426:	016bb823          	sd	s6,16(s7)
   1942a:	0017e793          	ori	a5,a5,1
   1942e:	00fb3423          	sd	a5,8(s6)
   19432:	ff843783          	ld	a5,-8(s0)
   19436:	8556                	mv	a0,s5
   19438:	8922                	mv	s2,s0
   1943a:	8b85                	andi	a5,a5,1
   1943c:	8cdd                	or	s1,s1,a5
   1943e:	fe943c23          	sd	s1,-8(s0)
   19442:	9f0f90ef          	jal	ra,12632 <__malloc_unlock>
   19446:	b535                	j	19272 <_realloc_r+0x106>
   19448:	0189b783          	ld	a5,24(s3)
   1944c:	0109b703          	ld	a4,16(s3)
   19450:	8a36                	mv	s4,a3
   19452:	00db09b3          	add	s3,s6,a3
   19456:	ef1c                	sd	a5,24(a4)
   19458:	eb98                	sd	a4,16(a5)
   1945a:	b561                	j	192e2 <_realloc_r+0x176>
   1945c:	ff853783          	ld	a5,-8(a0)
   19460:	9bf1                	andi	a5,a5,-4
   19462:	9a3e                	add	s4,s4,a5
   19464:	014b09b3          	add	s3,s6,s4
   19468:	bdad                	j	192e2 <_realloc_r+0x176>
   1946a:	85a2                	mv	a1,s0
   1946c:	fd5fe0ef          	jal	ra,18440 <memmove>
   19470:	b3cd                	j	19252 <_realloc_r+0xe6>
   19472:	0189b783          	ld	a5,24(s3)
   19476:	0109b703          	ld	a4,16(s3)
   1947a:	ff8a0613          	addi	a2,s4,-8
   1947e:	04800693          	li	a3,72
   19482:	ef1c                	sd	a5,24(a4)
   19484:	eb98                	sd	a4,16(a5)
   19486:	010c3703          	ld	a4,16(s8)
   1948a:	018c3783          	ld	a5,24(s8)
   1948e:	010c0913          	addi	s2,s8,16
   19492:	017c09b3          	add	s3,s8,s7
   19496:	ef1c                	sd	a5,24(a4)
   19498:	eb98                	sd	a4,16(a5)
   1949a:	04c6e163          	bltu	a3,a2,194dc <_realloc_r+0x370>
   1949e:	02700693          	li	a3,39
   194a2:	6018                	ld	a4,0(s0)
   194a4:	87ca                	mv	a5,s2
   194a6:	e2c6f6e3          	bgeu	a3,a2,192d2 <_realloc_r+0x166>
   194aa:	00ec3823          	sd	a4,16(s8)
   194ae:	6418                	ld	a4,8(s0)
   194b0:	03700793          	li	a5,55
   194b4:	00ec3c23          	sd	a4,24(s8)
   194b8:	6818                	ld	a4,16(s0)
   194ba:	e0c7f9e3          	bgeu	a5,a2,192cc <_realloc_r+0x160>
   194be:	02ec3023          	sd	a4,32(s8)
   194c2:	6c18                	ld	a4,24(s0)
   194c4:	04800793          	li	a5,72
   194c8:	02ec3423          	sd	a4,40(s8)
   194cc:	7018                	ld	a4,32(s0)
   194ce:	04f60463          	beq	a2,a5,19516 <_realloc_r+0x3aa>
   194d2:	030c0793          	addi	a5,s8,48
   194d6:	02040413          	addi	s0,s0,32
   194da:	bbe5                	j	192d2 <_realloc_r+0x166>
   194dc:	85a2                	mv	a1,s0
   194de:	854a                	mv	a0,s2
   194e0:	f61fe0ef          	jal	ra,18440 <memmove>
   194e4:	844a                	mv	s0,s2
   194e6:	8a5e                	mv	s4,s7
   194e8:	8b62                	mv	s6,s8
   194ea:	bbe5                	j	192e2 <_realloc_r+0x176>
   194ec:	6818                	ld	a4,16(s0)
   194ee:	e918                	sd	a4,16(a0)
   194f0:	6c18                	ld	a4,24(s0)
   194f2:	ed18                	sd	a4,24(a0)
   194f4:	7014                	ld	a3,32(s0)
   194f6:	02f60b63          	beq	a2,a5,1952c <_realloc_r+0x3c0>
   194fa:	02040713          	addi	a4,s0,32
   194fe:	02050793          	addi	a5,a0,32
   19502:	b399                	j	19248 <_realloc_r+0xdc>
   19504:	681c                	ld	a5,16(s0)
   19506:	02fc3023          	sd	a5,32(s8)
   1950a:	6c1c                	ld	a5,24(s0)
   1950c:	02fc3423          	sd	a5,40(s8)
   19510:	7018                	ld	a4,32(s0)
   19512:	fcd610e3          	bne	a2,a3,194d2 <_realloc_r+0x366>
   19516:	02ec3823          	sd	a4,48(s8)
   1951a:	7418                	ld	a4,40(s0)
   1951c:	040c0793          	addi	a5,s8,64
   19520:	03040413          	addi	s0,s0,48
   19524:	02ec3c23          	sd	a4,56(s8)
   19528:	6018                	ld	a4,0(s0)
   1952a:	b365                	j	192d2 <_realloc_r+0x166>
   1952c:	f114                	sd	a3,32(a0)
   1952e:	7414                	ld	a3,40(s0)
   19530:	03040713          	addi	a4,s0,48
   19534:	03050793          	addi	a5,a0,48
   19538:	f514                	sd	a3,40(a0)
   1953a:	7814                	ld	a3,48(s0)
   1953c:	b331                	j	19248 <_realloc_r+0xdc>
   1953e:	85a2                	mv	a1,s0
   19540:	854a                	mv	a0,s2
   19542:	efffe0ef          	jal	ra,18440 <memmove>
   19546:	bd69                	j	193e0 <_realloc_r+0x274>
   19548:	681c                	ld	a5,16(s0)
   1954a:	02fc3023          	sd	a5,32(s8)
   1954e:	6c1c                	ld	a5,24(s0)
   19550:	02fc3423          	sd	a5,40(s8)
   19554:	7018                	ld	a4,32(s0)
   19556:	00d60763          	beq	a2,a3,19564 <_realloc_r+0x3f8>
   1955a:	030c0793          	addi	a5,s8,48
   1955e:	02040413          	addi	s0,s0,32
   19562:	bd95                	j	193d6 <_realloc_r+0x26a>
   19564:	02ec3823          	sd	a4,48(s8)
   19568:	7418                	ld	a4,40(s0)
   1956a:	040c0793          	addi	a5,s8,64
   1956e:	03040413          	addi	s0,s0,48
   19572:	02ec3c23          	sd	a4,56(s8)
   19576:	6018                	ld	a4,0(s0)
   19578:	bdb9                	j	193d6 <_realloc_r+0x26a>

000000000001957a <cleanup_glue>:
   1957a:	1101                	addi	sp,sp,-32
   1957c:	e822                	sd	s0,16(sp)
   1957e:	842e                	mv	s0,a1
   19580:	618c                	ld	a1,0(a1)
   19582:	e426                	sd	s1,8(sp)
   19584:	ec06                	sd	ra,24(sp)
   19586:	84aa                	mv	s1,a0
   19588:	c199                	beqz	a1,1958e <cleanup_glue+0x14>
   1958a:	ff1ff0ef          	jal	ra,1957a <cleanup_glue>
   1958e:	85a2                	mv	a1,s0
   19590:	6442                	ld	s0,16(sp)
   19592:	60e2                	ld	ra,24(sp)
   19594:	8526                	mv	a0,s1
   19596:	64a2                	ld	s1,8(sp)
   19598:	6105                	addi	sp,sp,32
   1959a:	becfc06f          	j	15986 <_free_r>

000000000001959e <_reclaim_reent>:
   1959e:	8901b783          	ld	a5,-1904(gp) # 21280 <_impure_ptr>
   195a2:	08a78e63          	beq	a5,a0,1963e <_reclaim_reent+0xa0>
   195a6:	7d2c                	ld	a1,120(a0)
   195a8:	7179                	addi	sp,sp,-48
   195aa:	ec26                	sd	s1,24(sp)
   195ac:	f406                	sd	ra,40(sp)
   195ae:	f022                	sd	s0,32(sp)
   195b0:	e84a                	sd	s2,16(sp)
   195b2:	e44e                	sd	s3,8(sp)
   195b4:	84aa                	mv	s1,a0
   195b6:	c58d                	beqz	a1,195e0 <_reclaim_reent+0x42>
   195b8:	4901                	li	s2,0
   195ba:	20000993          	li	s3,512
   195be:	012587b3          	add	a5,a1,s2
   195c2:	6380                	ld	s0,0(a5)
   195c4:	c801                	beqz	s0,195d4 <_reclaim_reent+0x36>
   195c6:	85a2                	mv	a1,s0
   195c8:	6000                	ld	s0,0(s0)
   195ca:	8526                	mv	a0,s1
   195cc:	bbafc0ef          	jal	ra,15986 <_free_r>
   195d0:	f87d                	bnez	s0,195c6 <_reclaim_reent+0x28>
   195d2:	7cac                	ld	a1,120(s1)
   195d4:	0921                	addi	s2,s2,8
   195d6:	ff3914e3          	bne	s2,s3,195be <_reclaim_reent+0x20>
   195da:	8526                	mv	a0,s1
   195dc:	baafc0ef          	jal	ra,15986 <_free_r>
   195e0:	70ac                	ld	a1,96(s1)
   195e2:	c581                	beqz	a1,195ea <_reclaim_reent+0x4c>
   195e4:	8526                	mv	a0,s1
   195e6:	ba0fc0ef          	jal	ra,15986 <_free_r>
   195ea:	1f84b403          	ld	s0,504(s1)
   195ee:	cc01                	beqz	s0,19606 <_reclaim_reent+0x68>
   195f0:	20048913          	addi	s2,s1,512
   195f4:	01240963          	beq	s0,s2,19606 <_reclaim_reent+0x68>
   195f8:	85a2                	mv	a1,s0
   195fa:	6000                	ld	s0,0(s0)
   195fc:	8526                	mv	a0,s1
   195fe:	b88fc0ef          	jal	ra,15986 <_free_r>
   19602:	fe891be3          	bne	s2,s0,195f8 <_reclaim_reent+0x5a>
   19606:	64cc                	ld	a1,136(s1)
   19608:	c581                	beqz	a1,19610 <_reclaim_reent+0x72>
   1960a:	8526                	mv	a0,s1
   1960c:	b7afc0ef          	jal	ra,15986 <_free_r>
   19610:	48bc                	lw	a5,80(s1)
   19612:	cf99                	beqz	a5,19630 <_reclaim_reent+0x92>
   19614:	6cbc                	ld	a5,88(s1)
   19616:	8526                	mv	a0,s1
   19618:	9782                	jalr	a5
   1961a:	5204b583          	ld	a1,1312(s1)
   1961e:	c989                	beqz	a1,19630 <_reclaim_reent+0x92>
   19620:	7402                	ld	s0,32(sp)
   19622:	70a2                	ld	ra,40(sp)
   19624:	6942                	ld	s2,16(sp)
   19626:	69a2                	ld	s3,8(sp)
   19628:	8526                	mv	a0,s1
   1962a:	64e2                	ld	s1,24(sp)
   1962c:	6145                	addi	sp,sp,48
   1962e:	b7b1                	j	1957a <cleanup_glue>
   19630:	70a2                	ld	ra,40(sp)
   19632:	7402                	ld	s0,32(sp)
   19634:	64e2                	ld	s1,24(sp)
   19636:	6942                	ld	s2,16(sp)
   19638:	69a2                	ld	s3,8(sp)
   1963a:	6145                	addi	sp,sp,48
   1963c:	8082                	ret
   1963e:	8082                	ret

0000000000019640 <frexp>:
   19640:	e20507d3          	fmv.x.d	a5,fa0
   19644:	80000637          	lui	a2,0x80000
   19648:	fff64613          	not	a2,a2
   1964c:	4207d593          	srai	a1,a5,0x20
   19650:	00c5f733          	and	a4,a1,a2
   19654:	00052023          	sw	zero,0(a0)
   19658:	7ff00837          	lui	a6,0x7ff00
   1965c:	86ae                	mv	a3,a1
   1965e:	05075e63          	bge	a4,a6,196ba <frexp+0x7a>
   19662:	00f76833          	or	a6,a4,a5
   19666:	2801                	sext.w	a6,a6
   19668:	04080963          	beqz	a6,196ba <frexp+0x7a>
   1966c:	7ff00837          	lui	a6,0x7ff00
   19670:	0105f5b3          	and	a1,a1,a6
   19674:	4801                	li	a6,0
   19676:	ed99                	bnez	a1,19694 <frexp+0x54>
   19678:	00008717          	auipc	a4,0x8
   1967c:	bd073787          	fld	fa5,-1072(a4) # 21248 <__SDATA_BEGIN__+0x58>
   19680:	12f577d3          	fmul.d	fa5,fa0,fa5
   19684:	fca00813          	li	a6,-54
   19688:	e20787d3          	fmv.x.d	a5,fa5
   1968c:	4207d693          	srai	a3,a5,0x20
   19690:	00c6f733          	and	a4,a3,a2
   19694:	80100637          	lui	a2,0x80100
   19698:	167d                	addi	a2,a2,-1
   1969a:	8ef1                	and	a3,a3,a2
   1969c:	3fe00637          	lui	a2,0x3fe00
   196a0:	8ed1                	or	a3,a3,a2
   196a2:	4147571b          	sraiw	a4,a4,0x14
   196a6:	567d                	li	a2,-1
   196a8:	c027071b          	addiw	a4,a4,-1022
   196ac:	9201                	srli	a2,a2,0x20
   196ae:	0107073b          	addw	a4,a4,a6
   196b2:	1682                	slli	a3,a3,0x20
   196b4:	8ff1                	and	a5,a5,a2
   196b6:	c118                	sw	a4,0(a0)
   196b8:	8fd5                	or	a5,a5,a3
   196ba:	f2078553          	fmv.d.x	fa0,a5
   196be:	8082                	ret

00000000000196c0 <_init_signal_r.part.0>:
   196c0:	1141                	addi	sp,sp,-16
   196c2:	10000593          	li	a1,256
   196c6:	e022                	sd	s0,0(sp)
   196c8:	e406                	sd	ra,8(sp)
   196ca:	842a                	mv	s0,a0
   196cc:	88df80ef          	jal	ra,11f58 <_malloc_r>
   196d0:	50a43c23          	sd	a0,1304(s0)
   196d4:	cd09                	beqz	a0,196ee <_init_signal_r.part.0+0x2e>
   196d6:	10050793          	addi	a5,a0,256
   196da:	00053023          	sd	zero,0(a0)
   196de:	0521                	addi	a0,a0,8
   196e0:	fef51de3          	bne	a0,a5,196da <_init_signal_r.part.0+0x1a>
   196e4:	4501                	li	a0,0
   196e6:	60a2                	ld	ra,8(sp)
   196e8:	6402                	ld	s0,0(sp)
   196ea:	0141                	addi	sp,sp,16
   196ec:	8082                	ret
   196ee:	557d                	li	a0,-1
   196f0:	bfdd                	j	196e6 <_init_signal_r.part.0+0x26>

00000000000196f2 <_init_signal_r>:
   196f2:	51853783          	ld	a5,1304(a0)
   196f6:	c399                	beqz	a5,196fc <_init_signal_r+0xa>
   196f8:	4501                	li	a0,0
   196fa:	8082                	ret
   196fc:	b7d1                	j	196c0 <_init_signal_r.part.0>

00000000000196fe <_signal_r>:
   196fe:	7179                	addi	sp,sp,-48
   19700:	ec26                	sd	s1,24(sp)
   19702:	f406                	sd	ra,40(sp)
   19704:	f022                	sd	s0,32(sp)
   19706:	47fd                	li	a5,31
   19708:	84aa                	mv	s1,a0
   1970a:	00b7ef63          	bltu	a5,a1,19728 <_signal_r+0x2a>
   1970e:	842e                	mv	s0,a1
   19710:	51853583          	ld	a1,1304(a0)
   19714:	c195                	beqz	a1,19738 <_signal_r+0x3a>
   19716:	040e                	slli	s0,s0,0x3
   19718:	942e                	add	s0,s0,a1
   1971a:	6008                	ld	a0,0(s0)
   1971c:	e010                	sd	a2,0(s0)
   1971e:	70a2                	ld	ra,40(sp)
   19720:	7402                	ld	s0,32(sp)
   19722:	64e2                	ld	s1,24(sp)
   19724:	6145                	addi	sp,sp,48
   19726:	8082                	ret
   19728:	70a2                	ld	ra,40(sp)
   1972a:	7402                	ld	s0,32(sp)
   1972c:	47d9                	li	a5,22
   1972e:	c11c                	sw	a5,0(a0)
   19730:	64e2                	ld	s1,24(sp)
   19732:	557d                	li	a0,-1
   19734:	6145                	addi	sp,sp,48
   19736:	8082                	ret
   19738:	e432                	sd	a2,8(sp)
   1973a:	f87ff0ef          	jal	ra,196c0 <_init_signal_r.part.0>
   1973e:	87aa                	mv	a5,a0
   19740:	557d                	li	a0,-1
   19742:	fff1                	bnez	a5,1971e <_signal_r+0x20>
   19744:	5184b583          	ld	a1,1304(s1)
   19748:	6622                	ld	a2,8(sp)
   1974a:	b7f1                	j	19716 <_signal_r+0x18>

000000000001974c <_raise_r>:
   1974c:	1101                	addi	sp,sp,-32
   1974e:	e426                	sd	s1,8(sp)
   19750:	ec06                	sd	ra,24(sp)
   19752:	e822                	sd	s0,16(sp)
   19754:	47fd                	li	a5,31
   19756:	84aa                	mv	s1,a0
   19758:	06b7e463          	bltu	a5,a1,197c0 <_raise_r+0x74>
   1975c:	51853783          	ld	a5,1304(a0)
   19760:	842e                	mv	s0,a1
   19762:	c795                	beqz	a5,1978e <_raise_r+0x42>
   19764:	00359713          	slli	a4,a1,0x3
   19768:	97ba                	add	a5,a5,a4
   1976a:	6398                	ld	a4,0(a5)
   1976c:	c30d                	beqz	a4,1978e <_raise_r+0x42>
   1976e:	4685                	li	a3,1
   19770:	04d70263          	beq	a4,a3,197b4 <_raise_r+0x68>
   19774:	56fd                	li	a3,-1
   19776:	02d70763          	beq	a4,a3,197a4 <_raise_r+0x58>
   1977a:	852e                	mv	a0,a1
   1977c:	0007b023          	sd	zero,0(a5) # ffffffff80000000 <__BSS_END__+0xffffffff7fee92d0>
   19780:	9702                	jalr	a4
   19782:	4501                	li	a0,0
   19784:	60e2                	ld	ra,24(sp)
   19786:	6442                	ld	s0,16(sp)
   19788:	64a2                	ld	s1,8(sp)
   1978a:	6105                	addi	sp,sp,32
   1978c:	8082                	ret
   1978e:	8526                	mv	a0,s1
   19790:	152000ef          	jal	ra,198e2 <_getpid_r>
   19794:	8622                	mv	a2,s0
   19796:	6442                	ld	s0,16(sp)
   19798:	60e2                	ld	ra,24(sp)
   1979a:	85aa                	mv	a1,a0
   1979c:	8526                	mv	a0,s1
   1979e:	64a2                	ld	s1,8(sp)
   197a0:	6105                	addi	sp,sp,32
   197a2:	a211                	j	198a6 <_kill_r>
   197a4:	60e2                	ld	ra,24(sp)
   197a6:	6442                	ld	s0,16(sp)
   197a8:	47d9                	li	a5,22
   197aa:	c11c                	sw	a5,0(a0)
   197ac:	64a2                	ld	s1,8(sp)
   197ae:	4505                	li	a0,1
   197b0:	6105                	addi	sp,sp,32
   197b2:	8082                	ret
   197b4:	60e2                	ld	ra,24(sp)
   197b6:	6442                	ld	s0,16(sp)
   197b8:	64a2                	ld	s1,8(sp)
   197ba:	4501                	li	a0,0
   197bc:	6105                	addi	sp,sp,32
   197be:	8082                	ret
   197c0:	47d9                	li	a5,22
   197c2:	c11c                	sw	a5,0(a0)
   197c4:	557d                	li	a0,-1
   197c6:	bf7d                	j	19784 <_raise_r+0x38>

00000000000197c8 <__sigtramp_r>:
   197c8:	47fd                	li	a5,31
   197ca:	06b7e363          	bltu	a5,a1,19830 <__sigtramp_r+0x68>
   197ce:	51853783          	ld	a5,1304(a0)
   197d2:	1101                	addi	sp,sp,-32
   197d4:	e826                	sd	s1,16(sp)
   197d6:	ec06                	sd	ra,24(sp)
   197d8:	84aa                	mv	s1,a0
   197da:	cb95                	beqz	a5,1980e <__sigtramp_r+0x46>
   197dc:	00359713          	slli	a4,a1,0x3
   197e0:	97ba                	add	a5,a5,a4
   197e2:	6398                	ld	a4,0(a5)
   197e4:	c305                	beqz	a4,19804 <__sigtramp_r+0x3c>
   197e6:	56fd                	li	a3,-1
   197e8:	04d70063          	beq	a4,a3,19828 <__sigtramp_r+0x60>
   197ec:	4685                	li	a3,1
   197ee:	02d70863          	beq	a4,a3,1981e <__sigtramp_r+0x56>
   197f2:	852e                	mv	a0,a1
   197f4:	0007b023          	sd	zero,0(a5)
   197f8:	9702                	jalr	a4
   197fa:	4501                	li	a0,0
   197fc:	60e2                	ld	ra,24(sp)
   197fe:	64c2                	ld	s1,16(sp)
   19800:	6105                	addi	sp,sp,32
   19802:	8082                	ret
   19804:	60e2                	ld	ra,24(sp)
   19806:	64c2                	ld	s1,16(sp)
   19808:	4505                	li	a0,1
   1980a:	6105                	addi	sp,sp,32
   1980c:	8082                	ret
   1980e:	e42e                	sd	a1,8(sp)
   19810:	eb1ff0ef          	jal	ra,196c0 <_init_signal_r.part.0>
   19814:	ed01                	bnez	a0,1982c <__sigtramp_r+0x64>
   19816:	5184b783          	ld	a5,1304(s1)
   1981a:	65a2                	ld	a1,8(sp)
   1981c:	b7c1                	j	197dc <__sigtramp_r+0x14>
   1981e:	60e2                	ld	ra,24(sp)
   19820:	64c2                	ld	s1,16(sp)
   19822:	450d                	li	a0,3
   19824:	6105                	addi	sp,sp,32
   19826:	8082                	ret
   19828:	4509                	li	a0,2
   1982a:	bfc9                	j	197fc <__sigtramp_r+0x34>
   1982c:	557d                	li	a0,-1
   1982e:	b7f9                	j	197fc <__sigtramp_r+0x34>
   19830:	557d                	li	a0,-1
   19832:	8082                	ret

0000000000019834 <raise>:
   19834:	85aa                	mv	a1,a0
   19836:	8901b503          	ld	a0,-1904(gp) # 21280 <_impure_ptr>
   1983a:	bf09                	j	1974c <_raise_r>

000000000001983c <signal>:
   1983c:	7179                	addi	sp,sp,-48
   1983e:	ec26                	sd	s1,24(sp)
   19840:	f406                	sd	ra,40(sp)
   19842:	f022                	sd	s0,32(sp)
   19844:	47fd                	li	a5,31
   19846:	8901b483          	ld	s1,-1904(gp) # 21280 <_impure_ptr>
   1984a:	00a7ef63          	bltu	a5,a0,19868 <signal+0x2c>
   1984e:	842a                	mv	s0,a0
   19850:	5184b503          	ld	a0,1304(s1)
   19854:	c115                	beqz	a0,19878 <signal+0x3c>
   19856:	040e                	slli	s0,s0,0x3
   19858:	942a                	add	s0,s0,a0
   1985a:	6008                	ld	a0,0(s0)
   1985c:	e00c                	sd	a1,0(s0)
   1985e:	70a2                	ld	ra,40(sp)
   19860:	7402                	ld	s0,32(sp)
   19862:	64e2                	ld	s1,24(sp)
   19864:	6145                	addi	sp,sp,48
   19866:	8082                	ret
   19868:	70a2                	ld	ra,40(sp)
   1986a:	7402                	ld	s0,32(sp)
   1986c:	47d9                	li	a5,22
   1986e:	c09c                	sw	a5,0(s1)
   19870:	557d                	li	a0,-1
   19872:	64e2                	ld	s1,24(sp)
   19874:	6145                	addi	sp,sp,48
   19876:	8082                	ret
   19878:	8526                	mv	a0,s1
   1987a:	e42e                	sd	a1,8(sp)
   1987c:	e45ff0ef          	jal	ra,196c0 <_init_signal_r.part.0>
   19880:	87aa                	mv	a5,a0
   19882:	557d                	li	a0,-1
   19884:	ffe9                	bnez	a5,1985e <signal+0x22>
   19886:	5184b503          	ld	a0,1304(s1)
   1988a:	65a2                	ld	a1,8(sp)
   1988c:	b7e9                	j	19856 <signal+0x1a>

000000000001988e <_init_signal>:
   1988e:	8901b503          	ld	a0,-1904(gp) # 21280 <_impure_ptr>
   19892:	51853783          	ld	a5,1304(a0)
   19896:	c399                	beqz	a5,1989c <_init_signal+0xe>
   19898:	4501                	li	a0,0
   1989a:	8082                	ret
   1989c:	b515                	j	196c0 <_init_signal_r.part.0>

000000000001989e <__sigtramp>:
   1989e:	85aa                	mv	a1,a0
   198a0:	8901b503          	ld	a0,-1904(gp) # 21280 <_impure_ptr>
   198a4:	b715                	j	197c8 <__sigtramp_r>

00000000000198a6 <_kill_r>:
   198a6:	1141                	addi	sp,sp,-16
   198a8:	872e                	mv	a4,a1
   198aa:	e022                	sd	s0,0(sp)
   198ac:	85b2                	mv	a1,a2
   198ae:	842a                	mv	s0,a0
   198b0:	853a                	mv	a0,a4
   198b2:	000fd797          	auipc	a5,0xfd
   198b6:	4607ab23          	sw	zero,1142(a5) # 116d28 <errno>
   198ba:	e406                	sd	ra,8(sp)
   198bc:	1b4030ef          	jal	ra,1ca70 <_kill>
   198c0:	57fd                	li	a5,-1
   198c2:	00f50663          	beq	a0,a5,198ce <_kill_r+0x28>
   198c6:	60a2                	ld	ra,8(sp)
   198c8:	6402                	ld	s0,0(sp)
   198ca:	0141                	addi	sp,sp,16
   198cc:	8082                	ret
   198ce:	000fd797          	auipc	a5,0xfd
   198d2:	45a7a783          	lw	a5,1114(a5) # 116d28 <errno>
   198d6:	dbe5                	beqz	a5,198c6 <_kill_r+0x20>
   198d8:	60a2                	ld	ra,8(sp)
   198da:	c01c                	sw	a5,0(s0)
   198dc:	6402                	ld	s0,0(sp)
   198de:	0141                	addi	sp,sp,16
   198e0:	8082                	ret

00000000000198e2 <_getpid_r>:
   198e2:	1640306f          	j	1ca46 <_getpid>

00000000000198e6 <_sprintf_r>:
   198e6:	7111                	addi	sp,sp,-256
   198e8:	0d810e93          	addi	t4,sp,216
   198ec:	f5be                	sd	a5,232(sp)
   198ee:	80000337          	lui	t1,0x80000
   198f2:	77c1                	lui	a5,0xffff0
   198f4:	8e2e                	mv	t3,a1
   198f6:	fff34313          	not	t1,t1
   198fa:	edb6                	sd	a3,216(sp)
   198fc:	20878793          	addi	a5,a5,520 # ffffffffffff0208 <__BSS_END__+0xffffffffffed94d8>
   19900:	080c                	addi	a1,sp,16
   19902:	86f6                	mv	a3,t4
   19904:	e586                	sd	ra,200(sp)
   19906:	d03e                	sw	a5,32(sp)
   19908:	f1ba                	sd	a4,224(sp)
   1990a:	f9c2                	sd	a6,240(sp)
   1990c:	fdc6                	sd	a7,248(sp)
   1990e:	e872                	sd	t3,16(sp)
   19910:	f472                	sd	t3,40(sp)
   19912:	d81a                	sw	t1,48(sp)
   19914:	ce1a                	sw	t1,28(sp)
   19916:	e476                	sd	t4,8(sp)
   19918:	3cc000ef          	jal	ra,19ce4 <_svfprintf_r>
   1991c:	67c2                	ld	a5,16(sp)
   1991e:	00078023          	sb	zero,0(a5)
   19922:	60ae                	ld	ra,200(sp)
   19924:	6111                	addi	sp,sp,256
   19926:	8082                	ret

0000000000019928 <sprintf>:
   19928:	7111                	addi	sp,sp,-256
   1992a:	0d010e93          	addi	t4,sp,208
   1992e:	f5be                	sd	a5,232(sp)
   19930:	80000337          	lui	t1,0x80000
   19934:	77c1                	lui	a5,0xffff0
   19936:	8e2a                	mv	t3,a0
   19938:	fff34313          	not	t1,t1
   1993c:	e9b2                	sd	a2,208(sp)
   1993e:	edb6                	sd	a3,216(sp)
   19940:	20878793          	addi	a5,a5,520 # ffffffffffff0208 <__BSS_END__+0xffffffffffed94d8>
   19944:	862e                	mv	a2,a1
   19946:	86f6                	mv	a3,t4
   19948:	080c                	addi	a1,sp,16
   1994a:	8901b503          	ld	a0,-1904(gp) # 21280 <_impure_ptr>
   1994e:	e586                	sd	ra,200(sp)
   19950:	d03e                	sw	a5,32(sp)
   19952:	f1ba                	sd	a4,224(sp)
   19954:	f9c2                	sd	a6,240(sp)
   19956:	fdc6                	sd	a7,248(sp)
   19958:	e872                	sd	t3,16(sp)
   1995a:	f472                	sd	t3,40(sp)
   1995c:	d81a                	sw	t1,48(sp)
   1995e:	ce1a                	sw	t1,28(sp)
   19960:	e476                	sd	t4,8(sp)
   19962:	382000ef          	jal	ra,19ce4 <_svfprintf_r>
   19966:	67c2                	ld	a5,16(sp)
   19968:	00078023          	sb	zero,0(a5)
   1996c:	60ae                	ld	ra,200(sp)
   1996e:	6111                	addi	sp,sp,256
   19970:	8082                	ret

0000000000019972 <__sread>:
   19972:	1141                	addi	sp,sp,-16
   19974:	e022                	sd	s0,0(sp)
   19976:	842e                	mv	s0,a1
   19978:	01259583          	lh	a1,18(a1)
   1997c:	e406                	sd	ra,8(sp)
   1997e:	372020ef          	jal	ra,1bcf0 <_read_r>
   19982:	00054963          	bltz	a0,19994 <__sread+0x22>
   19986:	685c                	ld	a5,144(s0)
   19988:	60a2                	ld	ra,8(sp)
   1998a:	97aa                	add	a5,a5,a0
   1998c:	e85c                	sd	a5,144(s0)
   1998e:	6402                	ld	s0,0(sp)
   19990:	0141                	addi	sp,sp,16
   19992:	8082                	ret
   19994:	01045783          	lhu	a5,16(s0)
   19998:	777d                	lui	a4,0xfffff
   1999a:	177d                	addi	a4,a4,-1
   1999c:	8ff9                	and	a5,a5,a4
   1999e:	60a2                	ld	ra,8(sp)
   199a0:	00f41823          	sh	a5,16(s0)
   199a4:	6402                	ld	s0,0(sp)
   199a6:	0141                	addi	sp,sp,16
   199a8:	8082                	ret

00000000000199aa <__seofread>:
   199aa:	4501                	li	a0,0
   199ac:	8082                	ret

00000000000199ae <__swrite>:
   199ae:	01059783          	lh	a5,16(a1)
   199b2:	7179                	addi	sp,sp,-48
   199b4:	f022                	sd	s0,32(sp)
   199b6:	ec26                	sd	s1,24(sp)
   199b8:	e84a                	sd	s2,16(sp)
   199ba:	e44e                	sd	s3,8(sp)
   199bc:	f406                	sd	ra,40(sp)
   199be:	1007f713          	andi	a4,a5,256
   199c2:	842e                	mv	s0,a1
   199c4:	84aa                	mv	s1,a0
   199c6:	01259583          	lh	a1,18(a1)
   199ca:	8932                	mv	s2,a2
   199cc:	89b6                	mv	s3,a3
   199ce:	e30d                	bnez	a4,199f0 <__swrite+0x42>
   199d0:	777d                	lui	a4,0xfffff
   199d2:	177d                	addi	a4,a4,-1
   199d4:	8ff9                	and	a5,a5,a4
   199d6:	00f41823          	sh	a5,16(s0)
   199da:	7402                	ld	s0,32(sp)
   199dc:	70a2                	ld	ra,40(sp)
   199de:	86ce                	mv	a3,s3
   199e0:	864a                	mv	a2,s2
   199e2:	69a2                	ld	s3,8(sp)
   199e4:	6942                	ld	s2,16(sp)
   199e6:	8526                	mv	a0,s1
   199e8:	64e2                	ld	s1,24(sp)
   199ea:	6145                	addi	sp,sp,48
   199ec:	0b00206f          	j	1ba9c <_write_r>
   199f0:	4689                	li	a3,2
   199f2:	4601                	li	a2,0
   199f4:	2be020ef          	jal	ra,1bcb2 <_lseek_r>
   199f8:	01041783          	lh	a5,16(s0)
   199fc:	01241583          	lh	a1,18(s0)
   19a00:	bfc1                	j	199d0 <__swrite+0x22>

0000000000019a02 <__sseek>:
   19a02:	1141                	addi	sp,sp,-16
   19a04:	e022                	sd	s0,0(sp)
   19a06:	842e                	mv	s0,a1
   19a08:	01259583          	lh	a1,18(a1)
   19a0c:	e406                	sd	ra,8(sp)
   19a0e:	2a4020ef          	jal	ra,1bcb2 <_lseek_r>
   19a12:	57fd                	li	a5,-1
   19a14:	00f50d63          	beq	a0,a5,19a2e <__sseek+0x2c>
   19a18:	01045783          	lhu	a5,16(s0)
   19a1c:	6705                	lui	a4,0x1
   19a1e:	60a2                	ld	ra,8(sp)
   19a20:	8fd9                	or	a5,a5,a4
   19a22:	e848                	sd	a0,144(s0)
   19a24:	00f41823          	sh	a5,16(s0)
   19a28:	6402                	ld	s0,0(sp)
   19a2a:	0141                	addi	sp,sp,16
   19a2c:	8082                	ret
   19a2e:	01045783          	lhu	a5,16(s0)
   19a32:	777d                	lui	a4,0xfffff
   19a34:	177d                	addi	a4,a4,-1
   19a36:	8ff9                	and	a5,a5,a4
   19a38:	60a2                	ld	ra,8(sp)
   19a3a:	00f41823          	sh	a5,16(s0)
   19a3e:	6402                	ld	s0,0(sp)
   19a40:	0141                	addi	sp,sp,16
   19a42:	8082                	ret

0000000000019a44 <__sclose>:
   19a44:	01259583          	lh	a1,18(a1)
   19a48:	1080206f          	j	1bb50 <_close_r>

0000000000019a4c <strcmp>:
   19a4c:	00b56733          	or	a4,a0,a1
   19a50:	53fd                	li	t2,-1
   19a52:	8b1d                	andi	a4,a4,7
   19a54:	eb4d                	bnez	a4,19b06 <strcmp+0xba>
   19a56:	00007797          	auipc	a5,0x7
   19a5a:	7fa7b783          	ld	a5,2042(a5) # 21250 <mask>
   19a5e:	6110                	ld	a2,0(a0)
   19a60:	6194                	ld	a3,0(a1)
   19a62:	00f672b3          	and	t0,a2,a5
   19a66:	00f66333          	or	t1,a2,a5
   19a6a:	92be                	add	t0,t0,a5
   19a6c:	0062e2b3          	or	t0,t0,t1
   19a70:	0a729963          	bne	t0,t2,19b22 <strcmp+0xd6>
   19a74:	02d61e63          	bne	a2,a3,19ab0 <strcmp+0x64>
   19a78:	6510                	ld	a2,8(a0)
   19a7a:	6594                	ld	a3,8(a1)
   19a7c:	00f672b3          	and	t0,a2,a5
   19a80:	00f66333          	or	t1,a2,a5
   19a84:	92be                	add	t0,t0,a5
   19a86:	0062e2b3          	or	t0,t0,t1
   19a8a:	08729a63          	bne	t0,t2,19b1e <strcmp+0xd2>
   19a8e:	02d61163          	bne	a2,a3,19ab0 <strcmp+0x64>
   19a92:	6910                	ld	a2,16(a0)
   19a94:	6994                	ld	a3,16(a1)
   19a96:	00f672b3          	and	t0,a2,a5
   19a9a:	00f66333          	or	t1,a2,a5
   19a9e:	92be                	add	t0,t0,a5
   19aa0:	0062e2b3          	or	t0,t0,t1
   19aa4:	08729363          	bne	t0,t2,19b2a <strcmp+0xde>
   19aa8:	0561                	addi	a0,a0,24
   19aaa:	05e1                	addi	a1,a1,24
   19aac:	fad609e3          	beq	a2,a3,19a5e <strcmp+0x12>
   19ab0:	03061713          	slli	a4,a2,0x30
   19ab4:	03069793          	slli	a5,a3,0x30
   19ab8:	02f71863          	bne	a4,a5,19ae8 <strcmp+0x9c>
   19abc:	02061713          	slli	a4,a2,0x20
   19ac0:	02069793          	slli	a5,a3,0x20
   19ac4:	02f71263          	bne	a4,a5,19ae8 <strcmp+0x9c>
   19ac8:	01061713          	slli	a4,a2,0x10
   19acc:	01069793          	slli	a5,a3,0x10
   19ad0:	00f71c63          	bne	a4,a5,19ae8 <strcmp+0x9c>
   19ad4:	03065713          	srli	a4,a2,0x30
   19ad8:	0306d793          	srli	a5,a3,0x30
   19adc:	40f70533          	sub	a0,a4,a5
   19ae0:	0ff57593          	zext.b	a1,a0
   19ae4:	e991                	bnez	a1,19af8 <strcmp+0xac>
   19ae6:	8082                	ret
   19ae8:	9341                	srli	a4,a4,0x30
   19aea:	93c1                	srli	a5,a5,0x30
   19aec:	40f70533          	sub	a0,a4,a5
   19af0:	0ff57593          	zext.b	a1,a0
   19af4:	e191                	bnez	a1,19af8 <strcmp+0xac>
   19af6:	8082                	ret
   19af8:	0ff77713          	zext.b	a4,a4
   19afc:	0ff7f793          	zext.b	a5,a5
   19b00:	40f70533          	sub	a0,a4,a5
   19b04:	8082                	ret
   19b06:	00054603          	lbu	a2,0(a0)
   19b0a:	0005c683          	lbu	a3,0(a1)
   19b0e:	0505                	addi	a0,a0,1
   19b10:	0585                	addi	a1,a1,1
   19b12:	00d61363          	bne	a2,a3,19b18 <strcmp+0xcc>
   19b16:	fa65                	bnez	a2,19b06 <strcmp+0xba>
   19b18:	40d60533          	sub	a0,a2,a3
   19b1c:	8082                	ret
   19b1e:	0521                	addi	a0,a0,8
   19b20:	05a1                	addi	a1,a1,8
   19b22:	fed612e3          	bne	a2,a3,19b06 <strcmp+0xba>
   19b26:	4501                	li	a0,0
   19b28:	8082                	ret
   19b2a:	0541                	addi	a0,a0,16
   19b2c:	05c1                	addi	a1,a1,16
   19b2e:	fcd61ce3          	bne	a2,a3,19b06 <strcmp+0xba>
   19b32:	4501                	li	a0,0
   19b34:	8082                	ret

0000000000019b36 <strcpy>:
   19b36:	00b567b3          	or	a5,a0,a1
   19b3a:	8b9d                	andi	a5,a5,7
   19b3c:	efbd                	bnez	a5,19bba <strcpy+0x84>
   19b3e:	6198                	ld	a4,0(a1)
   19b40:	00007697          	auipc	a3,0x7
   19b44:	7106b683          	ld	a3,1808(a3) # 21250 <mask>
   19b48:	567d                	li	a2,-1
   19b4a:	00d777b3          	and	a5,a4,a3
   19b4e:	97b6                	add	a5,a5,a3
   19b50:	8fd9                	or	a5,a5,a4
   19b52:	8fd5                	or	a5,a5,a3
   19b54:	06c79c63          	bne	a5,a2,19bcc <strcpy+0x96>
   19b58:	862a                	mv	a2,a0
   19b5a:	587d                	li	a6,-1
   19b5c:	e218                	sd	a4,0(a2)
   19b5e:	6598                	ld	a4,8(a1)
   19b60:	05a1                	addi	a1,a1,8
   19b62:	0621                	addi	a2,a2,8
   19b64:	00d777b3          	and	a5,a4,a3
   19b68:	97b6                	add	a5,a5,a3
   19b6a:	8fd9                	or	a5,a5,a4
   19b6c:	8fd5                	or	a5,a5,a3
   19b6e:	ff0787e3          	beq	a5,a6,19b5c <strcpy+0x26>
   19b72:	0005c783          	lbu	a5,0(a1)
   19b76:	0015c703          	lbu	a4,1(a1)
   19b7a:	0025c683          	lbu	a3,2(a1)
   19b7e:	00f60023          	sb	a5,0(a2) # 3fe00000 <__BSS_END__+0x3fce92d0>
   19b82:	cb9d                	beqz	a5,19bb8 <strcpy+0x82>
   19b84:	00e600a3          	sb	a4,1(a2)
   19b88:	cb05                	beqz	a4,19bb8 <strcpy+0x82>
   19b8a:	0035c783          	lbu	a5,3(a1)
   19b8e:	00d60123          	sb	a3,2(a2)
   19b92:	c29d                	beqz	a3,19bb8 <strcpy+0x82>
   19b94:	0045c703          	lbu	a4,4(a1)
   19b98:	00f601a3          	sb	a5,3(a2)
   19b9c:	cf91                	beqz	a5,19bb8 <strcpy+0x82>
   19b9e:	0055c783          	lbu	a5,5(a1)
   19ba2:	00e60223          	sb	a4,4(a2)
   19ba6:	cb09                	beqz	a4,19bb8 <strcpy+0x82>
   19ba8:	0065c703          	lbu	a4,6(a1)
   19bac:	00f602a3          	sb	a5,5(a2)
   19bb0:	c781                	beqz	a5,19bb8 <strcpy+0x82>
   19bb2:	00e60323          	sb	a4,6(a2)
   19bb6:	ef09                	bnez	a4,19bd0 <strcpy+0x9a>
   19bb8:	8082                	ret
   19bba:	87aa                	mv	a5,a0
   19bbc:	0005c703          	lbu	a4,0(a1)
   19bc0:	0785                	addi	a5,a5,1
   19bc2:	0585                	addi	a1,a1,1
   19bc4:	fee78fa3          	sb	a4,-1(a5)
   19bc8:	fb75                	bnez	a4,19bbc <strcpy+0x86>
   19bca:	8082                	ret
   19bcc:	862a                	mv	a2,a0
   19bce:	b755                	j	19b72 <strcpy+0x3c>
   19bd0:	000603a3          	sb	zero,7(a2)
   19bd4:	8082                	ret

0000000000019bd6 <strlen>:
   19bd6:	00757793          	andi	a5,a0,7
   19bda:	872a                	mv	a4,a0
   19bdc:	ebb9                	bnez	a5,19c32 <strlen+0x5c>
   19bde:	00007697          	auipc	a3,0x7
   19be2:	6726b683          	ld	a3,1650(a3) # 21250 <mask>
   19be6:	55fd                	li	a1,-1
   19be8:	6310                	ld	a2,0(a4)
   19bea:	0721                	addi	a4,a4,8
   19bec:	00d677b3          	and	a5,a2,a3
   19bf0:	97b6                	add	a5,a5,a3
   19bf2:	8fd1                	or	a5,a5,a2
   19bf4:	8fd5                	or	a5,a5,a3
   19bf6:	feb789e3          	beq	a5,a1,19be8 <strlen+0x12>
   19bfa:	ff874683          	lbu	a3,-8(a4) # ffffffffffffeff8 <__BSS_END__+0xffffffffffee82c8>
   19bfe:	40a707b3          	sub	a5,a4,a0
   19c02:	c6a9                	beqz	a3,19c4c <strlen+0x76>
   19c04:	ff974683          	lbu	a3,-7(a4)
   19c08:	ce9d                	beqz	a3,19c46 <strlen+0x70>
   19c0a:	ffa74683          	lbu	a3,-6(a4)
   19c0e:	c6a9                	beqz	a3,19c58 <strlen+0x82>
   19c10:	ffb74683          	lbu	a3,-5(a4)
   19c14:	ce9d                	beqz	a3,19c52 <strlen+0x7c>
   19c16:	ffc74683          	lbu	a3,-4(a4)
   19c1a:	ffd74603          	lbu	a2,-3(a4)
   19c1e:	ffe74503          	lbu	a0,-2(a4)
   19c22:	ce95                	beqz	a3,19c5e <strlen+0x88>
   19c24:	c221                	beqz	a2,19c64 <strlen+0x8e>
   19c26:	00a03533          	snez	a0,a0
   19c2a:	953e                	add	a0,a0,a5
   19c2c:	1579                	addi	a0,a0,-2
   19c2e:	8082                	ret
   19c30:	d6dd                	beqz	a3,19bde <strlen+0x8>
   19c32:	00074783          	lbu	a5,0(a4)
   19c36:	0705                	addi	a4,a4,1
   19c38:	00777693          	andi	a3,a4,7
   19c3c:	fbf5                	bnez	a5,19c30 <strlen+0x5a>
   19c3e:	8f09                	sub	a4,a4,a0
   19c40:	fff70513          	addi	a0,a4,-1
   19c44:	8082                	ret
   19c46:	ff978513          	addi	a0,a5,-7
   19c4a:	8082                	ret
   19c4c:	ff878513          	addi	a0,a5,-8
   19c50:	8082                	ret
   19c52:	ffb78513          	addi	a0,a5,-5
   19c56:	8082                	ret
   19c58:	ffa78513          	addi	a0,a5,-6
   19c5c:	8082                	ret
   19c5e:	ffc78513          	addi	a0,a5,-4
   19c62:	8082                	ret
   19c64:	ffd78513          	addi	a0,a5,-3
   19c68:	8082                	ret

0000000000019c6a <strncpy>:
   19c6a:	00a5e7b3          	or	a5,a1,a0
   19c6e:	8b9d                	andi	a5,a5,7
   19c70:	872a                	mv	a4,a0
   19c72:	ebb1                	bnez	a5,19cc6 <strncpy+0x5c>
   19c74:	479d                	li	a5,7
   19c76:	04c7f863          	bgeu	a5,a2,19cc6 <strncpy+0x5c>
   19c7a:	00007317          	auipc	t1,0x7
   19c7e:	5b633303          	ld	t1,1462(t1) # 21230 <__SDATA_BEGIN__+0x40>
   19c82:	00007897          	auipc	a7,0x7
   19c86:	5b68b883          	ld	a7,1462(a7) # 21238 <__SDATA_BEGIN__+0x48>
   19c8a:	4e1d                	li	t3,7
   19c8c:	6194                	ld	a3,0(a1)
   19c8e:	006687b3          	add	a5,a3,t1
   19c92:	fff6c813          	not	a6,a3
   19c96:	0107f7b3          	and	a5,a5,a6
   19c9a:	0117f7b3          	and	a5,a5,a7
   19c9e:	e785                	bnez	a5,19cc6 <strncpy+0x5c>
   19ca0:	e314                	sd	a3,0(a4)
   19ca2:	1661                	addi	a2,a2,-8
   19ca4:	0721                	addi	a4,a4,8
   19ca6:	05a1                	addi	a1,a1,8
   19ca8:	fece62e3          	bltu	t3,a2,19c8c <strncpy+0x22>
   19cac:	0585                	addi	a1,a1,1
   19cae:	00170793          	addi	a5,a4,1
   19cb2:	ce11                	beqz	a2,19cce <strncpy+0x64>
   19cb4:	fff5c683          	lbu	a3,-1(a1)
   19cb8:	fff60813          	addi	a6,a2,-1
   19cbc:	fed78fa3          	sb	a3,-1(a5)
   19cc0:	ca81                	beqz	a3,19cd0 <strncpy+0x66>
   19cc2:	873e                	mv	a4,a5
   19cc4:	8642                	mv	a2,a6
   19cc6:	0585                	addi	a1,a1,1
   19cc8:	00170793          	addi	a5,a4,1
   19ccc:	f665                	bnez	a2,19cb4 <strncpy+0x4a>
   19cce:	8082                	ret
   19cd0:	963a                	add	a2,a2,a4
   19cd2:	00080863          	beqz	a6,19ce2 <strncpy+0x78>
   19cd6:	0785                	addi	a5,a5,1
   19cd8:	fe078fa3          	sb	zero,-1(a5)
   19cdc:	fec79de3          	bne	a5,a2,19cd6 <strncpy+0x6c>
   19ce0:	8082                	ret
   19ce2:	8082                	ret

0000000000019ce4 <_svfprintf_r>:
   19ce4:	d8010113          	addi	sp,sp,-640
   19ce8:	26113c23          	sd	ra,632(sp)
   19cec:	25413823          	sd	s4,592(sp)
   19cf0:	25513423          	sd	s5,584(sp)
   19cf4:	23913423          	sd	s9,552(sp)
   19cf8:	8aae                	mv	s5,a1
   19cfa:	8cb2                	mv	s9,a2
   19cfc:	ec36                	sd	a3,24(sp)
   19cfe:	26813823          	sd	s0,624(sp)
   19d02:	26913423          	sd	s1,616(sp)
   19d06:	27213023          	sd	s2,608(sp)
   19d0a:	25313c23          	sd	s3,600(sp)
   19d0e:	25613023          	sd	s6,576(sp)
   19d12:	23713c23          	sd	s7,568(sp)
   19d16:	23813823          	sd	s8,560(sp)
   19d1a:	23a13023          	sd	s10,544(sp)
   19d1e:	21b13c23          	sd	s11,536(sp)
   19d22:	8a2a                	mv	s4,a0
   19d24:	c04fe0ef          	jal	ra,18128 <_localeconv_r>
   19d28:	611c                	ld	a5,0(a0)
   19d2a:	853e                	mv	a0,a5
   19d2c:	fcbe                	sd	a5,120(sp)
   19d2e:	ea9ff0ef          	jal	ra,19bd6 <strlen>
   19d32:	010ad783          	lhu	a5,16(s5)
   19d36:	e202                	sd	zero,256(sp)
   19d38:	e602                	sd	zero,264(sp)
   19d3a:	0807f793          	andi	a5,a5,128
   19d3e:	f8aa                	sd	a0,112(sp)
   19d40:	c791                	beqz	a5,19d4c <_svfprintf_r+0x68>
   19d42:	018ab783          	ld	a5,24(s5)
   19d46:	e399                	bnez	a5,19d4c <_svfprintf_r+0x68>
   19d48:	7f30006f          	j	1ad3a <_svfprintf_r+0x1056>
   19d4c:	000cc783          	lbu	a5,0(s9)
   19d50:	19010b93          	addi	s7,sp,400
   19d54:	ea5e                	sd	s7,272(sp)
   19d56:	f202                	sd	zero,288(sp)
   19d58:	10012c23          	sw	zero,280(sp)
   19d5c:	f002                	sd	zero,32(sp)
   19d5e:	f402                	sd	zero,40(sp)
   19d60:	e102                	sd	zero,128(sp)
   19d62:	f482                	sd	zero,104(sp)
   19d64:	e502                	sd	zero,136(sp)
   19d66:	e902                	sd	zero,144(sp)
   19d68:	e002                	sd	zero,0(sp)
   19d6a:	835e                	mv	t1,s7
   19d6c:	4d41                	li	s10,16
   19d6e:	00005917          	auipc	s2,0x5
   19d72:	ef290913          	addi	s2,s2,-270 # 1ec60 <zeroes.4506>
   19d76:	1c078663          	beqz	a5,19f42 <_svfprintf_r+0x25e>
   19d7a:	8466                	mv	s0,s9
   19d7c:	02500713          	li	a4,37
   19d80:	2ce78b63          	beq	a5,a4,1a056 <_svfprintf_r+0x372>
   19d84:	00144783          	lbu	a5,1(s0)
   19d88:	0405                	addi	s0,s0,1
   19d8a:	fbfd                	bnez	a5,19d80 <_svfprintf_r+0x9c>
   19d8c:	419404bb          	subw	s1,s0,s9
   19d90:	1a048963          	beqz	s1,19f42 <_svfprintf_r+0x25e>
   19d94:	7712                	ld	a4,288(sp)
   19d96:	11812783          	lw	a5,280(sp)
   19d9a:	01933023          	sd	s9,0(t1)
   19d9e:	9726                	add	a4,a4,s1
   19da0:	2785                	addiw	a5,a5,1
   19da2:	00933423          	sd	s1,8(t1)
   19da6:	f23a                	sd	a4,288(sp)
   19da8:	10f12c23          	sw	a5,280(sp)
   19dac:	0007871b          	sext.w	a4,a5
   19db0:	479d                	li	a5,7
   19db2:	0341                	addi	t1,t1,16
   19db4:	2ae7c863          	blt	a5,a4,1a064 <_svfprintf_r+0x380>
   19db8:	6702                	ld	a4,0(sp)
   19dba:	00044783          	lbu	a5,0(s0)
   19dbe:	9f25                	addw	a4,a4,s1
   19dc0:	e03a                	sd	a4,0(sp)
   19dc2:	18078063          	beqz	a5,19f42 <_svfprintf_r+0x25e>
   19dc6:	00144f03          	lbu	t5,1(s0)
   19dca:	0c010fa3          	sb	zero,223(sp)
   19dce:	0405                	addi	s0,s0,1
   19dd0:	5efd                	li	t4,-1
   19dd2:	4b01                	li	s6,0
   19dd4:	4481                	li	s1,0
   19dd6:	49a5                	li	s3,9
   19dd8:	02a00c13          	li	s8,42
   19ddc:	0405                	addi	s0,s0,1
   19dde:	000f0d9b          	sext.w	s11,t5
   19de2:	05a00693          	li	a3,90
   19de6:	fe0d879b          	addiw	a5,s11,-32
   19dea:	0007871b          	sext.w	a4,a5
   19dee:	04e6e663          	bltu	a3,a4,19e3a <_svfprintf_r+0x156>
   19df2:	1782                	slli	a5,a5,0x20
   19df4:	00005717          	auipc	a4,0x5
   19df8:	cec70713          	addi	a4,a4,-788 # 1eae0 <__mprec_bigtens+0x28>
   19dfc:	83f9                	srli	a5,a5,0x1e
   19dfe:	97ba                	add	a5,a5,a4
   19e00:	439c                	lw	a5,0(a5)
   19e02:	97ba                	add	a5,a5,a4
   19e04:	8782                	jr	a5
   19e06:	4b01                	li	s6,0
   19e08:	00044703          	lbu	a4,0(s0)
   19e0c:	002b179b          	slliw	a5,s6,0x2
   19e10:	01678b3b          	addw	s6,a5,s6
   19e14:	fd0d8f1b          	addiw	t5,s11,-48
   19e18:	001b1b1b          	slliw	s6,s6,0x1
   19e1c:	fd07079b          	addiw	a5,a4,-48
   19e20:	0405                	addi	s0,s0,1
   19e22:	016f0b3b          	addw	s6,t5,s6
   19e26:	00070d9b          	sext.w	s11,a4
   19e2a:	fcf9ffe3          	bgeu	s3,a5,19e08 <_svfprintf_r+0x124>
   19e2e:	fe0d879b          	addiw	a5,s11,-32
   19e32:	0007871b          	sext.w	a4,a5
   19e36:	fae6fee3          	bgeu	a3,a4,19df2 <_svfprintf_r+0x10e>
   19e3a:	100d8463          	beqz	s11,19f42 <_svfprintf_r+0x25e>
   19e3e:	13b10423          	sb	s11,296(sp)
   19e42:	0c010fa3          	sb	zero,223(sp)
   19e46:	4985                	li	s3,1
   19e48:	4c05                	li	s8,1
   19e4a:	12810c93          	addi	s9,sp,296
   19e4e:	e802                	sd	zero,16(sp)
   19e50:	4e81                	li	t4,0
   19e52:	e882                	sd	zero,80(sp)
   19e54:	f082                	sd	zero,96(sp)
   19e56:	ec82                	sd	zero,88(sp)
   19e58:	0024f793          	andi	a5,s1,2
   19e5c:	0007829b          	sext.w	t0,a5
   19e60:	c391                	beqz	a5,19e64 <_svfprintf_r+0x180>
   19e62:	2989                	addiw	s3,s3,2
   19e64:	0844ff93          	andi	t6,s1,132
   19e68:	7792                	ld	a5,288(sp)
   19e6a:	000f9663          	bnez	t6,19e76 <_svfprintf_r+0x192>
   19e6e:	413b06bb          	subw	a3,s6,s3
   19e72:	22d04ce3          	bgtz	a3,1a8aa <_svfprintf_r+0xbc6>
   19e76:	0df14703          	lbu	a4,223(sp)
   19e7a:	c70d                	beqz	a4,19ea4 <_svfprintf_r+0x1c0>
   19e7c:	11812703          	lw	a4,280(sp)
   19e80:	0df10693          	addi	a3,sp,223
   19e84:	00d33023          	sd	a3,0(t1)
   19e88:	2705                	addiw	a4,a4,1
   19e8a:	4685                	li	a3,1
   19e8c:	0785                	addi	a5,a5,1
   19e8e:	00d33423          	sd	a3,8(t1)
   19e92:	10e12c23          	sw	a4,280(sp)
   19e96:	0007069b          	sext.w	a3,a4
   19e9a:	f23e                	sd	a5,288(sp)
   19e9c:	471d                	li	a4,7
   19e9e:	0341                	addi	t1,t1,16
   19ea0:	40d74163          	blt	a4,a3,1a2a2 <_svfprintf_r+0x5be>
   19ea4:	02028563          	beqz	t0,19ece <_svfprintf_r+0x1ea>
   19ea8:	11812703          	lw	a4,280(sp)
   19eac:	1194                	addi	a3,sp,224
   19eae:	00d33023          	sd	a3,0(t1)
   19eb2:	2705                	addiw	a4,a4,1
   19eb4:	4689                	li	a3,2
   19eb6:	0789                	addi	a5,a5,2
   19eb8:	00d33423          	sd	a3,8(t1)
   19ebc:	10e12c23          	sw	a4,280(sp)
   19ec0:	0007069b          	sext.w	a3,a4
   19ec4:	f23e                	sd	a5,288(sp)
   19ec6:	471d                	li	a4,7
   19ec8:	0341                	addi	t1,t1,16
   19eca:	28d740e3          	blt	a4,a3,1a94a <_svfprintf_r+0xc66>
   19ece:	08000713          	li	a4,128
   19ed2:	08ef86e3          	beq	t6,a4,1a75e <_svfprintf_r+0xa7a>
   19ed6:	418e8ebb          	subw	t4,t4,s8
   19eda:	11d04ae3          	bgtz	t4,1a7ee <_svfprintf_r+0xb0a>
   19ede:	1004f713          	andi	a4,s1,256
   19ee2:	76071e63          	bnez	a4,1a65e <_svfprintf_r+0x97a>
   19ee6:	11812703          	lw	a4,280(sp)
   19eea:	97e2                	add	a5,a5,s8
   19eec:	01933023          	sd	s9,0(t1)
   19ef0:	0017069b          	addiw	a3,a4,1
   19ef4:	8736                	mv	a4,a3
   19ef6:	01833423          	sd	s8,8(t1)
   19efa:	10e12c23          	sw	a4,280(sp)
   19efe:	f23e                	sd	a5,288(sp)
   19f00:	471d                	li	a4,7
   19f02:	48d74063          	blt	a4,a3,1a382 <_svfprintf_r+0x69e>
   19f06:	0341                	addi	t1,t1,16
   19f08:	8891                	andi	s1,s1,4
   19f0a:	c489                	beqz	s1,19f14 <_svfprintf_r+0x230>
   19f0c:	413b04bb          	subw	s1,s6,s3
   19f10:	24904be3          	bgtz	s1,1a966 <_svfprintf_r+0xc82>
   19f14:	875a                	mv	a4,s6
   19f16:	013b5363          	bge	s6,s3,19f1c <_svfprintf_r+0x238>
   19f1a:	874e                	mv	a4,s3
   19f1c:	6682                	ld	a3,0(sp)
   19f1e:	9f35                	addw	a4,a4,a3
   19f20:	e03a                	sd	a4,0(sp)
   19f22:	140793e3          	bnez	a5,1a868 <_svfprintf_r+0xb84>
   19f26:	67c2                	ld	a5,16(sp)
   19f28:	10012c23          	sw	zero,280(sp)
   19f2c:	c789                	beqz	a5,19f36 <_svfprintf_r+0x252>
   19f2e:	65c2                	ld	a1,16(sp)
   19f30:	8552                	mv	a0,s4
   19f32:	a55fb0ef          	jal	ra,15986 <_free_r>
   19f36:	835e                	mv	t1,s7
   19f38:	8ca2                	mv	s9,s0
   19f3a:	000cc783          	lbu	a5,0(s9)
   19f3e:	e2079ee3          	bnez	a5,19d7a <_svfprintf_r+0x96>
   19f42:	7792                	ld	a5,288(sp)
   19f44:	c399                	beqz	a5,19f4a <_svfprintf_r+0x266>
   19f46:	2f00106f          	j	1b236 <_svfprintf_r+0x1552>
   19f4a:	010ad783          	lhu	a5,16(s5)
   19f4e:	0407f793          	andi	a5,a5,64
   19f52:	c399                	beqz	a5,19f58 <_svfprintf_r+0x274>
   19f54:	7840106f          	j	1b6d8 <_svfprintf_r+0x19f4>
   19f58:	27813083          	ld	ra,632(sp)
   19f5c:	27013403          	ld	s0,624(sp)
   19f60:	6502                	ld	a0,0(sp)
   19f62:	26813483          	ld	s1,616(sp)
   19f66:	26013903          	ld	s2,608(sp)
   19f6a:	25813983          	ld	s3,600(sp)
   19f6e:	25013a03          	ld	s4,592(sp)
   19f72:	24813a83          	ld	s5,584(sp)
   19f76:	24013b03          	ld	s6,576(sp)
   19f7a:	23813b83          	ld	s7,568(sp)
   19f7e:	23013c03          	ld	s8,560(sp)
   19f82:	22813c83          	ld	s9,552(sp)
   19f86:	22013d03          	ld	s10,544(sp)
   19f8a:	21813d83          	ld	s11,536(sp)
   19f8e:	28010113          	addi	sp,sp,640
   19f92:	8082                	ret
   19f94:	0104e493          	ori	s1,s1,16
   19f98:	00044f03          	lbu	t5,0(s0)
   19f9c:	2481                	sext.w	s1,s1
   19f9e:	bd3d                	j	19ddc <_svfprintf_r+0xf8>
   19fa0:	0104e493          	ori	s1,s1,16
   19fa4:	2481                	sext.w	s1,s1
   19fa6:	66e2                	ld	a3,24(sp)
   19fa8:	0204f793          	andi	a5,s1,32
   19fac:	00868713          	addi	a4,a3,8
   19fb0:	40078263          	beqz	a5,1a3b4 <_svfprintf_r+0x6d0>
   19fb4:	629c                	ld	a5,0(a3)
   19fb6:	89be                	mv	s3,a5
   19fb8:	4007cc63          	bltz	a5,1a3d0 <_svfprintf_r+0x6ec>
   19fbc:	57fd                	li	a5,-1
   19fbe:	44fe89e3          	beq	t4,a5,1ac10 <_svfprintf_r+0xf2c>
   19fc2:	f7f4f493          	andi	s1,s1,-129
   19fc6:	ec3a                	sd	a4,24(sp)
   19fc8:	0004881b          	sext.w	a6,s1
   19fcc:	0c0992e3          	bnez	s3,1a890 <_svfprintf_r+0xbac>
   19fd0:	0c0e93e3          	bnez	t4,1a896 <_svfprintf_r+0xbb2>
   19fd4:	84c2                	mv	s1,a6
   19fd6:	4e81                	li	t4,0
   19fd8:	4c01                	li	s8,0
   19fda:	18c10c93          	addi	s9,sp,396
   19fde:	000c099b          	sext.w	s3,s8
   19fe2:	01dc5463          	bge	s8,t4,19fea <_svfprintf_r+0x306>
   19fe6:	000e899b          	sext.w	s3,t4
   19fea:	0df14783          	lbu	a5,223(sp)
   19fee:	e802                	sd	zero,16(sp)
   19ff0:	e882                	sd	zero,80(sp)
   19ff2:	f082                	sd	zero,96(sp)
   19ff4:	ec82                	sd	zero,88(sp)
   19ff6:	e60781e3          	beqz	a5,19e58 <_svfprintf_r+0x174>
   19ffa:	2985                	addiw	s3,s3,1
   19ffc:	bdb1                	j	19e58 <_svfprintf_r+0x174>
   19ffe:	0104e493          	ori	s1,s1,16
   1a002:	2481                	sext.w	s1,s1
   1a004:	66e2                	ld	a3,24(sp)
   1a006:	0204f793          	andi	a5,s1,32
   1a00a:	00868713          	addi	a4,a3,8
   1a00e:	38078463          	beqz	a5,1a396 <_svfprintf_r+0x6b2>
   1a012:	0006b983          	ld	s3,0(a3)
   1a016:	bff4f493          	andi	s1,s1,-1025
   1a01a:	0004881b          	sext.w	a6,s1
   1a01e:	ec3a                	sd	a4,24(sp)
   1a020:	4781                	li	a5,0
   1a022:	0c010fa3          	sb	zero,223(sp)
   1a026:	577d                	li	a4,-1
   1a028:	3cee8063          	beq	t4,a4,1a3e8 <_svfprintf_r+0x704>
   1a02c:	f7f87493          	andi	s1,a6,-129
   1a030:	2481                	sext.w	s1,s1
   1a032:	04099be3          	bnez	s3,1a888 <_svfprintf_r+0xba4>
   1a036:	6e0e9763          	bnez	t4,1a724 <_svfprintf_r+0xa40>
   1a03a:	ffd1                	bnez	a5,19fd6 <_svfprintf_r+0x2f2>
   1a03c:	00187c13          	andi	s8,a6,1
   1a040:	18c10c93          	addi	s9,sp,396
   1a044:	f80c0de3          	beqz	s8,19fde <_svfprintf_r+0x2fa>
   1a048:	03000793          	li	a5,48
   1a04c:	18f105a3          	sb	a5,395(sp)
   1a050:	18b10c93          	addi	s9,sp,395
   1a054:	b769                	j	19fde <_svfprintf_r+0x2fa>
   1a056:	419404bb          	subw	s1,s0,s9
   1a05a:	d2049de3          	bnez	s1,19d94 <_svfprintf_r+0xb0>
   1a05e:	00044783          	lbu	a5,0(s0)
   1a062:	b385                	j	19dc2 <_svfprintf_r+0xde>
   1a064:	0a10                	addi	a2,sp,272
   1a066:	85d6                	mv	a1,s5
   1a068:	8552                	mv	a0,s4
   1a06a:	4c5010ef          	jal	ra,1bd2e <__ssprint_r>
   1a06e:	ec051ee3          	bnez	a0,19f4a <_svfprintf_r+0x266>
   1a072:	835e                	mv	t1,s7
   1a074:	b391                	j	19db8 <_svfprintf_r+0xd4>
   1a076:	0084f793          	andi	a5,s1,8
   1a07a:	36079be3          	bnez	a5,1abf0 <_svfprintf_r+0xf0c>
   1a07e:	67e2                	ld	a5,24(sp)
   1a080:	e81a                	sd	t1,16(sp)
   1a082:	e476                	sd	t4,8(sp)
   1a084:	2388                	fld	fa0,0(a5)
   1a086:	00878693          	addi	a3,a5,8
   1a08a:	ec36                	sd	a3,24(sp)
   1a08c:	43d030ef          	jal	ra,1dcc8 <__extenddftf2>
   1a090:	6342                	ld	t1,16(sp)
   1a092:	6ea2                	ld	t4,8(sp)
   1a094:	e22a                	sd	a0,256(sp)
   1a096:	e62e                	sd	a1,264(sp)
   1a098:	0208                	addi	a0,sp,256
   1a09a:	e81a                	sd	t1,16(sp)
   1a09c:	e476                	sd	t4,8(sp)
   1a09e:	fe3fd0ef          	jal	ra,18080 <_ldcheck>
   1a0a2:	d5aa                	sw	a0,232(sp)
   1a0a4:	4789                	li	a5,2
   1a0a6:	6ea2                	ld	t4,8(sp)
   1a0a8:	6342                	ld	t1,16(sp)
   1a0aa:	76f503e3          	beq	a0,a5,1b010 <_svfprintf_r+0x132c>
   1a0ae:	4785                	li	a5,1
   1a0b0:	00f51463          	bne	a0,a5,1a0b8 <_svfprintf_r+0x3d4>
   1a0b4:	0b40106f          	j	1b168 <_svfprintf_r+0x1484>
   1a0b8:	06100793          	li	a5,97
   1a0bc:	00fd9463          	bne	s11,a5,1a0c4 <_svfprintf_r+0x3e0>
   1a0c0:	5c40106f          	j	1b684 <_svfprintf_r+0x19a0>
   1a0c4:	04100793          	li	a5,65
   1a0c8:	00fd9463          	bne	s11,a5,1a0d0 <_svfprintf_r+0x3ec>
   1a0cc:	38c0106f          	j	1b458 <_svfprintf_r+0x1774>
   1a0d0:	fdfdf713          	andi	a4,s11,-33
   1a0d4:	57fd                	li	a5,-1
   1a0d6:	f0ba                	sd	a4,96(sp)
   1a0d8:	00fe9463          	bne	t4,a5,1a0e0 <_svfprintf_r+0x3fc>
   1a0dc:	1940106f          	j	1b270 <_svfprintf_r+0x158c>
   1a0e0:	04700793          	li	a5,71
   1a0e4:	00f71463          	bne	a4,a5,1a0ec <_svfprintf_r+0x408>
   1a0e8:	5f80106f          	j	1b6e0 <_svfprintf_r+0x19fc>
   1a0ec:	69b2                	ld	s3,264(sp)
   1a0ee:	1004e793          	ori	a5,s1,256
   1a0f2:	ed26                	sd	s1,152(sp)
   1a0f4:	6c12                	ld	s8,256(sp)
   1a0f6:	2781                	sext.w	a5,a5
   1a0f8:	0009d463          	bgez	s3,1a100 <_svfprintf_r+0x41c>
   1a0fc:	6520106f          	j	1b74e <_svfprintf_r+0x1a6a>
   1a100:	e582                	sd	zero,200(sp)
   1a102:	84be                	mv	s1,a5
   1a104:	e802                	sd	zero,16(sp)
   1a106:	2701                	sext.w	a4,a4
   1a108:	04600793          	li	a5,70
   1a10c:	00f71463          	bne	a4,a5,1a114 <_svfprintf_r+0x430>
   1a110:	2580106f          	j	1b368 <_svfprintf_r+0x1684>
   1a114:	7706                	ld	a4,96(sp)
   1a116:	04500793          	li	a5,69
   1a11a:	00f70463          	beq	a4,a5,1a122 <_svfprintf_r+0x43e>
   1a11e:	20a0106f          	j	1b328 <_svfprintf_r+0x1644>
   1a122:	001e871b          	addiw	a4,t4,1
   1a126:	0f810893          	addi	a7,sp,248
   1a12a:	0ec10813          	addi	a6,sp,236
   1a12e:	11bc                	addi	a5,sp,232
   1a130:	4689                	li	a3,2
   1a132:	85e2                	mv	a1,s8
   1a134:	864e                	mv	a2,s3
   1a136:	8552                	mv	a0,s4
   1a138:	f81a                	sd	t1,48(sp)
   1a13a:	f076                	sd	t4,32(sp)
   1a13c:	e43a                	sd	a4,8(sp)
   1a13e:	8cafd0ef          	jal	ra,17208 <_ldtoa_r>
   1a142:	6722                	ld	a4,8(sp)
   1a144:	7e82                	ld	t4,32(sp)
   1a146:	7342                	ld	t1,48(sp)
   1a148:	8caa                	mv	s9,a0
   1a14a:	00e508b3          	add	a7,a0,a4
   1a14e:	4601                	li	a2,0
   1a150:	4681                	li	a3,0
   1a152:	8562                	mv	a0,s8
   1a154:	85ce                	mv	a1,s3
   1a156:	f846                	sd	a7,48(sp)
   1a158:	f01a                	sd	t1,32(sp)
   1a15a:	e476                	sd	t4,8(sp)
   1a15c:	289020ef          	jal	ra,1cbe4 <__eqtf2>
   1a160:	78c2                	ld	a7,48(sp)
   1a162:	6ea2                	ld	t4,8(sp)
   1a164:	7302                	ld	t1,32(sp)
   1a166:	87c6                	mv	a5,a7
   1a168:	cd11                	beqz	a0,1a184 <_svfprintf_r+0x4a0>
   1a16a:	77ee                	ld	a5,248(sp)
   1a16c:	0117fc63          	bgeu	a5,a7,1a184 <_svfprintf_r+0x4a0>
   1a170:	03000693          	li	a3,48
   1a174:	00178713          	addi	a4,a5,1
   1a178:	fdba                	sd	a4,248(sp)
   1a17a:	00d78023          	sb	a3,0(a5)
   1a17e:	77ee                	ld	a5,248(sp)
   1a180:	ff17eae3          	bltu	a5,a7,1a174 <_svfprintf_r+0x490>
   1a184:	419787bb          	subw	a5,a5,s9
   1a188:	f03e                	sd	a5,32(sp)
   1a18a:	572e                	lw	a4,232(sp)
   1a18c:	04700793          	li	a5,71
   1a190:	ecba                	sd	a4,88(sp)
   1a192:	7706                	ld	a4,96(sp)
   1a194:	00f71463          	bne	a4,a5,1a19c <_svfprintf_r+0x4b8>
   1a198:	0ec0106f          	j	1b284 <_svfprintf_r+0x15a0>
   1a19c:	7706                	ld	a4,96(sp)
   1a19e:	04600793          	li	a5,70
   1a1a2:	00f71463          	bne	a4,a5,1a1aa <_svfprintf_r+0x4c6>
   1a1a6:	2980106f          	j	1b43e <_svfprintf_r+0x175a>
   1a1aa:	67e6                	ld	a5,88(sp)
   1a1ac:	7586                	ld	a1,96(sp)
   1a1ae:	04100613          	li	a2,65
   1a1b2:	37fd                	addiw	a5,a5,-1
   1a1b4:	d5be                	sw	a5,232(sp)
   1a1b6:	0ffdf713          	zext.b	a4,s11
   1a1ba:	4681                	li	a3,0
   1a1bc:	00c59663          	bne	a1,a2,1a1c8 <_svfprintf_r+0x4e4>
   1a1c0:	273d                	addiw	a4,a4,15
   1a1c2:	0ff77713          	zext.b	a4,a4
   1a1c6:	4685                	li	a3,1
   1a1c8:	0ee10823          	sb	a4,240(sp)
   1a1cc:	02b00713          	li	a4,43
   1a1d0:	0007d763          	bgez	a5,1a1de <_svfprintf_r+0x4fa>
   1a1d4:	6766                	ld	a4,88(sp)
   1a1d6:	4785                	li	a5,1
   1a1d8:	9f99                	subw	a5,a5,a4
   1a1da:	02d00713          	li	a4,45
   1a1de:	0ee108a3          	sb	a4,241(sp)
   1a1e2:	4725                	li	a4,9
   1a1e4:	00f74463          	blt	a4,a5,1a1ec <_svfprintf_r+0x508>
   1a1e8:	53c0106f          	j	1b724 <_svfprintf_r+0x1a40>
   1a1ec:	0ff10513          	addi	a0,sp,255
   1a1f0:	85aa                	mv	a1,a0
   1a1f2:	46a9                	li	a3,10
   1a1f4:	06300e93          	li	t4,99
   1a1f8:	02d7e73b          	remw	a4,a5,a3
   1a1fc:	862e                	mv	a2,a1
   1a1fe:	88be                	mv	a7,a5
   1a200:	15fd                	addi	a1,a1,-1
   1a202:	0307071b          	addiw	a4,a4,48
   1a206:	fee60fa3          	sb	a4,-1(a2)
   1a20a:	02d7c7bb          	divw	a5,a5,a3
   1a20e:	ff1ec5e3          	blt	t4,a7,1a1f8 <_svfprintf_r+0x514>
   1a212:	0307879b          	addiw	a5,a5,48
   1a216:	0ff7f693          	zext.b	a3,a5
   1a21a:	fed58fa3          	sb	a3,-1(a1)
   1a21e:	ffe60793          	addi	a5,a2,-2
   1a222:	00a7e463          	bltu	a5,a0,1a22a <_svfprintf_r+0x546>
   1a226:	6880106f          	j	1b8ae <_svfprintf_r+0x1bca>
   1a22a:	0f210713          	addi	a4,sp,242
   1a22e:	a019                	j	1a234 <_svfprintf_r+0x550>
   1a230:	0007c683          	lbu	a3,0(a5)
   1a234:	00d70023          	sb	a3,0(a4)
   1a238:	0785                	addi	a5,a5,1
   1a23a:	0705                	addi	a4,a4,1
   1a23c:	fea79ae3          	bne	a5,a0,1a230 <_svfprintf_r+0x54c>
   1a240:	10110793          	addi	a5,sp,257
   1a244:	0f210713          	addi	a4,sp,242
   1a248:	8f91                	sub	a5,a5,a2
   1a24a:	97ba                	add	a5,a5,a4
   1a24c:	1998                	addi	a4,sp,240
   1a24e:	9f99                	subw	a5,a5,a4
   1a250:	e13e                	sd	a5,128(sp)
   1a252:	678a                	ld	a5,128(sp)
   1a254:	7682                	ld	a3,32(sp)
   1a256:	4705                	li	a4,1
   1a258:	00f68c3b          	addw	s8,a3,a5
   1a25c:	87e2                	mv	a5,s8
   1a25e:	00d74463          	blt	a4,a3,1a266 <_svfprintf_r+0x582>
   1a262:	5e20106f          	j	1b844 <_svfprintf_r+0x1b60>
   1a266:	7746                	ld	a4,112(sp)
   1a268:	00e78c3b          	addw	s8,a5,a4
   1a26c:	67ea                	ld	a5,152(sp)
   1a26e:	fffc4993          	not	s3,s8
   1a272:	43f9d993          	srai	s3,s3,0x3f
   1a276:	bff7f493          	andi	s1,a5,-1025
   1a27a:	2481                	sext.w	s1,s1
   1a27c:	013c79b3          	and	s3,s8,s3
   1a280:	1004e493          	ori	s1,s1,256
   1a284:	2981                	sext.w	s3,s3
   1a286:	e882                	sd	zero,80(sp)
   1a288:	f082                	sd	zero,96(sp)
   1a28a:	ec82                	sd	zero,88(sp)
   1a28c:	67ae                	ld	a5,200(sp)
   1a28e:	e399                	bnez	a5,1a294 <_svfprintf_r+0x5b0>
   1a290:	04a0106f          	j	1b2da <_svfprintf_r+0x15f6>
   1a294:	02d00793          	li	a5,45
   1a298:	0cf10fa3          	sb	a5,223(sp)
   1a29c:	4e81                	li	t4,0
   1a29e:	2985                	addiw	s3,s3,1
   1a2a0:	be65                	j	19e58 <_svfprintf_r+0x174>
   1a2a2:	0a10                	addi	a2,sp,272
   1a2a4:	85d6                	mv	a1,s5
   1a2a6:	8552                	mv	a0,s4
   1a2a8:	fc76                	sd	t4,56(sp)
   1a2aa:	f87e                	sd	t6,48(sp)
   1a2ac:	e416                	sd	t0,8(sp)
   1a2ae:	281010ef          	jal	ra,1bd2e <__ssprint_r>
   1a2b2:	5c051263          	bnez	a0,1a876 <_svfprintf_r+0xb92>
   1a2b6:	7792                	ld	a5,288(sp)
   1a2b8:	7ee2                	ld	t4,56(sp)
   1a2ba:	7fc2                	ld	t6,48(sp)
   1a2bc:	62a2                	ld	t0,8(sp)
   1a2be:	835e                	mv	t1,s7
   1a2c0:	b6d5                	j	19ea4 <_svfprintf_r+0x1c0>
   1a2c2:	11812603          	lw	a2,280(sp)
   1a2c6:	00178d93          	addi	s11,a5,1
   1a2ca:	7782                	ld	a5,32(sp)
   1a2cc:	0016071b          	addiw	a4,a2,1
   1a2d0:	4585                	li	a1,1
   1a2d2:	01933023          	sd	s9,0(t1)
   1a2d6:	86ba                	mv	a3,a4
   1a2d8:	01030c13          	addi	s8,t1,16
   1a2dc:	02f5d7e3          	bge	a1,a5,1ab0a <_svfprintf_r+0xe26>
   1a2e0:	4605                	li	a2,1
   1a2e2:	10d12c23          	sw	a3,280(sp)
   1a2e6:	00c33423          	sd	a2,8(t1)
   1a2ea:	f26e                	sd	s11,288(sp)
   1a2ec:	469d                	li	a3,7
   1a2ee:	0ae6c6e3          	blt	a3,a4,1ab9a <_svfprintf_r+0xeb6>
   1a2f2:	77c6                	ld	a5,112(sp)
   1a2f4:	0017069b          	addiw	a3,a4,1
   1a2f8:	7766                	ld	a4,120(sp)
   1a2fa:	9dbe                	add	s11,s11,a5
   1a2fc:	00fc3423          	sd	a5,8(s8)
   1a300:	00ec3023          	sd	a4,0(s8)
   1a304:	10d12c23          	sw	a3,280(sp)
   1a308:	0006871b          	sext.w	a4,a3
   1a30c:	f26e                	sd	s11,288(sp)
   1a30e:	469d                	li	a3,7
   1a310:	0c41                	addi	s8,s8,16
   1a312:	0ae6c1e3          	blt	a3,a4,1abb4 <_svfprintf_r+0xed0>
   1a316:	6512                	ld	a0,256(sp)
   1a318:	65b2                	ld	a1,264(sp)
   1a31a:	0017089b          	addiw	a7,a4,1
   1a31e:	4601                	li	a2,0
   1a320:	4681                	li	a3,0
   1a322:	e446                	sd	a7,8(sp)
   1a324:	f83a                	sd	a4,48(sp)
   1a326:	0bf020ef          	jal	ra,1cbe4 <__eqtf2>
   1a32a:	68a2                	ld	a7,8(sp)
   1a32c:	7782                	ld	a5,32(sp)
   1a32e:	010c0313          	addi	t1,s8,16
   1a332:	0008861b          	sext.w	a2,a7
   1a336:	fff7869b          	addiw	a3,a5,-1
   1a33a:	7e050963          	beqz	a0,1ab2c <_svfprintf_r+0xe48>
   1a33e:	9db6                	add	s11,s11,a3
   1a340:	001c8813          	addi	a6,s9,1
   1a344:	00dc3423          	sd	a3,8(s8)
   1a348:	010c3023          	sd	a6,0(s8)
   1a34c:	f26e                	sd	s11,288(sp)
   1a34e:	11112c23          	sw	a7,280(sp)
   1a352:	469d                	li	a3,7
   1a354:	38c6c5e3          	blt	a3,a2,1aede <_svfprintf_r+0x11fa>
   1a358:	7742                	ld	a4,48(sp)
   1a35a:	020c0693          	addi	a3,s8,32
   1a35e:	8c1a                	mv	s8,t1
   1a360:	0027061b          	addiw	a2,a4,2
   1a364:	8336                	mv	t1,a3
   1a366:	668a                	ld	a3,128(sp)
   1a368:	1998                	addi	a4,sp,240
   1a36a:	00ec3023          	sd	a4,0(s8)
   1a36e:	01b687b3          	add	a5,a3,s11
   1a372:	00dc3423          	sd	a3,8(s8)
   1a376:	f23e                	sd	a5,288(sp)
   1a378:	10c12c23          	sw	a2,280(sp)
   1a37c:	471d                	li	a4,7
   1a37e:	b8c755e3          	bge	a4,a2,19f08 <_svfprintf_r+0x224>
   1a382:	0a10                	addi	a2,sp,272
   1a384:	85d6                	mv	a1,s5
   1a386:	8552                	mv	a0,s4
   1a388:	1a7010ef          	jal	ra,1bd2e <__ssprint_r>
   1a38c:	4e051563          	bnez	a0,1a876 <_svfprintf_r+0xb92>
   1a390:	7792                	ld	a5,288(sp)
   1a392:	835e                	mv	t1,s7
   1a394:	be95                	j	19f08 <_svfprintf_r+0x224>
   1a396:	0104f793          	andi	a5,s1,16
   1a39a:	060796e3          	bnez	a5,1ac06 <_svfprintf_r+0xf22>
   1a39e:	66e2                	ld	a3,24(sp)
   1a3a0:	0404f793          	andi	a5,s1,64
   1a3a4:	0006a983          	lw	s3,0(a3)
   1a3a8:	580780e3          	beqz	a5,1b128 <_svfprintf_r+0x1444>
   1a3ac:	19c2                	slli	s3,s3,0x30
   1a3ae:	0309d993          	srli	s3,s3,0x30
   1a3b2:	b195                	j	1a016 <_svfprintf_r+0x332>
   1a3b4:	0104f793          	andi	a5,s1,16
   1a3b8:	020790e3          	bnez	a5,1abd8 <_svfprintf_r+0xef4>
   1a3bc:	0404f793          	andi	a5,s1,64
   1a3c0:	580785e3          	beqz	a5,1b14a <_svfprintf_r+0x1466>
   1a3c4:	67e2                	ld	a5,24(sp)
   1a3c6:	00079983          	lh	s3,0(a5)
   1a3ca:	87ce                	mv	a5,s3
   1a3cc:	be07d8e3          	bgez	a5,19fbc <_svfprintf_r+0x2d8>
   1a3d0:	02d00793          	li	a5,45
   1a3d4:	0cf10fa3          	sb	a5,223(sp)
   1a3d8:	ec3a                	sd	a4,24(sp)
   1a3da:	577d                	li	a4,-1
   1a3dc:	413009b3          	neg	s3,s3
   1a3e0:	8826                	mv	a6,s1
   1a3e2:	4785                	li	a5,1
   1a3e4:	c4ee94e3          	bne	t4,a4,1a02c <_svfprintf_r+0x348>
   1a3e8:	4705                	li	a4,1
   1a3ea:	4ae78363          	beq	a5,a4,1a890 <_svfprintf_r+0xbac>
   1a3ee:	4709                	li	a4,2
   1a3f0:	34e78363          	beq	a5,a4,1a736 <_svfprintf_r+0xa52>
   1a3f4:	18c10c13          	addi	s8,sp,396
   1a3f8:	8ce2                	mv	s9,s8
   1a3fa:	0079f793          	andi	a5,s3,7
   1a3fe:	03078793          	addi	a5,a5,48
   1a402:	fefc8fa3          	sb	a5,-1(s9)
   1a406:	0039d993          	srli	s3,s3,0x3
   1a40a:	8766                	mv	a4,s9
   1a40c:	1cfd                	addi	s9,s9,-1
   1a40e:	fe0996e3          	bnez	s3,1a3fa <_svfprintf_r+0x716>
   1a412:	00187693          	andi	a3,a6,1
   1a416:	34068063          	beqz	a3,1a756 <_svfprintf_r+0xa72>
   1a41a:	03000693          	li	a3,48
   1a41e:	32d78c63          	beq	a5,a3,1a756 <_svfprintf_r+0xa72>
   1a422:	1779                	addi	a4,a4,-2
   1a424:	fedc8fa3          	sb	a3,-1(s9)
   1a428:	40ec0c3b          	subw	s8,s8,a4
   1a42c:	84c2                	mv	s1,a6
   1a42e:	8cba                	mv	s9,a4
   1a430:	b67d                	j	19fde <_svfprintf_r+0x2fa>
   1a432:	6762                	ld	a4,24(sp)
   1a434:	0c010fa3          	sb	zero,223(sp)
   1a438:	4985                	li	s3,1
   1a43a:	431c                	lw	a5,0(a4)
   1a43c:	0721                	addi	a4,a4,8
   1a43e:	ec3a                	sd	a4,24(sp)
   1a440:	12f10423          	sb	a5,296(sp)
   1a444:	4c05                	li	s8,1
   1a446:	12810c93          	addi	s9,sp,296
   1a44a:	b411                	j	19e4e <_svfprintf_r+0x16a>
   1a44c:	67e2                	ld	a5,24(sp)
   1a44e:	0c010fa3          	sb	zero,223(sp)
   1a452:	0007bc83          	ld	s9,0(a5)
   1a456:	00878693          	addi	a3,a5,8
   1a45a:	100c81e3          	beqz	s9,1ad5c <_svfprintf_r+0x1078>
   1a45e:	57fd                	li	a5,-1
   1a460:	46fe82e3          	beq	t4,a5,1b0c4 <_svfprintf_r+0x13e0>
   1a464:	8676                	mv	a2,t4
   1a466:	4581                	li	a1,0
   1a468:	8566                	mv	a0,s9
   1a46a:	f836                	sd	a3,48(sp)
   1a46c:	ec1a                	sd	t1,24(sp)
   1a46e:	e476                	sd	t4,8(sp)
   1a470:	e55fd0ef          	jal	ra,182c4 <memchr>
   1a474:	e82a                	sd	a0,16(sp)
   1a476:	6ea2                	ld	t4,8(sp)
   1a478:	6362                	ld	t1,24(sp)
   1a47a:	76c2                	ld	a3,48(sp)
   1a47c:	e119                	bnez	a0,1a482 <_svfprintf_r+0x79e>
   1a47e:	75b0006f          	j	1b3d8 <_svfprintf_r+0x16f4>
   1a482:	67c2                	ld	a5,16(sp)
   1a484:	ec36                	sd	a3,24(sp)
   1a486:	e802                	sd	zero,16(sp)
   1a488:	41978c3b          	subw	s8,a5,s9
   1a48c:	fffc4993          	not	s3,s8
   1a490:	0df14783          	lbu	a5,223(sp)
   1a494:	43f9d993          	srai	s3,s3,0x3f
   1a498:	013c79b3          	and	s3,s8,s3
   1a49c:	e882                	sd	zero,80(sp)
   1a49e:	f082                	sd	zero,96(sp)
   1a4a0:	ec82                	sd	zero,88(sp)
   1a4a2:	2981                	sext.w	s3,s3
   1a4a4:	4e81                	li	t4,0
   1a4a6:	b4079ae3          	bnez	a5,19ffa <_svfprintf_r+0x316>
   1a4aa:	b27d                	j	19e58 <_svfprintf_r+0x174>
   1a4ac:	00044f03          	lbu	t5,0(s0)
   1a4b0:	0044e493          	ori	s1,s1,4
   1a4b4:	2481                	sext.w	s1,s1
   1a4b6:	b21d                	j	19ddc <_svfprintf_r+0xf8>
   1a4b8:	0084e493          	ori	s1,s1,8
   1a4bc:	00044f03          	lbu	t5,0(s0)
   1a4c0:	2481                	sext.w	s1,s1
   1a4c2:	ba29                	j	19ddc <_svfprintf_r+0xf8>
   1a4c4:	02b00793          	li	a5,43
   1a4c8:	00044f03          	lbu	t5,0(s0)
   1a4cc:	0cf10fa3          	sb	a5,223(sp)
   1a4d0:	b231                	j	19ddc <_svfprintf_r+0xf8>
   1a4d2:	0804e493          	ori	s1,s1,128
   1a4d6:	00044f03          	lbu	t5,0(s0)
   1a4da:	2481                	sext.w	s1,s1
   1a4dc:	b201                	j	19ddc <_svfprintf_r+0xf8>
   1a4de:	00044703          	lbu	a4,0(s0)
   1a4e2:	00140793          	addi	a5,s0,1
   1a4e6:	00070d9b          	sext.w	s11,a4
   1a4ea:	00ec1463          	bne	s8,a4,1a4f2 <_svfprintf_r+0x80e>
   1a4ee:	3960106f          	j	1b884 <_svfprintf_r+0x1ba0>
   1a4f2:	fd07071b          	addiw	a4,a4,-48
   1a4f6:	843e                	mv	s0,a5
   1a4f8:	4e81                	li	t4,0
   1a4fa:	8ee9e6e3          	bltu	s3,a4,19de6 <_svfprintf_r+0x102>
   1a4fe:	00044d83          	lbu	s11,0(s0)
   1a502:	002e979b          	slliw	a5,t4,0x2
   1a506:	01d78ebb          	addw	t4,a5,t4
   1a50a:	001e9e9b          	slliw	t4,t4,0x1
   1a50e:	00ee8ebb          	addw	t4,t4,a4
   1a512:	fd0d871b          	addiw	a4,s11,-48
   1a516:	0405                	addi	s0,s0,1
   1a518:	fee9f3e3          	bgeu	s3,a4,1a4fe <_svfprintf_r+0x81a>
   1a51c:	b0e9                	j	19de6 <_svfprintf_r+0x102>
   1a51e:	67e2                	ld	a5,24(sp)
   1a520:	00044f03          	lbu	t5,0(s0)
   1a524:	0007ab03          	lw	s6,0(a5)
   1a528:	07a1                	addi	a5,a5,8
   1a52a:	ec3e                	sd	a5,24(sp)
   1a52c:	8a0b58e3          	bgez	s6,19ddc <_svfprintf_r+0xf8>
   1a530:	41600b3b          	negw	s6,s6
   1a534:	bfb5                	j	1a4b0 <_svfprintf_r+0x7cc>
   1a536:	8552                	mv	a0,s4
   1a538:	e81a                	sd	t1,16(sp)
   1a53a:	e476                	sd	t4,8(sp)
   1a53c:	bedfd0ef          	jal	ra,18128 <_localeconv_r>
   1a540:	651c                	ld	a5,8(a0)
   1a542:	853e                	mv	a0,a5
   1a544:	e93e                	sd	a5,144(sp)
   1a546:	e90ff0ef          	jal	ra,19bd6 <strlen>
   1a54a:	87aa                	mv	a5,a0
   1a54c:	8552                	mv	a0,s4
   1a54e:	8dbe                	mv	s11,a5
   1a550:	e53e                	sd	a5,136(sp)
   1a552:	bd7fd0ef          	jal	ra,18128 <_localeconv_r>
   1a556:	6918                	ld	a4,16(a0)
   1a558:	6ea2                	ld	t4,8(sp)
   1a55a:	6342                	ld	t1,16(sp)
   1a55c:	f4ba                	sd	a4,104(sp)
   1a55e:	00044f03          	lbu	t5,0(s0)
   1a562:	860d8de3          	beqz	s11,19ddc <_svfprintf_r+0xf8>
   1a566:	86070be3          	beqz	a4,19ddc <_svfprintf_r+0xf8>
   1a56a:	00074783          	lbu	a5,0(a4)
   1a56e:	860787e3          	beqz	a5,19ddc <_svfprintf_r+0xf8>
   1a572:	4004e493          	ori	s1,s1,1024
   1a576:	2481                	sext.w	s1,s1
   1a578:	b095                	j	19ddc <_svfprintf_r+0xf8>
   1a57a:	0014e493          	ori	s1,s1,1
   1a57e:	00044f03          	lbu	t5,0(s0)
   1a582:	2481                	sext.w	s1,s1
   1a584:	b8a1                	j	19ddc <_svfprintf_r+0xf8>
   1a586:	0df14783          	lbu	a5,223(sp)
   1a58a:	00044f03          	lbu	t5,0(s0)
   1a58e:	840797e3          	bnez	a5,19ddc <_svfprintf_r+0xf8>
   1a592:	02000793          	li	a5,32
   1a596:	0cf10fa3          	sb	a5,223(sp)
   1a59a:	b089                	j	19ddc <_svfprintf_r+0xf8>
   1a59c:	0104e493          	ori	s1,s1,16
   1a5a0:	0004881b          	sext.w	a6,s1
   1a5a4:	66e2                	ld	a3,24(sp)
   1a5a6:	02087793          	andi	a5,a6,32
   1a5aa:	00868713          	addi	a4,a3,8
   1a5ae:	5c078563          	beqz	a5,1ab78 <_svfprintf_r+0xe94>
   1a5b2:	0006b983          	ld	s3,0(a3)
   1a5b6:	4785                	li	a5,1
   1a5b8:	ec3a                	sd	a4,24(sp)
   1a5ba:	b4a5                	j	1a022 <_svfprintf_r+0x33e>
   1a5bc:	0204e493          	ori	s1,s1,32
   1a5c0:	00044f03          	lbu	t5,0(s0)
   1a5c4:	2481                	sext.w	s1,s1
   1a5c6:	817ff06f          	j	19ddc <_svfprintf_r+0xf8>
   1a5ca:	6762                	ld	a4,24(sp)
   1a5cc:	77e1                	lui	a5,0xffff8
   1a5ce:	8307c793          	xori	a5,a5,-2000
   1a5d2:	0ef11023          	sh	a5,224(sp)
   1a5d6:	00870793          	addi	a5,a4,8
   1a5da:	0024e493          	ori	s1,s1,2
   1a5de:	ec3e                	sd	a5,24(sp)
   1a5e0:	00004797          	auipc	a5,0x4
   1a5e4:	d8078793          	addi	a5,a5,-640 # 1e360 <__func__.4057+0x2c0>
   1a5e8:	f43e                	sd	a5,40(sp)
   1a5ea:	00073983          	ld	s3,0(a4)
   1a5ee:	0004881b          	sext.w	a6,s1
   1a5f2:	4789                	li	a5,2
   1a5f4:	07800d93          	li	s11,120
   1a5f8:	b42d                	j	1a022 <_svfprintf_r+0x33e>
   1a5fa:	66e2                	ld	a3,24(sp)
   1a5fc:	0204f793          	andi	a5,s1,32
   1a600:	6298                	ld	a4,0(a3)
   1a602:	06a1                	addi	a3,a3,8
   1a604:	ec36                	sd	a3,24(sp)
   1a606:	e395                	bnez	a5,1a62a <_svfprintf_r+0x946>
   1a608:	0104f793          	andi	a5,s1,16
   1a60c:	ef99                	bnez	a5,1a62a <_svfprintf_r+0x946>
   1a60e:	0404f793          	andi	a5,s1,64
   1a612:	3e0796e3          	bnez	a5,1b1fe <_svfprintf_r+0x151a>
   1a616:	2004f493          	andi	s1,s1,512
   1a61a:	6782                	ld	a5,0(sp)
   1a61c:	e099                	bnez	s1,1a622 <_svfprintf_r+0x93e>
   1a61e:	0b20106f          	j	1b6d0 <_svfprintf_r+0x19ec>
   1a622:	00f70023          	sb	a5,0(a4)
   1a626:	8ca2                	mv	s9,s0
   1a628:	ba09                	j	19f3a <_svfprintf_r+0x256>
   1a62a:	6782                	ld	a5,0(sp)
   1a62c:	8ca2                	mv	s9,s0
   1a62e:	e31c                	sd	a5,0(a4)
   1a630:	b229                	j	19f3a <_svfprintf_r+0x256>
   1a632:	00044f03          	lbu	t5,0(s0)
   1a636:	06c00793          	li	a5,108
   1a63a:	6cff0863          	beq	t5,a5,1ad0a <_svfprintf_r+0x1026>
   1a63e:	0104e493          	ori	s1,s1,16
   1a642:	2481                	sext.w	s1,s1
   1a644:	f98ff06f          	j	19ddc <_svfprintf_r+0xf8>
   1a648:	00044f03          	lbu	t5,0(s0)
   1a64c:	06800793          	li	a5,104
   1a650:	6aff0563          	beq	t5,a5,1acfa <_svfprintf_r+0x1016>
   1a654:	0404e493          	ori	s1,s1,64
   1a658:	2481                	sext.w	s1,s1
   1a65a:	f82ff06f          	j	19ddc <_svfprintf_r+0xf8>
   1a65e:	06500713          	li	a4,101
   1a662:	c7b750e3          	bge	a4,s11,1a2c2 <_svfprintf_r+0x5de>
   1a666:	6512                	ld	a0,256(sp)
   1a668:	65b2                	ld	a1,264(sp)
   1a66a:	4601                	li	a2,0
   1a66c:	4681                	li	a3,0
   1a66e:	f83e                	sd	a5,48(sp)
   1a670:	e41a                	sd	t1,8(sp)
   1a672:	572020ef          	jal	ra,1cbe4 <__eqtf2>
   1a676:	6322                	ld	t1,8(sp)
   1a678:	77c2                	ld	a5,48(sp)
   1a67a:	36051663          	bnez	a0,1a9e6 <_svfprintf_r+0xd02>
   1a67e:	11812703          	lw	a4,280(sp)
   1a682:	00004697          	auipc	a3,0x4
   1a686:	eae68693          	addi	a3,a3,-338 # 1e530 <zeroes.4497+0x30>
   1a68a:	00d33023          	sd	a3,0(t1)
   1a68e:	2705                	addiw	a4,a4,1
   1a690:	4685                	li	a3,1
   1a692:	0785                	addi	a5,a5,1
   1a694:	00d33423          	sd	a3,8(t1)
   1a698:	10e12c23          	sw	a4,280(sp)
   1a69c:	0007069b          	sext.w	a3,a4
   1a6a0:	f23e                	sd	a5,288(sp)
   1a6a2:	471d                	li	a4,7
   1a6a4:	0341                	addi	t1,t1,16
   1a6a6:	12d741e3          	blt	a4,a3,1afc8 <_svfprintf_r+0x12e4>
   1a6aa:	572e                	lw	a4,232(sp)
   1a6ac:	7682                	ld	a3,32(sp)
   1a6ae:	52d75063          	bge	a4,a3,1abce <_svfprintf_r+0xeea>
   1a6b2:	7766                	ld	a4,120(sp)
   1a6b4:	76c6                	ld	a3,112(sp)
   1a6b6:	0341                	addi	t1,t1,16
   1a6b8:	fee33823          	sd	a4,-16(t1)
   1a6bc:	11812703          	lw	a4,280(sp)
   1a6c0:	97b6                	add	a5,a5,a3
   1a6c2:	fed33c23          	sd	a3,-8(t1)
   1a6c6:	2705                	addiw	a4,a4,1
   1a6c8:	0007069b          	sext.w	a3,a4
   1a6cc:	10e12c23          	sw	a4,280(sp)
   1a6d0:	f23e                	sd	a5,288(sp)
   1a6d2:	471d                	li	a4,7
   1a6d4:	64d74963          	blt	a4,a3,1ad26 <_svfprintf_r+0x1042>
   1a6d8:	7702                	ld	a4,32(sp)
   1a6da:	fff70c1b          	addiw	s8,a4,-1
   1a6de:	838055e3          	blez	s8,19f08 <_svfprintf_r+0x224>
   1a6e2:	11812703          	lw	a4,280(sp)
   1a6e6:	0f8d5ce3          	bge	s10,s8,1afde <_svfprintf_r+0x12fa>
   1a6ea:	4c9d                	li	s9,7
   1a6ec:	a021                	j	1a6f4 <_svfprintf_r+0xa10>
   1a6ee:	3c41                	addiw	s8,s8,-16
   1a6f0:	0f8d57e3          	bge	s10,s8,1afde <_svfprintf_r+0x12fa>
   1a6f4:	2705                	addiw	a4,a4,1
   1a6f6:	07c1                	addi	a5,a5,16
   1a6f8:	01233023          	sd	s2,0(t1)
   1a6fc:	01a33423          	sd	s10,8(t1)
   1a700:	f23e                	sd	a5,288(sp)
   1a702:	10e12c23          	sw	a4,280(sp)
   1a706:	0341                	addi	t1,t1,16
   1a708:	feecd3e3          	bge	s9,a4,1a6ee <_svfprintf_r+0xa0a>
   1a70c:	0a10                	addi	a2,sp,272
   1a70e:	85d6                	mv	a1,s5
   1a710:	8552                	mv	a0,s4
   1a712:	61c010ef          	jal	ra,1bd2e <__ssprint_r>
   1a716:	16051063          	bnez	a0,1a876 <_svfprintf_r+0xb92>
   1a71a:	7792                	ld	a5,288(sp)
   1a71c:	11812703          	lw	a4,280(sp)
   1a720:	835e                	mv	t1,s7
   1a722:	b7f1                	j	1a6ee <_svfprintf_r+0xa0a>
   1a724:	4705                	li	a4,1
   1a726:	00e79463          	bne	a5,a4,1a72e <_svfprintf_r+0xa4a>
   1a72a:	7550006f          	j	1b67e <_svfprintf_r+0x199a>
   1a72e:	4709                	li	a4,2
   1a730:	8826                	mv	a6,s1
   1a732:	cce791e3          	bne	a5,a4,1a3f4 <_svfprintf_r+0x710>
   1a736:	18c10c13          	addi	s8,sp,396
   1a73a:	8ce2                	mv	s9,s8
   1a73c:	7722                	ld	a4,40(sp)
   1a73e:	00f9f793          	andi	a5,s3,15
   1a742:	1cfd                	addi	s9,s9,-1
   1a744:	97ba                	add	a5,a5,a4
   1a746:	0007c783          	lbu	a5,0(a5)
   1a74a:	0049d993          	srli	s3,s3,0x4
   1a74e:	00fc8023          	sb	a5,0(s9)
   1a752:	fe0995e3          	bnez	s3,1a73c <_svfprintf_r+0xa58>
   1a756:	419c0c3b          	subw	s8,s8,s9
   1a75a:	84c2                	mv	s1,a6
   1a75c:	b049                	j	19fde <_svfprintf_r+0x2fa>
   1a75e:	413b06bb          	subw	a3,s6,s3
   1a762:	f6d05a63          	blez	a3,19ed6 <_svfprintf_r+0x1f2>
   1a766:	11812703          	lw	a4,280(sp)
   1a76a:	04dd5563          	bge	s10,a3,1a7b4 <_svfprintf_r+0xad0>
   1a76e:	489d                	li	a7,7
   1a770:	a021                	j	1a778 <_svfprintf_r+0xa94>
   1a772:	36c1                	addiw	a3,a3,-16
   1a774:	04dd5063          	bge	s10,a3,1a7b4 <_svfprintf_r+0xad0>
   1a778:	2705                	addiw	a4,a4,1
   1a77a:	07c1                	addi	a5,a5,16
   1a77c:	01233023          	sd	s2,0(t1)
   1a780:	01a33423          	sd	s10,8(t1)
   1a784:	f23e                	sd	a5,288(sp)
   1a786:	10e12c23          	sw	a4,280(sp)
   1a78a:	0341                	addi	t1,t1,16
   1a78c:	fee8d3e3          	bge	a7,a4,1a772 <_svfprintf_r+0xa8e>
   1a790:	0a10                	addi	a2,sp,272
   1a792:	85d6                	mv	a1,s5
   1a794:	8552                	mv	a0,s4
   1a796:	f836                	sd	a3,48(sp)
   1a798:	e476                	sd	t4,8(sp)
   1a79a:	594010ef          	jal	ra,1bd2e <__ssprint_r>
   1a79e:	ed61                	bnez	a0,1a876 <_svfprintf_r+0xb92>
   1a7a0:	76c2                	ld	a3,48(sp)
   1a7a2:	7792                	ld	a5,288(sp)
   1a7a4:	11812703          	lw	a4,280(sp)
   1a7a8:	36c1                	addiw	a3,a3,-16
   1a7aa:	6ea2                	ld	t4,8(sp)
   1a7ac:	835e                	mv	t1,s7
   1a7ae:	489d                	li	a7,7
   1a7b0:	fcdd44e3          	blt	s10,a3,1a778 <_svfprintf_r+0xa94>
   1a7b4:	2705                	addiw	a4,a4,1
   1a7b6:	97b6                	add	a5,a5,a3
   1a7b8:	00d33423          	sd	a3,8(t1)
   1a7bc:	01233023          	sd	s2,0(t1)
   1a7c0:	0007069b          	sext.w	a3,a4
   1a7c4:	10e12c23          	sw	a4,280(sp)
   1a7c8:	f23e                	sd	a5,288(sp)
   1a7ca:	471d                	li	a4,7
   1a7cc:	0341                	addi	t1,t1,16
   1a7ce:	f0d75463          	bge	a4,a3,19ed6 <_svfprintf_r+0x1f2>
   1a7d2:	0a10                	addi	a2,sp,272
   1a7d4:	85d6                	mv	a1,s5
   1a7d6:	8552                	mv	a0,s4
   1a7d8:	e476                	sd	t4,8(sp)
   1a7da:	554010ef          	jal	ra,1bd2e <__ssprint_r>
   1a7de:	ed41                	bnez	a0,1a876 <_svfprintf_r+0xb92>
   1a7e0:	6ea2                	ld	t4,8(sp)
   1a7e2:	7792                	ld	a5,288(sp)
   1a7e4:	835e                	mv	t1,s7
   1a7e6:	418e8ebb          	subw	t4,t4,s8
   1a7ea:	efd05a63          	blez	t4,19ede <_svfprintf_r+0x1fa>
   1a7ee:	11812703          	lw	a4,280(sp)
   1a7f2:	05dd5363          	bge	s10,t4,1a838 <_svfprintf_r+0xb54>
   1a7f6:	489d                	li	a7,7
   1a7f8:	a021                	j	1a800 <_svfprintf_r+0xb1c>
   1a7fa:	3ec1                	addiw	t4,t4,-16
   1a7fc:	03dd5e63          	bge	s10,t4,1a838 <_svfprintf_r+0xb54>
   1a800:	2705                	addiw	a4,a4,1
   1a802:	07c1                	addi	a5,a5,16
   1a804:	01233023          	sd	s2,0(t1)
   1a808:	01a33423          	sd	s10,8(t1)
   1a80c:	f23e                	sd	a5,288(sp)
   1a80e:	10e12c23          	sw	a4,280(sp)
   1a812:	0341                	addi	t1,t1,16
   1a814:	fee8d3e3          	bge	a7,a4,1a7fa <_svfprintf_r+0xb16>
   1a818:	0a10                	addi	a2,sp,272
   1a81a:	85d6                	mv	a1,s5
   1a81c:	8552                	mv	a0,s4
   1a81e:	e476                	sd	t4,8(sp)
   1a820:	50e010ef          	jal	ra,1bd2e <__ssprint_r>
   1a824:	e929                	bnez	a0,1a876 <_svfprintf_r+0xb92>
   1a826:	6ea2                	ld	t4,8(sp)
   1a828:	7792                	ld	a5,288(sp)
   1a82a:	11812703          	lw	a4,280(sp)
   1a82e:	3ec1                	addiw	t4,t4,-16
   1a830:	835e                	mv	t1,s7
   1a832:	489d                	li	a7,7
   1a834:	fddd46e3          	blt	s10,t4,1a800 <_svfprintf_r+0xb1c>
   1a838:	0017069b          	addiw	a3,a4,1
   1a83c:	97f6                	add	a5,a5,t4
   1a83e:	01233023          	sd	s2,0(t1)
   1a842:	01d33423          	sd	t4,8(t1)
   1a846:	f23e                	sd	a5,288(sp)
   1a848:	10d12c23          	sw	a3,280(sp)
   1a84c:	471d                	li	a4,7
   1a84e:	0341                	addi	t1,t1,16
   1a850:	e8d75763          	bge	a4,a3,19ede <_svfprintf_r+0x1fa>
   1a854:	0a10                	addi	a2,sp,272
   1a856:	85d6                	mv	a1,s5
   1a858:	8552                	mv	a0,s4
   1a85a:	4d4010ef          	jal	ra,1bd2e <__ssprint_r>
   1a85e:	ed01                	bnez	a0,1a876 <_svfprintf_r+0xb92>
   1a860:	7792                	ld	a5,288(sp)
   1a862:	835e                	mv	t1,s7
   1a864:	e7aff06f          	j	19ede <_svfprintf_r+0x1fa>
   1a868:	0a10                	addi	a2,sp,272
   1a86a:	85d6                	mv	a1,s5
   1a86c:	8552                	mv	a0,s4
   1a86e:	4c0010ef          	jal	ra,1bd2e <__ssprint_r>
   1a872:	ea050a63          	beqz	a0,19f26 <_svfprintf_r+0x242>
   1a876:	67c2                	ld	a5,16(sp)
   1a878:	ec078963          	beqz	a5,19f4a <_svfprintf_r+0x266>
   1a87c:	65c2                	ld	a1,16(sp)
   1a87e:	8552                	mv	a0,s4
   1a880:	906fb0ef          	jal	ra,15986 <_free_r>
   1a884:	ec6ff06f          	j	19f4a <_svfprintf_r+0x266>
   1a888:	4705                	li	a4,1
   1a88a:	8826                	mv	a6,s1
   1a88c:	b6e791e3          	bne	a5,a4,1a3ee <_svfprintf_r+0x70a>
   1a890:	47a5                	li	a5,9
   1a892:	3937e463          	bltu	a5,s3,1ac1a <_svfprintf_r+0xf36>
   1a896:	0309899b          	addiw	s3,s3,48
   1a89a:	193105a3          	sb	s3,395(sp)
   1a89e:	84c2                	mv	s1,a6
   1a8a0:	4c05                	li	s8,1
   1a8a2:	18b10c93          	addi	s9,sp,395
   1a8a6:	f38ff06f          	j	19fde <_svfprintf_r+0x2fa>
   1a8aa:	11812703          	lw	a4,280(sp)
   1a8ae:	00004897          	auipc	a7,0x4
   1a8b2:	3a288893          	addi	a7,a7,930 # 1ec50 <blanks.4505>
   1a8b6:	439d                	li	t2,7
   1a8b8:	00dd4663          	blt	s10,a3,1a8c4 <_svfprintf_r+0xbe0>
   1a8bc:	a881                	j	1a90c <_svfprintf_r+0xc28>
   1a8be:	36c1                	addiw	a3,a3,-16
   1a8c0:	04dd5663          	bge	s10,a3,1a90c <_svfprintf_r+0xc28>
   1a8c4:	2705                	addiw	a4,a4,1
   1a8c6:	07c1                	addi	a5,a5,16
   1a8c8:	01133023          	sd	a7,0(t1)
   1a8cc:	01a33423          	sd	s10,8(t1)
   1a8d0:	f23e                	sd	a5,288(sp)
   1a8d2:	10e12c23          	sw	a4,280(sp)
   1a8d6:	0341                	addi	t1,t1,16
   1a8d8:	fee3d3e3          	bge	t2,a4,1a8be <_svfprintf_r+0xbda>
   1a8dc:	0a10                	addi	a2,sp,272
   1a8de:	85d6                	mv	a1,s5
   1a8e0:	8552                	mv	a0,s4
   1a8e2:	e4c6                	sd	a7,72(sp)
   1a8e4:	e0f6                	sd	t4,64(sp)
   1a8e6:	fc7e                	sd	t6,56(sp)
   1a8e8:	f816                	sd	t0,48(sp)
   1a8ea:	e436                	sd	a3,8(sp)
   1a8ec:	442010ef          	jal	ra,1bd2e <__ssprint_r>
   1a8f0:	f159                	bnez	a0,1a876 <_svfprintf_r+0xb92>
   1a8f2:	66a2                	ld	a3,8(sp)
   1a8f4:	7792                	ld	a5,288(sp)
   1a8f6:	11812703          	lw	a4,280(sp)
   1a8fa:	36c1                	addiw	a3,a3,-16
   1a8fc:	68a6                	ld	a7,72(sp)
   1a8fe:	6e86                	ld	t4,64(sp)
   1a900:	7fe2                	ld	t6,56(sp)
   1a902:	72c2                	ld	t0,48(sp)
   1a904:	835e                	mv	t1,s7
   1a906:	439d                	li	t2,7
   1a908:	fadd4ee3          	blt	s10,a3,1a8c4 <_svfprintf_r+0xbe0>
   1a90c:	2705                	addiw	a4,a4,1
   1a90e:	97b6                	add	a5,a5,a3
   1a910:	00d33423          	sd	a3,8(t1)
   1a914:	01133023          	sd	a7,0(t1)
   1a918:	0007069b          	sext.w	a3,a4
   1a91c:	10e12c23          	sw	a4,280(sp)
   1a920:	f23e                	sd	a5,288(sp)
   1a922:	471d                	li	a4,7
   1a924:	0341                	addi	t1,t1,16
   1a926:	d4d75863          	bge	a4,a3,19e76 <_svfprintf_r+0x192>
   1a92a:	0a10                	addi	a2,sp,272
   1a92c:	85d6                	mv	a1,s5
   1a92e:	8552                	mv	a0,s4
   1a930:	fc76                	sd	t4,56(sp)
   1a932:	f87e                	sd	t6,48(sp)
   1a934:	e416                	sd	t0,8(sp)
   1a936:	3f8010ef          	jal	ra,1bd2e <__ssprint_r>
   1a93a:	fd15                	bnez	a0,1a876 <_svfprintf_r+0xb92>
   1a93c:	7792                	ld	a5,288(sp)
   1a93e:	7ee2                	ld	t4,56(sp)
   1a940:	7fc2                	ld	t6,48(sp)
   1a942:	62a2                	ld	t0,8(sp)
   1a944:	835e                	mv	t1,s7
   1a946:	d30ff06f          	j	19e76 <_svfprintf_r+0x192>
   1a94a:	0a10                	addi	a2,sp,272
   1a94c:	85d6                	mv	a1,s5
   1a94e:	8552                	mv	a0,s4
   1a950:	f876                	sd	t4,48(sp)
   1a952:	e47e                	sd	t6,8(sp)
   1a954:	3da010ef          	jal	ra,1bd2e <__ssprint_r>
   1a958:	fd19                	bnez	a0,1a876 <_svfprintf_r+0xb92>
   1a95a:	7792                	ld	a5,288(sp)
   1a95c:	7ec2                	ld	t4,48(sp)
   1a95e:	6fa2                	ld	t6,8(sp)
   1a960:	835e                	mv	t1,s7
   1a962:	d6cff06f          	j	19ece <_svfprintf_r+0x1ea>
   1a966:	11812703          	lw	a4,280(sp)
   1a96a:	00004897          	auipc	a7,0x4
   1a96e:	2e688893          	addi	a7,a7,742 # 1ec50 <blanks.4505>
   1a972:	4c1d                	li	s8,7
   1a974:	009d4663          	blt	s10,s1,1a980 <_svfprintf_r+0xc9c>
   1a978:	a081                	j	1a9b8 <_svfprintf_r+0xcd4>
   1a97a:	34c1                	addiw	s1,s1,-16
   1a97c:	029d5e63          	bge	s10,s1,1a9b8 <_svfprintf_r+0xcd4>
   1a980:	2705                	addiw	a4,a4,1
   1a982:	07c1                	addi	a5,a5,16
   1a984:	01133023          	sd	a7,0(t1)
   1a988:	01a33423          	sd	s10,8(t1)
   1a98c:	f23e                	sd	a5,288(sp)
   1a98e:	10e12c23          	sw	a4,280(sp)
   1a992:	0341                	addi	t1,t1,16
   1a994:	feec53e3          	bge	s8,a4,1a97a <_svfprintf_r+0xc96>
   1a998:	0a10                	addi	a2,sp,272
   1a99a:	85d6                	mv	a1,s5
   1a99c:	8552                	mv	a0,s4
   1a99e:	e446                	sd	a7,8(sp)
   1a9a0:	38e010ef          	jal	ra,1bd2e <__ssprint_r>
   1a9a4:	ec0519e3          	bnez	a0,1a876 <_svfprintf_r+0xb92>
   1a9a8:	34c1                	addiw	s1,s1,-16
   1a9aa:	7792                	ld	a5,288(sp)
   1a9ac:	11812703          	lw	a4,280(sp)
   1a9b0:	68a2                	ld	a7,8(sp)
   1a9b2:	835e                	mv	t1,s7
   1a9b4:	fc9d46e3          	blt	s10,s1,1a980 <_svfprintf_r+0xc9c>
   1a9b8:	0017069b          	addiw	a3,a4,1
   1a9bc:	97a6                	add	a5,a5,s1
   1a9be:	01133023          	sd	a7,0(t1)
   1a9c2:	00933423          	sd	s1,8(t1)
   1a9c6:	f23e                	sd	a5,288(sp)
   1a9c8:	10d12c23          	sw	a3,280(sp)
   1a9cc:	471d                	li	a4,7
   1a9ce:	d4d75363          	bge	a4,a3,19f14 <_svfprintf_r+0x230>
   1a9d2:	0a10                	addi	a2,sp,272
   1a9d4:	85d6                	mv	a1,s5
   1a9d6:	8552                	mv	a0,s4
   1a9d8:	356010ef          	jal	ra,1bd2e <__ssprint_r>
   1a9dc:	e8051de3          	bnez	a0,1a876 <_svfprintf_r+0xb92>
   1a9e0:	7792                	ld	a5,288(sp)
   1a9e2:	d32ff06f          	j	19f14 <_svfprintf_r+0x230>
   1a9e6:	562e                	lw	a2,232(sp)
   1a9e8:	52c05563          	blez	a2,1af12 <_svfprintf_r+0x122e>
   1a9ec:	6766                	ld	a4,88(sp)
   1a9ee:	7682                	ld	a3,32(sp)
   1a9f0:	00070c1b          	sext.w	s8,a4
   1a9f4:	2ae6c863          	blt	a3,a4,1aca4 <_svfprintf_r+0xfc0>
   1a9f8:	03805263          	blez	s8,1aa1c <_svfprintf_r+0xd38>
   1a9fc:	11812703          	lw	a4,280(sp)
   1aa00:	97e2                	add	a5,a5,s8
   1aa02:	01933023          	sd	s9,0(t1)
   1aa06:	0017069b          	addiw	a3,a4,1
   1aa0a:	01833423          	sd	s8,8(t1)
   1aa0e:	f23e                	sd	a5,288(sp)
   1aa10:	10d12c23          	sw	a3,280(sp)
   1aa14:	471d                	li	a4,7
   1aa16:	0341                	addi	t1,t1,16
   1aa18:	7ad74763          	blt	a4,a3,1b1c6 <_svfprintf_r+0x14e2>
   1aa1c:	fffc4713          	not	a4,s8
   1aa20:	977d                	srai	a4,a4,0x3f
   1aa22:	00ec7c33          	and	s8,s8,a4
   1aa26:	6766                	ld	a4,88(sp)
   1aa28:	41870c3b          	subw	s8,a4,s8
   1aa2c:	35804563          	bgtz	s8,1ad76 <_svfprintf_r+0x1092>
   1aa30:	66e6                	ld	a3,88(sp)
   1aa32:	4004f713          	andi	a4,s1,1024
   1aa36:	00dc8db3          	add	s11,s9,a3
   1aa3a:	36071f63          	bnez	a4,1adb8 <_svfprintf_r+0x10d4>
   1aa3e:	572e                	lw	a4,232(sp)
   1aa40:	7682                	ld	a3,32(sp)
   1aa42:	00d74663          	blt	a4,a3,1aa4e <_svfprintf_r+0xd6a>
   1aa46:	0014f693          	andi	a3,s1,1
   1aa4a:	78068b63          	beqz	a3,1b1e0 <_svfprintf_r+0x14fc>
   1aa4e:	76e6                	ld	a3,120(sp)
   1aa50:	7646                	ld	a2,112(sp)
   1aa52:	0341                	addi	t1,t1,16
   1aa54:	fed33823          	sd	a3,-16(t1)
   1aa58:	11812683          	lw	a3,280(sp)
   1aa5c:	97b2                	add	a5,a5,a2
   1aa5e:	fec33c23          	sd	a2,-8(t1)
   1aa62:	2685                	addiw	a3,a3,1
   1aa64:	0006861b          	sext.w	a2,a3
   1aa68:	10d12c23          	sw	a3,280(sp)
   1aa6c:	f23e                	sd	a5,288(sp)
   1aa6e:	469d                	li	a3,7
   1aa70:	0ac6c0e3          	blt	a3,a2,1b310 <_svfprintf_r+0x162c>
   1aa74:	7682                	ld	a3,32(sp)
   1aa76:	00dc8633          	add	a2,s9,a3
   1aa7a:	40e6873b          	subw	a4,a3,a4
   1aa7e:	41b6063b          	subw	a2,a2,s11
   1aa82:	0007069b          	sext.w	a3,a4
   1aa86:	00d65363          	bge	a2,a3,1aa8c <_svfprintf_r+0xda8>
   1aa8a:	8732                	mv	a4,a2
   1aa8c:	00070c9b          	sext.w	s9,a4
   1aa90:	03905263          	blez	s9,1aab4 <_svfprintf_r+0xdd0>
   1aa94:	11812603          	lw	a2,280(sp)
   1aa98:	97e6                	add	a5,a5,s9
   1aa9a:	01b33023          	sd	s11,0(t1)
   1aa9e:	0016059b          	addiw	a1,a2,1
   1aaa2:	01933423          	sd	s9,8(t1)
   1aaa6:	f23e                	sd	a5,288(sp)
   1aaa8:	10b12c23          	sw	a1,280(sp)
   1aaac:	461d                	li	a2,7
   1aaae:	0341                	addi	t1,t1,16
   1aab0:	14b642e3          	blt	a2,a1,1b3f4 <_svfprintf_r+0x1710>
   1aab4:	fffccc13          	not	s8,s9
   1aab8:	43fc5c13          	srai	s8,s8,0x3f
   1aabc:	018cfc33          	and	s8,s9,s8
   1aac0:	41868c3b          	subw	s8,a3,s8
   1aac4:	c5805263          	blez	s8,19f08 <_svfprintf_r+0x224>
   1aac8:	11812703          	lw	a4,280(sp)
   1aacc:	518d5963          	bge	s10,s8,1afde <_svfprintf_r+0x12fa>
   1aad0:	4c9d                	li	s9,7
   1aad2:	a021                	j	1aada <_svfprintf_r+0xdf6>
   1aad4:	3c41                	addiw	s8,s8,-16
   1aad6:	518d5463          	bge	s10,s8,1afde <_svfprintf_r+0x12fa>
   1aada:	2705                	addiw	a4,a4,1
   1aadc:	07c1                	addi	a5,a5,16
   1aade:	01233023          	sd	s2,0(t1)
   1aae2:	01a33423          	sd	s10,8(t1)
   1aae6:	f23e                	sd	a5,288(sp)
   1aae8:	10e12c23          	sw	a4,280(sp)
   1aaec:	0341                	addi	t1,t1,16
   1aaee:	feecd3e3          	bge	s9,a4,1aad4 <_svfprintf_r+0xdf0>
   1aaf2:	0a10                	addi	a2,sp,272
   1aaf4:	85d6                	mv	a1,s5
   1aaf6:	8552                	mv	a0,s4
   1aaf8:	236010ef          	jal	ra,1bd2e <__ssprint_r>
   1aafc:	d6051de3          	bnez	a0,1a876 <_svfprintf_r+0xb92>
   1ab00:	7792                	ld	a5,288(sp)
   1ab02:	11812703          	lw	a4,280(sp)
   1ab06:	835e                	mv	t1,s7
   1ab08:	b7f1                	j	1aad4 <_svfprintf_r+0xdf0>
   1ab0a:	0014f513          	andi	a0,s1,1
   1ab0e:	fc051963          	bnez	a0,1a2e0 <_svfprintf_r+0x5fc>
   1ab12:	00b33423          	sd	a1,8(t1)
   1ab16:	f26e                	sd	s11,288(sp)
   1ab18:	10e12c23          	sw	a4,280(sp)
   1ab1c:	469d                	li	a3,7
   1ab1e:	3ce6c063          	blt	a3,a4,1aede <_svfprintf_r+0x11fa>
   1ab22:	2609                	addiw	a2,a2,2
   1ab24:	02030313          	addi	t1,t1,32
   1ab28:	83fff06f          	j	1a366 <_svfprintf_r+0x682>
   1ab2c:	82d05de3          	blez	a3,1a366 <_svfprintf_r+0x682>
   1ab30:	54dd58e3          	bge	s10,a3,1b880 <_svfprintf_r+0x1b9c>
   1ab34:	4c9d                	li	s9,7
   1ab36:	a031                	j	1ab42 <_svfprintf_r+0xe5e>
   1ab38:	36c1                	addiw	a3,a3,-16
   1ab3a:	5cdd5263          	bge	s10,a3,1b0fe <_svfprintf_r+0x141a>
   1ab3e:	0017089b          	addiw	a7,a4,1
   1ab42:	0dc1                	addi	s11,s11,16
   1ab44:	012c3023          	sd	s2,0(s8)
   1ab48:	01ac3423          	sd	s10,8(s8)
   1ab4c:	f26e                	sd	s11,288(sp)
   1ab4e:	0008871b          	sext.w	a4,a7
   1ab52:	11112c23          	sw	a7,280(sp)
   1ab56:	0c41                	addi	s8,s8,16
   1ab58:	feecd0e3          	bge	s9,a4,1ab38 <_svfprintf_r+0xe54>
   1ab5c:	0a10                	addi	a2,sp,272
   1ab5e:	85d6                	mv	a1,s5
   1ab60:	8552                	mv	a0,s4
   1ab62:	e436                	sd	a3,8(sp)
   1ab64:	1ca010ef          	jal	ra,1bd2e <__ssprint_r>
   1ab68:	d00517e3          	bnez	a0,1a876 <_svfprintf_r+0xb92>
   1ab6c:	7d92                	ld	s11,288(sp)
   1ab6e:	11812703          	lw	a4,280(sp)
   1ab72:	66a2                	ld	a3,8(sp)
   1ab74:	8c5e                	mv	s8,s7
   1ab76:	b7c9                	j	1ab38 <_svfprintf_r+0xe54>
   1ab78:	01087793          	andi	a5,a6,16
   1ab7c:	e3bd                	bnez	a5,1abe2 <_svfprintf_r+0xefe>
   1ab7e:	66e2                	ld	a3,24(sp)
   1ab80:	04087793          	andi	a5,a6,64
   1ab84:	0006a983          	lw	s3,0(a3)
   1ab88:	5a078863          	beqz	a5,1b138 <_svfprintf_r+0x1454>
   1ab8c:	19c2                	slli	s3,s3,0x30
   1ab8e:	0309d993          	srli	s3,s3,0x30
   1ab92:	ec3a                	sd	a4,24(sp)
   1ab94:	4785                	li	a5,1
   1ab96:	c8cff06f          	j	1a022 <_svfprintf_r+0x33e>
   1ab9a:	0a10                	addi	a2,sp,272
   1ab9c:	85d6                	mv	a1,s5
   1ab9e:	8552                	mv	a0,s4
   1aba0:	18e010ef          	jal	ra,1bd2e <__ssprint_r>
   1aba4:	cc0519e3          	bnez	a0,1a876 <_svfprintf_r+0xb92>
   1aba8:	7d92                	ld	s11,288(sp)
   1abaa:	11812703          	lw	a4,280(sp)
   1abae:	8c5e                	mv	s8,s7
   1abb0:	f42ff06f          	j	1a2f2 <_svfprintf_r+0x60e>
   1abb4:	0a10                	addi	a2,sp,272
   1abb6:	85d6                	mv	a1,s5
   1abb8:	8552                	mv	a0,s4
   1abba:	174010ef          	jal	ra,1bd2e <__ssprint_r>
   1abbe:	ca051ce3          	bnez	a0,1a876 <_svfprintf_r+0xb92>
   1abc2:	7d92                	ld	s11,288(sp)
   1abc4:	11812703          	lw	a4,280(sp)
   1abc8:	8c5e                	mv	s8,s7
   1abca:	f4cff06f          	j	1a316 <_svfprintf_r+0x632>
   1abce:	0014f713          	andi	a4,s1,1
   1abd2:	b2070b63          	beqz	a4,19f08 <_svfprintf_r+0x224>
   1abd6:	bcf1                	j	1a6b2 <_svfprintf_r+0x9ce>
   1abd8:	67e2                	ld	a5,24(sp)
   1abda:	639c                	ld	a5,0(a5)
   1abdc:	89be                	mv	s3,a5
   1abde:	bdaff06f          	j	19fb8 <_svfprintf_r+0x2d4>
   1abe2:	67e2                	ld	a5,24(sp)
   1abe4:	ec3a                	sd	a4,24(sp)
   1abe6:	0007b983          	ld	s3,0(a5)
   1abea:	4785                	li	a5,1
   1abec:	c36ff06f          	j	1a022 <_svfprintf_r+0x33e>
   1abf0:	67e2                	ld	a5,24(sp)
   1abf2:	07bd                	addi	a5,a5,15
   1abf4:	9bc1                	andi	a5,a5,-16
   1abf6:	6394                	ld	a3,0(a5)
   1abf8:	6798                	ld	a4,8(a5)
   1abfa:	07c1                	addi	a5,a5,16
   1abfc:	ec3e                	sd	a5,24(sp)
   1abfe:	e236                	sd	a3,256(sp)
   1ac00:	e63a                	sd	a4,264(sp)
   1ac02:	c96ff06f          	j	1a098 <_svfprintf_r+0x3b4>
   1ac06:	67e2                	ld	a5,24(sp)
   1ac08:	0007b983          	ld	s3,0(a5)
   1ac0c:	c0aff06f          	j	1a016 <_svfprintf_r+0x332>
   1ac10:	ec3a                	sd	a4,24(sp)
   1ac12:	47a5                	li	a5,9
   1ac14:	8826                	mv	a6,s1
   1ac16:	c937f0e3          	bgeu	a5,s3,1a896 <_svfprintf_r+0xbb2>
   1ac1a:	40087793          	andi	a5,a6,1024
   1ac1e:	18c10c13          	addi	s8,sp,396
   1ac22:	2781                	sext.w	a5,a5
   1ac24:	f002                	sd	zero,32(sp)
   1ac26:	85e2                	mv	a1,s8
   1ac28:	44a9                	li	s1,10
   1ac2a:	4725                	li	a4,9
   1ac2c:	0ff00693          	li	a3,255
   1ac30:	a039                	j	1ac3e <_svfprintf_r+0xf5a>
   1ac32:	0299d633          	divu	a2,s3,s1
   1ac36:	b33770e3          	bgeu	a4,s3,1a756 <_svfprintf_r+0xa72>
   1ac3a:	89b2                	mv	s3,a2
   1ac3c:	85e6                	mv	a1,s9
   1ac3e:	7502                	ld	a0,32(sp)
   1ac40:	fff58c93          	addi	s9,a1,-1
   1ac44:	2505                	addiw	a0,a0,1
   1ac46:	f02a                	sd	a0,32(sp)
   1ac48:	0299f633          	remu	a2,s3,s1
   1ac4c:	0306061b          	addiw	a2,a2,48
   1ac50:	fec58fa3          	sb	a2,-1(a1)
   1ac54:	dff9                	beqz	a5,1ac32 <_svfprintf_r+0xf4e>
   1ac56:	7626                	ld	a2,104(sp)
   1ac58:	00064603          	lbu	a2,0(a2)
   1ac5c:	fcc51be3          	bne	a0,a2,1ac32 <_svfprintf_r+0xf4e>
   1ac60:	fcd609e3          	beq	a2,a3,1ac32 <_svfprintf_r+0xf4e>
   1ac64:	af3779e3          	bgeu	a4,s3,1a756 <_svfprintf_r+0xa72>
   1ac68:	fc3e                	sd	a5,56(sp)
   1ac6a:	67aa                	ld	a5,136(sp)
   1ac6c:	65ca                	ld	a1,144(sp)
   1ac6e:	f81a                	sd	t1,48(sp)
   1ac70:	40fc8cb3          	sub	s9,s9,a5
   1ac74:	863e                	mv	a2,a5
   1ac76:	8566                	mv	a0,s9
   1ac78:	e876                	sd	t4,16(sp)
   1ac7a:	e442                	sd	a6,8(sp)
   1ac7c:	feffe0ef          	jal	ra,19c6a <strncpy>
   1ac80:	77a6                	ld	a5,104(sp)
   1ac82:	0299d633          	divu	a2,s3,s1
   1ac86:	6822                	ld	a6,8(sp)
   1ac88:	0017c583          	lbu	a1,1(a5)
   1ac8c:	6ec2                	ld	t4,16(sp)
   1ac8e:	7342                	ld	t1,48(sp)
   1ac90:	00b035b3          	snez	a1,a1
   1ac94:	97ae                	add	a5,a5,a1
   1ac96:	f4be                	sd	a5,104(sp)
   1ac98:	f002                	sd	zero,32(sp)
   1ac9a:	77e2                	ld	a5,56(sp)
   1ac9c:	4725                	li	a4,9
   1ac9e:	0ff00693          	li	a3,255
   1aca2:	bf61                	j	1ac3a <_svfprintf_r+0xf56>
   1aca4:	00068c1b          	sext.w	s8,a3
   1aca8:	d5804ae3          	bgtz	s8,1a9fc <_svfprintf_r+0xd18>
   1acac:	bb85                	j	1aa1c <_svfprintf_r+0xd38>
   1acae:	8826                	mv	a6,s1
   1acb0:	b8d5                	j	1a5a4 <_svfprintf_r+0x8c0>
   1acb2:	00003797          	auipc	a5,0x3
   1acb6:	6ae78793          	addi	a5,a5,1710 # 1e360 <__func__.4057+0x2c0>
   1acba:	f43e                	sd	a5,40(sp)
   1acbc:	66e2                	ld	a3,24(sp)
   1acbe:	0204f793          	andi	a5,s1,32
   1acc2:	00868713          	addi	a4,a3,8
   1acc6:	20078563          	beqz	a5,1aed0 <_svfprintf_r+0x11ec>
   1acca:	0006b983          	ld	s3,0(a3)
   1acce:	0014f793          	andi	a5,s1,1
   1acd2:	cf81                	beqz	a5,1acea <_svfprintf_r+0x1006>
   1acd4:	00098b63          	beqz	s3,1acea <_svfprintf_r+0x1006>
   1acd8:	0024e493          	ori	s1,s1,2
   1acdc:	03000793          	li	a5,48
   1ace0:	0ef10023          	sb	a5,224(sp)
   1ace4:	0fb100a3          	sb	s11,225(sp)
   1ace8:	2481                	sext.w	s1,s1
   1acea:	bff4f493          	andi	s1,s1,-1025
   1acee:	0004881b          	sext.w	a6,s1
   1acf2:	ec3a                	sd	a4,24(sp)
   1acf4:	4789                	li	a5,2
   1acf6:	b2cff06f          	j	1a022 <_svfprintf_r+0x33e>
   1acfa:	2004e493          	ori	s1,s1,512
   1acfe:	00144f03          	lbu	t5,1(s0)
   1ad02:	2481                	sext.w	s1,s1
   1ad04:	0405                	addi	s0,s0,1
   1ad06:	8d6ff06f          	j	19ddc <_svfprintf_r+0xf8>
   1ad0a:	0204e493          	ori	s1,s1,32
   1ad0e:	00144f03          	lbu	t5,1(s0)
   1ad12:	2481                	sext.w	s1,s1
   1ad14:	0405                	addi	s0,s0,1
   1ad16:	8c6ff06f          	j	19ddc <_svfprintf_r+0xf8>
   1ad1a:	00003797          	auipc	a5,0x3
   1ad1e:	62e78793          	addi	a5,a5,1582 # 1e348 <__func__.4057+0x2a8>
   1ad22:	f43e                	sd	a5,40(sp)
   1ad24:	bf61                	j	1acbc <_svfprintf_r+0xfd8>
   1ad26:	0a10                	addi	a2,sp,272
   1ad28:	85d6                	mv	a1,s5
   1ad2a:	8552                	mv	a0,s4
   1ad2c:	002010ef          	jal	ra,1bd2e <__ssprint_r>
   1ad30:	b40513e3          	bnez	a0,1a876 <_svfprintf_r+0xb92>
   1ad34:	7792                	ld	a5,288(sp)
   1ad36:	835e                	mv	t1,s7
   1ad38:	b245                	j	1a6d8 <_svfprintf_r+0x9f4>
   1ad3a:	04000593          	li	a1,64
   1ad3e:	8552                	mv	a0,s4
   1ad40:	a18f70ef          	jal	ra,11f58 <_malloc_r>
   1ad44:	00aab023          	sd	a0,0(s5)
   1ad48:	00aabc23          	sd	a0,24(s5)
   1ad4c:	34050ae3          	beqz	a0,1b8a0 <_svfprintf_r+0x1bbc>
   1ad50:	04000793          	li	a5,64
   1ad54:	02faa023          	sw	a5,32(s5)
   1ad58:	ff5fe06f          	j	19d4c <_svfprintf_r+0x68>
   1ad5c:	4799                	li	a5,6
   1ad5e:	000e8c1b          	sext.w	s8,t4
   1ad62:	47d7ed63          	bltu	a5,t4,1b1dc <_svfprintf_r+0x14f8>
   1ad66:	89e2                	mv	s3,s8
   1ad68:	ec36                	sd	a3,24(sp)
   1ad6a:	00003c97          	auipc	s9,0x3
   1ad6e:	60ec8c93          	addi	s9,s9,1550 # 1e378 <__func__.4057+0x2d8>
   1ad72:	8dcff06f          	j	19e4e <_svfprintf_r+0x16a>
   1ad76:	11812703          	lw	a4,280(sp)
   1ad7a:	418d5963          	bge	s10,s8,1b18c <_svfprintf_r+0x14a8>
   1ad7e:	4d9d                	li	s11,7
   1ad80:	a021                	j	1ad88 <_svfprintf_r+0x10a4>
   1ad82:	3c41                	addiw	s8,s8,-16
   1ad84:	418d5463          	bge	s10,s8,1b18c <_svfprintf_r+0x14a8>
   1ad88:	2705                	addiw	a4,a4,1
   1ad8a:	07c1                	addi	a5,a5,16
   1ad8c:	01233023          	sd	s2,0(t1)
   1ad90:	01a33423          	sd	s10,8(t1)
   1ad94:	f23e                	sd	a5,288(sp)
   1ad96:	10e12c23          	sw	a4,280(sp)
   1ad9a:	0341                	addi	t1,t1,16
   1ad9c:	feedd3e3          	bge	s11,a4,1ad82 <_svfprintf_r+0x109e>
   1ada0:	0a10                	addi	a2,sp,272
   1ada2:	85d6                	mv	a1,s5
   1ada4:	8552                	mv	a0,s4
   1ada6:	789000ef          	jal	ra,1bd2e <__ssprint_r>
   1adaa:	ac0516e3          	bnez	a0,1a876 <_svfprintf_r+0xb92>
   1adae:	7792                	ld	a5,288(sp)
   1adb0:	11812703          	lw	a4,280(sp)
   1adb4:	835e                	mv	t1,s7
   1adb6:	b7f1                	j	1ad82 <_svfprintf_r+0x109e>
   1adb8:	7702                	ld	a4,32(sp)
   1adba:	4c1d                	li	s8,7
   1adbc:	9766                	add	a4,a4,s9
   1adbe:	f83a                	sd	a4,48(sp)
   1adc0:	7706                	ld	a4,96(sp)
   1adc2:	cb49                	beqz	a4,1ae54 <_svfprintf_r+0x1170>
   1adc4:	6746                	ld	a4,80(sp)
   1adc6:	eb51                	bnez	a4,1ae5a <_svfprintf_r+0x1176>
   1adc8:	7726                	ld	a4,104(sp)
   1adca:	177d                	addi	a4,a4,-1
   1adcc:	f4ba                	sd	a4,104(sp)
   1adce:	7706                	ld	a4,96(sp)
   1add0:	377d                	addiw	a4,a4,-1
   1add2:	f0ba                	sd	a4,96(sp)
   1add4:	674a                	ld	a4,144(sp)
   1add6:	66aa                	ld	a3,136(sp)
   1add8:	0341                	addi	t1,t1,16
   1adda:	fee33823          	sd	a4,-16(t1)
   1adde:	11812703          	lw	a4,280(sp)
   1ade2:	97b6                	add	a5,a5,a3
   1ade4:	fed33c23          	sd	a3,-8(t1)
   1ade8:	2705                	addiw	a4,a4,1
   1adea:	f23e                	sd	a5,288(sp)
   1adec:	0007069b          	sext.w	a3,a4
   1adf0:	10e12c23          	sw	a4,280(sp)
   1adf4:	10dc4563          	blt	s8,a3,1aefe <_svfprintf_r+0x121a>
   1adf8:	7726                	ld	a4,104(sp)
   1adfa:	00074603          	lbu	a2,0(a4)
   1adfe:	7742                	ld	a4,48(sp)
   1ae00:	41b705bb          	subw	a1,a4,s11
   1ae04:	0006071b          	sext.w	a4,a2
   1ae08:	0007069b          	sext.w	a3,a4
   1ae0c:	00e5d463          	bge	a1,a4,1ae14 <_svfprintf_r+0x1130>
   1ae10:	0005869b          	sext.w	a3,a1
   1ae14:	02d05663          	blez	a3,1ae40 <_svfprintf_r+0x115c>
   1ae18:	11812703          	lw	a4,280(sp)
   1ae1c:	97b6                	add	a5,a5,a3
   1ae1e:	01b33023          	sd	s11,0(t1)
   1ae22:	0017061b          	addiw	a2,a4,1
   1ae26:	00d33423          	sd	a3,8(t1)
   1ae2a:	f23e                	sd	a5,288(sp)
   1ae2c:	10c12c23          	sw	a2,280(sp)
   1ae30:	1acc4f63          	blt	s8,a2,1afee <_svfprintf_r+0x130a>
   1ae34:	7726                	ld	a4,104(sp)
   1ae36:	0341                	addi	t1,t1,16
   1ae38:	00074603          	lbu	a2,0(a4)
   1ae3c:	0006071b          	sext.w	a4,a2
   1ae40:	fff6c593          	not	a1,a3
   1ae44:	95fd                	srai	a1,a1,0x3f
   1ae46:	8eed                	and	a3,a3,a1
   1ae48:	9f15                	subw	a4,a4,a3
   1ae4a:	00e04c63          	bgtz	a4,1ae62 <_svfprintf_r+0x117e>
   1ae4e:	9db2                	add	s11,s11,a2
   1ae50:	7706                	ld	a4,96(sp)
   1ae52:	fb2d                	bnez	a4,1adc4 <_svfprintf_r+0x10e0>
   1ae54:	6746                	ld	a4,80(sp)
   1ae56:	42070063          	beqz	a4,1b276 <_svfprintf_r+0x1592>
   1ae5a:	6746                	ld	a4,80(sp)
   1ae5c:	377d                	addiw	a4,a4,-1
   1ae5e:	e8ba                	sd	a4,80(sp)
   1ae60:	bf95                	j	1add4 <_svfprintf_r+0x10f0>
   1ae62:	11812683          	lw	a3,280(sp)
   1ae66:	00ed4663          	blt	s10,a4,1ae72 <_svfprintf_r+0x118e>
   1ae6a:	a081                	j	1aeaa <_svfprintf_r+0x11c6>
   1ae6c:	3741                	addiw	a4,a4,-16
   1ae6e:	02ed5e63          	bge	s10,a4,1aeaa <_svfprintf_r+0x11c6>
   1ae72:	2685                	addiw	a3,a3,1
   1ae74:	07c1                	addi	a5,a5,16
   1ae76:	01233023          	sd	s2,0(t1)
   1ae7a:	01a33423          	sd	s10,8(t1)
   1ae7e:	f23e                	sd	a5,288(sp)
   1ae80:	10d12c23          	sw	a3,280(sp)
   1ae84:	0341                	addi	t1,t1,16
   1ae86:	fedc53e3          	bge	s8,a3,1ae6c <_svfprintf_r+0x1188>
   1ae8a:	0a10                	addi	a2,sp,272
   1ae8c:	85d6                	mv	a1,s5
   1ae8e:	8552                	mv	a0,s4
   1ae90:	e43a                	sd	a4,8(sp)
   1ae92:	69d000ef          	jal	ra,1bd2e <__ssprint_r>
   1ae96:	9e0510e3          	bnez	a0,1a876 <_svfprintf_r+0xb92>
   1ae9a:	6722                	ld	a4,8(sp)
   1ae9c:	7792                	ld	a5,288(sp)
   1ae9e:	11812683          	lw	a3,280(sp)
   1aea2:	3741                	addiw	a4,a4,-16
   1aea4:	835e                	mv	t1,s7
   1aea6:	fced46e3          	blt	s10,a4,1ae72 <_svfprintf_r+0x118e>
   1aeaa:	2685                	addiw	a3,a3,1
   1aeac:	97ba                	add	a5,a5,a4
   1aeae:	00e33423          	sd	a4,8(t1)
   1aeb2:	01233023          	sd	s2,0(t1)
   1aeb6:	f23e                	sd	a5,288(sp)
   1aeb8:	0006871b          	sext.w	a4,a3
   1aebc:	10d12c23          	sw	a3,280(sp)
   1aec0:	42ec4563          	blt	s8,a4,1b2ea <_svfprintf_r+0x1606>
   1aec4:	7726                	ld	a4,104(sp)
   1aec6:	0341                	addi	t1,t1,16
   1aec8:	00074603          	lbu	a2,0(a4)
   1aecc:	9db2                	add	s11,s11,a2
   1aece:	b749                	j	1ae50 <_svfprintf_r+0x116c>
   1aed0:	0104f793          	andi	a5,s1,16
   1aed4:	cff9                	beqz	a5,1afb2 <_svfprintf_r+0x12ce>
   1aed6:	67e2                	ld	a5,24(sp)
   1aed8:	0007b983          	ld	s3,0(a5)
   1aedc:	bbcd                	j	1acce <_svfprintf_r+0xfea>
   1aede:	0a10                	addi	a2,sp,272
   1aee0:	85d6                	mv	a1,s5
   1aee2:	8552                	mv	a0,s4
   1aee4:	64b000ef          	jal	ra,1bd2e <__ssprint_r>
   1aee8:	980517e3          	bnez	a0,1a876 <_svfprintf_r+0xb92>
   1aeec:	11812603          	lw	a2,280(sp)
   1aef0:	7d92                	ld	s11,288(sp)
   1aef2:	1a010313          	addi	t1,sp,416
   1aef6:	2605                	addiw	a2,a2,1
   1aef8:	8c5e                	mv	s8,s7
   1aefa:	c6cff06f          	j	1a366 <_svfprintf_r+0x682>
   1aefe:	0a10                	addi	a2,sp,272
   1af00:	85d6                	mv	a1,s5
   1af02:	8552                	mv	a0,s4
   1af04:	62b000ef          	jal	ra,1bd2e <__ssprint_r>
   1af08:	960517e3          	bnez	a0,1a876 <_svfprintf_r+0xb92>
   1af0c:	7792                	ld	a5,288(sp)
   1af0e:	835e                	mv	t1,s7
   1af10:	b5e5                	j	1adf8 <_svfprintf_r+0x1114>
   1af12:	11812703          	lw	a4,280(sp)
   1af16:	00003697          	auipc	a3,0x3
   1af1a:	61a68693          	addi	a3,a3,1562 # 1e530 <zeroes.4497+0x30>
   1af1e:	00d33023          	sd	a3,0(t1)
   1af22:	2705                	addiw	a4,a4,1
   1af24:	4685                	li	a3,1
   1af26:	0785                	addi	a5,a5,1
   1af28:	00d33423          	sd	a3,8(t1)
   1af2c:	10e12c23          	sw	a4,280(sp)
   1af30:	0007069b          	sext.w	a3,a4
   1af34:	f23e                	sd	a5,288(sp)
   1af36:	471d                	li	a4,7
   1af38:	0341                	addi	t1,t1,16
   1af3a:	06d74163          	blt	a4,a3,1af9c <_svfprintf_r+0x12b8>
   1af3e:	10061c63          	bnez	a2,1b056 <_svfprintf_r+0x1372>
   1af42:	7682                	ld	a3,32(sp)
   1af44:	0014f713          	andi	a4,s1,1
   1af48:	8f55                	or	a4,a4,a3
   1af4a:	e319                	bnez	a4,1af50 <_svfprintf_r+0x126c>
   1af4c:	fbdfe06f          	j	19f08 <_svfprintf_r+0x224>
   1af50:	76e6                	ld	a3,120(sp)
   1af52:	7746                	ld	a4,112(sp)
   1af54:	00d33023          	sd	a3,0(t1)
   1af58:	11812683          	lw	a3,280(sp)
   1af5c:	97ba                	add	a5,a5,a4
   1af5e:	00e33423          	sd	a4,8(t1)
   1af62:	2685                	addiw	a3,a3,1
   1af64:	0006871b          	sext.w	a4,a3
   1af68:	10d12c23          	sw	a3,280(sp)
   1af6c:	f23e                	sd	a5,288(sp)
   1af6e:	469d                	li	a3,7
   1af70:	2ee6c163          	blt	a3,a4,1b252 <_svfprintf_r+0x156e>
   1af74:	0341                	addi	t1,t1,16
   1af76:	7682                	ld	a3,32(sp)
   1af78:	2705                	addiw	a4,a4,1
   1af7a:	10e12c23          	sw	a4,280(sp)
   1af7e:	97b6                	add	a5,a5,a3
   1af80:	00d33423          	sd	a3,8(t1)
   1af84:	01933023          	sd	s9,0(t1)
   1af88:	0007069b          	sext.w	a3,a4
   1af8c:	f23e                	sd	a5,288(sp)
   1af8e:	471d                	li	a4,7
   1af90:	00d74463          	blt	a4,a3,1af98 <_svfprintf_r+0x12b4>
   1af94:	f73fe06f          	j	19f06 <_svfprintf_r+0x222>
   1af98:	beaff06f          	j	1a382 <_svfprintf_r+0x69e>
   1af9c:	0a10                	addi	a2,sp,272
   1af9e:	85d6                	mv	a1,s5
   1afa0:	8552                	mv	a0,s4
   1afa2:	58d000ef          	jal	ra,1bd2e <__ssprint_r>
   1afa6:	8c0518e3          	bnez	a0,1a876 <_svfprintf_r+0xb92>
   1afaa:	562e                	lw	a2,232(sp)
   1afac:	7792                	ld	a5,288(sp)
   1afae:	835e                	mv	t1,s7
   1afb0:	b779                	j	1af3e <_svfprintf_r+0x125a>
   1afb2:	66e2                	ld	a3,24(sp)
   1afb4:	0404f793          	andi	a5,s1,64
   1afb8:	0006a983          	lw	s3,0(a3)
   1afbc:	1a078063          	beqz	a5,1b15c <_svfprintf_r+0x1478>
   1afc0:	19c2                	slli	s3,s3,0x30
   1afc2:	0309d993          	srli	s3,s3,0x30
   1afc6:	b321                	j	1acce <_svfprintf_r+0xfea>
   1afc8:	0a10                	addi	a2,sp,272
   1afca:	85d6                	mv	a1,s5
   1afcc:	8552                	mv	a0,s4
   1afce:	561000ef          	jal	ra,1bd2e <__ssprint_r>
   1afd2:	8a0512e3          	bnez	a0,1a876 <_svfprintf_r+0xb92>
   1afd6:	7792                	ld	a5,288(sp)
   1afd8:	835e                	mv	t1,s7
   1afda:	ed0ff06f          	j	1a6aa <_svfprintf_r+0x9c6>
   1afde:	0017069b          	addiw	a3,a4,1
   1afe2:	8736                	mv	a4,a3
   1afe4:	97e2                	add	a5,a5,s8
   1afe6:	01233023          	sd	s2,0(t1)
   1afea:	f0dfe06f          	j	19ef6 <_svfprintf_r+0x212>
   1afee:	0a10                	addi	a2,sp,272
   1aff0:	85d6                	mv	a1,s5
   1aff2:	8552                	mv	a0,s4
   1aff4:	e436                	sd	a3,8(sp)
   1aff6:	539000ef          	jal	ra,1bd2e <__ssprint_r>
   1affa:	86051ee3          	bnez	a0,1a876 <_svfprintf_r+0xb92>
   1affe:	77a6                	ld	a5,104(sp)
   1b000:	66a2                	ld	a3,8(sp)
   1b002:	835e                	mv	t1,s7
   1b004:	0007c603          	lbu	a2,0(a5)
   1b008:	7792                	ld	a5,288(sp)
   1b00a:	0006071b          	sext.w	a4,a2
   1b00e:	bd0d                	j	1ae40 <_svfprintf_r+0x115c>
   1b010:	6512                	ld	a0,256(sp)
   1b012:	65b2                	ld	a1,264(sp)
   1b014:	4601                	li	a2,0
   1b016:	4681                	li	a3,0
   1b018:	e41a                	sd	t1,8(sp)
   1b01a:	507010ef          	jal	ra,1cd20 <__letf2>
   1b01e:	6322                	ld	t1,8(sp)
   1b020:	2e054363          	bltz	a0,1b306 <_svfprintf_r+0x1622>
   1b024:	0df14783          	lbu	a5,223(sp)
   1b028:	04700713          	li	a4,71
   1b02c:	00003c97          	auipc	s9,0x3
   1b030:	4e4c8c93          	addi	s9,s9,1252 # 1e510 <zeroes.4497+0x10>
   1b034:	19b74463          	blt	a4,s11,1b1bc <_svfprintf_r+0x14d8>
   1b038:	f7f4f493          	andi	s1,s1,-129
   1b03c:	e802                	sd	zero,16(sp)
   1b03e:	e882                	sd	zero,80(sp)
   1b040:	f082                	sd	zero,96(sp)
   1b042:	ec82                	sd	zero,88(sp)
   1b044:	2481                	sext.w	s1,s1
   1b046:	498d                	li	s3,3
   1b048:	4c0d                	li	s8,3
   1b04a:	4e81                	li	t4,0
   1b04c:	c399                	beqz	a5,1b052 <_svfprintf_r+0x136e>
   1b04e:	fadfe06f          	j	19ffa <_svfprintf_r+0x316>
   1b052:	e07fe06f          	j	19e58 <_svfprintf_r+0x174>
   1b056:	76e6                	ld	a3,120(sp)
   1b058:	7746                	ld	a4,112(sp)
   1b05a:	0341                	addi	t1,t1,16
   1b05c:	fed33823          	sd	a3,-16(t1)
   1b060:	11812683          	lw	a3,280(sp)
   1b064:	97ba                	add	a5,a5,a4
   1b066:	fee33c23          	sd	a4,-8(t1)
   1b06a:	2685                	addiw	a3,a3,1
   1b06c:	0006871b          	sext.w	a4,a3
   1b070:	10d12c23          	sw	a3,280(sp)
   1b074:	f23e                	sd	a5,288(sp)
   1b076:	469d                	li	a3,7
   1b078:	1ce6cd63          	blt	a3,a4,1b252 <_svfprintf_r+0x156e>
   1b07c:	ee065de3          	bgez	a2,1af76 <_svfprintf_r+0x1292>
   1b080:	56c1                	li	a3,-16
   1b082:	40c00c3b          	negw	s8,a2
   1b086:	60d65d63          	bge	a2,a3,1b6a0 <_svfprintf_r+0x19bc>
   1b08a:	4d9d                	li	s11,7
   1b08c:	a021                	j	1b094 <_svfprintf_r+0x13b0>
   1b08e:	3c41                	addiw	s8,s8,-16
   1b090:	618d5863          	bge	s10,s8,1b6a0 <_svfprintf_r+0x19bc>
   1b094:	2705                	addiw	a4,a4,1
   1b096:	07c1                	addi	a5,a5,16
   1b098:	01233023          	sd	s2,0(t1)
   1b09c:	01a33423          	sd	s10,8(t1)
   1b0a0:	f23e                	sd	a5,288(sp)
   1b0a2:	10e12c23          	sw	a4,280(sp)
   1b0a6:	0341                	addi	t1,t1,16
   1b0a8:	feedd3e3          	bge	s11,a4,1b08e <_svfprintf_r+0x13aa>
   1b0ac:	0a10                	addi	a2,sp,272
   1b0ae:	85d6                	mv	a1,s5
   1b0b0:	8552                	mv	a0,s4
   1b0b2:	47d000ef          	jal	ra,1bd2e <__ssprint_r>
   1b0b6:	fc051063          	bnez	a0,1a876 <_svfprintf_r+0xb92>
   1b0ba:	7792                	ld	a5,288(sp)
   1b0bc:	11812703          	lw	a4,280(sp)
   1b0c0:	835e                	mv	t1,s7
   1b0c2:	b7f1                	j	1b08e <_svfprintf_r+0x13aa>
   1b0c4:	8566                	mv	a0,s9
   1b0c6:	e836                	sd	a3,16(sp)
   1b0c8:	e41a                	sd	t1,8(sp)
   1b0ca:	b0dfe0ef          	jal	ra,19bd6 <strlen>
   1b0ce:	66c2                	ld	a3,16(sp)
   1b0d0:	00050c1b          	sext.w	s8,a0
   1b0d4:	fffc4993          	not	s3,s8
   1b0d8:	0df14783          	lbu	a5,223(sp)
   1b0dc:	43f9d993          	srai	s3,s3,0x3f
   1b0e0:	013c79b3          	and	s3,s8,s3
   1b0e4:	ec36                	sd	a3,24(sp)
   1b0e6:	e802                	sd	zero,16(sp)
   1b0e8:	e882                	sd	zero,80(sp)
   1b0ea:	f082                	sd	zero,96(sp)
   1b0ec:	ec82                	sd	zero,88(sp)
   1b0ee:	6322                	ld	t1,8(sp)
   1b0f0:	2981                	sext.w	s3,s3
   1b0f2:	4e81                	li	t4,0
   1b0f4:	c399                	beqz	a5,1b0fa <_svfprintf_r+0x1416>
   1b0f6:	f05fe06f          	j	19ffa <_svfprintf_r+0x316>
   1b0fa:	d5ffe06f          	j	19e58 <_svfprintf_r+0x174>
   1b0fe:	0017061b          	addiw	a2,a4,1
   1b102:	010c0713          	addi	a4,s8,16
   1b106:	9db6                	add	s11,s11,a3
   1b108:	00dc3423          	sd	a3,8(s8)
   1b10c:	012c3023          	sd	s2,0(s8)
   1b110:	f26e                	sd	s11,288(sp)
   1b112:	10c12c23          	sw	a2,280(sp)
   1b116:	469d                	li	a3,7
   1b118:	dcc6c3e3          	blt	a3,a2,1aede <_svfprintf_r+0x11fa>
   1b11c:	2605                	addiw	a2,a2,1
   1b11e:	01070313          	addi	t1,a4,16
   1b122:	8c3a                	mv	s8,a4
   1b124:	a42ff06f          	j	1a366 <_svfprintf_r+0x682>
   1b128:	2004f793          	andi	a5,s1,512
   1b12c:	10078063          	beqz	a5,1b22c <_svfprintf_r+0x1548>
   1b130:	0ff9f993          	zext.b	s3,s3
   1b134:	ee3fe06f          	j	1a016 <_svfprintf_r+0x332>
   1b138:	20087793          	andi	a5,a6,512
   1b13c:	c3ed                	beqz	a5,1b21e <_svfprintf_r+0x153a>
   1b13e:	0ff9f993          	zext.b	s3,s3
   1b142:	ec3a                	sd	a4,24(sp)
   1b144:	4785                	li	a5,1
   1b146:	eddfe06f          	j	1a022 <_svfprintf_r+0x33e>
   1b14a:	2004f793          	andi	a5,s1,512
   1b14e:	c3f1                	beqz	a5,1b212 <_svfprintf_r+0x152e>
   1b150:	67e2                	ld	a5,24(sp)
   1b152:	00078983          	lb	s3,0(a5)
   1b156:	87ce                	mv	a5,s3
   1b158:	e61fe06f          	j	19fb8 <_svfprintf_r+0x2d4>
   1b15c:	2004f793          	andi	a5,s1,512
   1b160:	c7cd                	beqz	a5,1b20a <_svfprintf_r+0x1526>
   1b162:	0ff9f993          	zext.b	s3,s3
   1b166:	b6a5                	j	1acce <_svfprintf_r+0xfea>
   1b168:	67b2                	ld	a5,264(sp)
   1b16a:	0c07cf63          	bltz	a5,1b248 <_svfprintf_r+0x1564>
   1b16e:	0df14783          	lbu	a5,223(sp)
   1b172:	04700713          	li	a4,71
   1b176:	00003c97          	auipc	s9,0x3
   1b17a:	3aac8c93          	addi	s9,s9,938 # 1e520 <zeroes.4497+0x20>
   1b17e:	ebb75de3          	bge	a4,s11,1b038 <_svfprintf_r+0x1354>
   1b182:	00003c97          	auipc	s9,0x3
   1b186:	3a6c8c93          	addi	s9,s9,934 # 1e528 <zeroes.4497+0x28>
   1b18a:	b57d                	j	1b038 <_svfprintf_r+0x1354>
   1b18c:	0017069b          	addiw	a3,a4,1
   1b190:	97e2                	add	a5,a5,s8
   1b192:	01233023          	sd	s2,0(t1)
   1b196:	01833423          	sd	s8,8(t1)
   1b19a:	f23e                	sd	a5,288(sp)
   1b19c:	10d12c23          	sw	a3,280(sp)
   1b1a0:	471d                	li	a4,7
   1b1a2:	0341                	addi	t1,t1,16
   1b1a4:	88d756e3          	bge	a4,a3,1aa30 <_svfprintf_r+0xd4c>
   1b1a8:	0a10                	addi	a2,sp,272
   1b1aa:	85d6                	mv	a1,s5
   1b1ac:	8552                	mv	a0,s4
   1b1ae:	381000ef          	jal	ra,1bd2e <__ssprint_r>
   1b1b2:	ec051263          	bnez	a0,1a876 <_svfprintf_r+0xb92>
   1b1b6:	7792                	ld	a5,288(sp)
   1b1b8:	835e                	mv	t1,s7
   1b1ba:	b89d                	j	1aa30 <_svfprintf_r+0xd4c>
   1b1bc:	00003c97          	auipc	s9,0x3
   1b1c0:	35cc8c93          	addi	s9,s9,860 # 1e518 <zeroes.4497+0x18>
   1b1c4:	bd95                	j	1b038 <_svfprintf_r+0x1354>
   1b1c6:	0a10                	addi	a2,sp,272
   1b1c8:	85d6                	mv	a1,s5
   1b1ca:	8552                	mv	a0,s4
   1b1cc:	363000ef          	jal	ra,1bd2e <__ssprint_r>
   1b1d0:	ea051363          	bnez	a0,1a876 <_svfprintf_r+0xb92>
   1b1d4:	7792                	ld	a5,288(sp)
   1b1d6:	835e                	mv	t1,s7
   1b1d8:	845ff06f          	j	1aa1c <_svfprintf_r+0xd38>
   1b1dc:	4c19                	li	s8,6
   1b1de:	b661                	j	1ad66 <_svfprintf_r+0x1082>
   1b1e0:	7682                	ld	a3,32(sp)
   1b1e2:	00dc8833          	add	a6,s9,a3
   1b1e6:	40e6873b          	subw	a4,a3,a4
   1b1ea:	41b80ebb          	subw	t4,a6,s11
   1b1ee:	0007069b          	sext.w	a3,a4
   1b1f2:	00ded363          	bge	t4,a3,1b1f8 <_svfprintf_r+0x1514>
   1b1f6:	8776                	mv	a4,t4
   1b1f8:	00070c9b          	sext.w	s9,a4
   1b1fc:	b865                	j	1aab4 <_svfprintf_r+0xdd0>
   1b1fe:	6782                	ld	a5,0(sp)
   1b200:	8ca2                	mv	s9,s0
   1b202:	00f71023          	sh	a5,0(a4)
   1b206:	d35fe06f          	j	19f3a <_svfprintf_r+0x256>
   1b20a:	1982                	slli	s3,s3,0x20
   1b20c:	0209d993          	srli	s3,s3,0x20
   1b210:	bc7d                	j	1acce <_svfprintf_r+0xfea>
   1b212:	67e2                	ld	a5,24(sp)
   1b214:	0007a983          	lw	s3,0(a5)
   1b218:	87ce                	mv	a5,s3
   1b21a:	d9ffe06f          	j	19fb8 <_svfprintf_r+0x2d4>
   1b21e:	1982                	slli	s3,s3,0x20
   1b220:	0209d993          	srli	s3,s3,0x20
   1b224:	ec3a                	sd	a4,24(sp)
   1b226:	4785                	li	a5,1
   1b228:	dfbfe06f          	j	1a022 <_svfprintf_r+0x33e>
   1b22c:	1982                	slli	s3,s3,0x20
   1b22e:	0209d993          	srli	s3,s3,0x20
   1b232:	de5fe06f          	j	1a016 <_svfprintf_r+0x332>
   1b236:	0a10                	addi	a2,sp,272
   1b238:	85d6                	mv	a1,s5
   1b23a:	8552                	mv	a0,s4
   1b23c:	2f3000ef          	jal	ra,1bd2e <__ssprint_r>
   1b240:	010ad783          	lhu	a5,16(s5)
   1b244:	d0bfe06f          	j	19f4e <_svfprintf_r+0x26a>
   1b248:	02d00793          	li	a5,45
   1b24c:	0cf10fa3          	sb	a5,223(sp)
   1b250:	b70d                	j	1b172 <_svfprintf_r+0x148e>
   1b252:	0a10                	addi	a2,sp,272
   1b254:	85d6                	mv	a1,s5
   1b256:	8552                	mv	a0,s4
   1b258:	2d7000ef          	jal	ra,1bd2e <__ssprint_r>
   1b25c:	e0051d63          	bnez	a0,1a876 <_svfprintf_r+0xb92>
   1b260:	562e                	lw	a2,232(sp)
   1b262:	7792                	ld	a5,288(sp)
   1b264:	11812703          	lw	a4,280(sp)
   1b268:	835e                	mv	t1,s7
   1b26a:	d00656e3          	bgez	a2,1af76 <_svfprintf_r+0x1292>
   1b26e:	bd09                	j	1b080 <_svfprintf_r+0x139c>
   1b270:	4e99                	li	t4,6
   1b272:	e7bfe06f          	j	1a0ec <_svfprintf_r+0x408>
   1b276:	7702                	ld	a4,32(sp)
   1b278:	9766                	add	a4,a4,s9
   1b27a:	fdb77263          	bgeu	a4,s11,1aa3e <_svfprintf_r+0xd5a>
   1b27e:	8dba                	mv	s11,a4
   1b280:	fbeff06f          	j	1aa3e <_svfprintf_r+0xd5a>
   1b284:	6766                	ld	a4,88(sp)
   1b286:	57f5                	li	a5,-3
   1b288:	00f74463          	blt	a4,a5,1b290 <_svfprintf_r+0x15ac>
   1b28c:	00eed863          	bge	t4,a4,1b29c <_svfprintf_r+0x15b8>
   1b290:	3df9                	addiw	s11,s11,-2
   1b292:	fdfdf793          	andi	a5,s11,-33
   1b296:	f0be                	sd	a5,96(sp)
   1b298:	f13fe06f          	j	1a1aa <_svfprintf_r+0x4c6>
   1b29c:	7782                	ld	a5,32(sp)
   1b29e:	6766                	ld	a4,88(sp)
   1b2a0:	16f74963          	blt	a4,a5,1b412 <_svfprintf_r+0x172e>
   1b2a4:	67ea                	ld	a5,152(sp)
   1b2a6:	8c3a                	mv	s8,a4
   1b2a8:	8b85                	andi	a5,a5,1
   1b2aa:	c781                	beqz	a5,1b2b2 <_svfprintf_r+0x15ce>
   1b2ac:	77c6                	ld	a5,112(sp)
   1b2ae:	00e78c3b          	addw	s8,a5,a4
   1b2b2:	67ea                	ld	a5,152(sp)
   1b2b4:	4007f793          	andi	a5,a5,1024
   1b2b8:	c781                	beqz	a5,1b2c0 <_svfprintf_r+0x15dc>
   1b2ba:	67e6                	ld	a5,88(sp)
   1b2bc:	48f04c63          	bgtz	a5,1b754 <_svfprintf_r+0x1a70>
   1b2c0:	fffc4993          	not	s3,s8
   1b2c4:	43f9d993          	srai	s3,s3,0x3f
   1b2c8:	013c79b3          	and	s3,s8,s3
   1b2cc:	2981                	sext.w	s3,s3
   1b2ce:	06700d93          	li	s11,103
   1b2d2:	e882                	sd	zero,80(sp)
   1b2d4:	f082                	sd	zero,96(sp)
   1b2d6:	fb7fe06f          	j	1a28c <_svfprintf_r+0x5a8>
   1b2da:	0df14783          	lbu	a5,223(sp)
   1b2de:	4e81                	li	t4,0
   1b2e0:	c399                	beqz	a5,1b2e6 <_svfprintf_r+0x1602>
   1b2e2:	d19fe06f          	j	19ffa <_svfprintf_r+0x316>
   1b2e6:	b73fe06f          	j	19e58 <_svfprintf_r+0x174>
   1b2ea:	0a10                	addi	a2,sp,272
   1b2ec:	85d6                	mv	a1,s5
   1b2ee:	8552                	mv	a0,s4
   1b2f0:	23f000ef          	jal	ra,1bd2e <__ssprint_r>
   1b2f4:	d8051163          	bnez	a0,1a876 <_svfprintf_r+0xb92>
   1b2f8:	77a6                	ld	a5,104(sp)
   1b2fa:	835e                	mv	t1,s7
   1b2fc:	0007c603          	lbu	a2,0(a5)
   1b300:	7792                	ld	a5,288(sp)
   1b302:	9db2                	add	s11,s11,a2
   1b304:	b6b1                	j	1ae50 <_svfprintf_r+0x116c>
   1b306:	02d00793          	li	a5,45
   1b30a:	0cf10fa3          	sb	a5,223(sp)
   1b30e:	bb29                	j	1b028 <_svfprintf_r+0x1344>
   1b310:	0a10                	addi	a2,sp,272
   1b312:	85d6                	mv	a1,s5
   1b314:	8552                	mv	a0,s4
   1b316:	219000ef          	jal	ra,1bd2e <__ssprint_r>
   1b31a:	d4051e63          	bnez	a0,1a876 <_svfprintf_r+0xb92>
   1b31e:	572e                	lw	a4,232(sp)
   1b320:	7792                	ld	a5,288(sp)
   1b322:	835e                	mv	t1,s7
   1b324:	f50ff06f          	j	1aa74 <_svfprintf_r+0xd90>
   1b328:	8776                	mv	a4,t4
   1b32a:	11bc                	addi	a5,sp,232
   1b32c:	0f810893          	addi	a7,sp,248
   1b330:	0ec10813          	addi	a6,sp,236
   1b334:	4689                	li	a3,2
   1b336:	85e2                	mv	a1,s8
   1b338:	864e                	mv	a2,s3
   1b33a:	8552                	mv	a0,s4
   1b33c:	f01a                	sd	t1,32(sp)
   1b33e:	e476                	sd	t4,8(sp)
   1b340:	ec9fb0ef          	jal	ra,17208 <_ldtoa_r>
   1b344:	7706                	ld	a4,96(sp)
   1b346:	04700793          	li	a5,71
   1b34a:	6ea2                	ld	t4,8(sp)
   1b34c:	7302                	ld	t1,32(sp)
   1b34e:	8caa                	mv	s9,a0
   1b350:	02f71d63          	bne	a4,a5,1b38a <_svfprintf_r+0x16a6>
   1b354:	67ea                	ld	a5,152(sp)
   1b356:	8b85                	andi	a5,a5,1
   1b358:	32079d63          	bnez	a5,1b692 <_svfprintf_r+0x19ae>
   1b35c:	04700713          	li	a4,71
   1b360:	77ee                	ld	a5,248(sp)
   1b362:	f0ba                	sd	a4,96(sp)
   1b364:	e21fe06f          	j	1a184 <_svfprintf_r+0x4a0>
   1b368:	8776                	mv	a4,t4
   1b36a:	0f810893          	addi	a7,sp,248
   1b36e:	0ec10813          	addi	a6,sp,236
   1b372:	11bc                	addi	a5,sp,232
   1b374:	468d                	li	a3,3
   1b376:	85e2                	mv	a1,s8
   1b378:	864e                	mv	a2,s3
   1b37a:	8552                	mv	a0,s4
   1b37c:	f01a                	sd	t1,32(sp)
   1b37e:	e476                	sd	t4,8(sp)
   1b380:	e89fb0ef          	jal	ra,17208 <_ldtoa_r>
   1b384:	6ea2                	ld	t4,8(sp)
   1b386:	7302                	ld	t1,32(sp)
   1b388:	8caa                	mv	s9,a0
   1b38a:	7706                	ld	a4,96(sp)
   1b38c:	04600793          	li	a5,70
   1b390:	01dc88b3          	add	a7,s9,t4
   1b394:	00f70463          	beq	a4,a5,1b39c <_svfprintf_r+0x16b8>
   1b398:	db7fe06f          	j	1a14e <_svfprintf_r+0x46a>
   1b39c:	000cc703          	lbu	a4,0(s9)
   1b3a0:	03000793          	li	a5,48
   1b3a4:	00f70663          	beq	a4,a5,1b3b0 <_svfprintf_r+0x16cc>
   1b3a8:	572e                	lw	a4,232(sp)
   1b3aa:	98ba                	add	a7,a7,a4
   1b3ac:	da3fe06f          	j	1a14e <_svfprintf_r+0x46a>
   1b3b0:	4601                	li	a2,0
   1b3b2:	4681                	li	a3,0
   1b3b4:	8562                	mv	a0,s8
   1b3b6:	85ce                	mv	a1,s3
   1b3b8:	f846                	sd	a7,48(sp)
   1b3ba:	f01a                	sd	t1,32(sp)
   1b3bc:	e476                	sd	t4,8(sp)
   1b3be:	027010ef          	jal	ra,1cbe4 <__eqtf2>
   1b3c2:	6ea2                	ld	t4,8(sp)
   1b3c4:	7302                	ld	t1,32(sp)
   1b3c6:	78c2                	ld	a7,48(sp)
   1b3c8:	d165                	beqz	a0,1b3a8 <_svfprintf_r+0x16c4>
   1b3ca:	4785                	li	a5,1
   1b3cc:	41d7873b          	subw	a4,a5,t4
   1b3d0:	d5ba                	sw	a4,232(sp)
   1b3d2:	98ba                	add	a7,a7,a4
   1b3d4:	d7bfe06f          	j	1a14e <_svfprintf_r+0x46a>
   1b3d8:	0df14783          	lbu	a5,223(sp)
   1b3dc:	ec36                	sd	a3,24(sp)
   1b3de:	e882                	sd	zero,80(sp)
   1b3e0:	f082                	sd	zero,96(sp)
   1b3e2:	ec82                	sd	zero,88(sp)
   1b3e4:	89f6                	mv	s3,t4
   1b3e6:	8c76                	mv	s8,t4
   1b3e8:	4e81                	li	t4,0
   1b3ea:	c399                	beqz	a5,1b3f0 <_svfprintf_r+0x170c>
   1b3ec:	c0ffe06f          	j	19ffa <_svfprintf_r+0x316>
   1b3f0:	a69fe06f          	j	19e58 <_svfprintf_r+0x174>
   1b3f4:	0a10                	addi	a2,sp,272
   1b3f6:	85d6                	mv	a1,s5
   1b3f8:	8552                	mv	a0,s4
   1b3fa:	135000ef          	jal	ra,1bd2e <__ssprint_r>
   1b3fe:	c6051c63          	bnez	a0,1a876 <_svfprintf_r+0xb92>
   1b402:	56ae                	lw	a3,232(sp)
   1b404:	7702                	ld	a4,32(sp)
   1b406:	7792                	ld	a5,288(sp)
   1b408:	835e                	mv	t1,s7
   1b40a:	40d706bb          	subw	a3,a4,a3
   1b40e:	ea6ff06f          	j	1aab4 <_svfprintf_r+0xdd0>
   1b412:	7702                	ld	a4,32(sp)
   1b414:	77c6                	ld	a5,112(sp)
   1b416:	06700d93          	li	s11,103
   1b41a:	00e78c3b          	addw	s8,a5,a4
   1b41e:	6766                	ld	a4,88(sp)
   1b420:	40e05463          	blez	a4,1b828 <_svfprintf_r+0x1b44>
   1b424:	67ea                	ld	a5,152(sp)
   1b426:	4007f793          	andi	a5,a5,1024
   1b42a:	32079763          	bnez	a5,1b758 <_svfprintf_r+0x1a74>
   1b42e:	fffc4993          	not	s3,s8
   1b432:	43f9d993          	srai	s3,s3,0x3f
   1b436:	013c79b3          	and	s3,s8,s3
   1b43a:	2981                	sext.w	s3,s3
   1b43c:	bd59                	j	1b2d2 <_svfprintf_r+0x15ee>
   1b43e:	67ea                	ld	a5,152(sp)
   1b440:	6766                	ld	a4,88(sp)
   1b442:	8b85                	andi	a5,a5,1
   1b444:	00fee7b3          	or	a5,t4,a5
   1b448:	40e05563          	blez	a4,1b852 <_svfprintf_r+0x1b6e>
   1b44c:	3c079663          	bnez	a5,1b818 <_svfprintf_r+0x1b34>
   1b450:	6c66                	ld	s8,88(sp)
   1b452:	06600d93          	li	s11,102
   1b456:	b7f9                	j	1b424 <_svfprintf_r+0x1740>
   1b458:	03000793          	li	a5,48
   1b45c:	0ef10023          	sb	a5,224(sp)
   1b460:	05800713          	li	a4,88
   1b464:	0024e793          	ori	a5,s1,2
   1b468:	2781                	sext.w	a5,a5
   1b46a:	0ee100a3          	sb	a4,225(sp)
   1b46e:	ed3e                	sd	a5,152(sp)
   1b470:	06300713          	li	a4,99
   1b474:	e802                	sd	zero,16(sp)
   1b476:	12810c93          	addi	s9,sp,296
   1b47a:	1fd74463          	blt	a4,t4,1b662 <_svfprintf_r+0x197e>
   1b47e:	69b2                	ld	s3,264(sp)
   1b480:	fdfdf713          	andi	a4,s11,-33
   1b484:	1024e493          	ori	s1,s1,258
   1b488:	f0ba                	sd	a4,96(sp)
   1b48a:	e582                	sd	zero,200(sp)
   1b48c:	6c12                	ld	s8,256(sp)
   1b48e:	2481                	sext.w	s1,s1
   1b490:	1609ca63          	bltz	s3,1b604 <_svfprintf_r+0x1920>
   1b494:	06100793          	li	a5,97
   1b498:	32fd8a63          	beq	s11,a5,1b7cc <_svfprintf_r+0x1ae8>
   1b49c:	04100793          	li	a5,65
   1b4a0:	00fd8463          	beq	s11,a5,1b4a8 <_svfprintf_r+0x17c4>
   1b4a4:	c63fe06f          	j	1a106 <_svfprintf_r+0x422>
   1b4a8:	85ce                	mv	a1,s3
   1b4aa:	8562                	mv	a0,s8
   1b4ac:	fc1a                	sd	t1,56(sp)
   1b4ae:	f876                	sd	t4,48(sp)
   1b4b0:	0d9020ef          	jal	ra,1dd88 <__trunctfdf2>
   1b4b4:	11a8                	addi	a0,sp,232
   1b4b6:	98afe0ef          	jal	ra,19640 <frexp>
   1b4ba:	00f020ef          	jal	ra,1dcc8 <__extenddftf2>
   1b4be:	00003797          	auipc	a5,0x3
   1b4c2:	23278793          	addi	a5,a5,562 # 1e6f0 <zeroes.4521+0x38>
   1b4c6:	6390                	ld	a2,0(a5)
   1b4c8:	6794                	ld	a3,8(a5)
   1b4ca:	0ff010ef          	jal	ra,1cdc8 <__multf3>
   1b4ce:	4601                	li	a2,0
   1b4d0:	4681                	li	a3,0
   1b4d2:	f02a                	sd	a0,32(sp)
   1b4d4:	e42e                	sd	a1,8(sp)
   1b4d6:	70e010ef          	jal	ra,1cbe4 <__eqtf2>
   1b4da:	62a2                	ld	t0,8(sp)
   1b4dc:	7702                	ld	a4,32(sp)
   1b4de:	7ec2                	ld	t4,48(sp)
   1b4e0:	7362                	ld	t1,56(sp)
   1b4e2:	e119                	bnez	a0,1b4e8 <_svfprintf_r+0x1804>
   1b4e4:	4785                	li	a5,1
   1b4e6:	d5be                	sw	a5,232(sp)
   1b4e8:	00003797          	auipc	a5,0x3
   1b4ec:	e6078793          	addi	a5,a5,-416 # 1e348 <__func__.4057+0x2a8>
   1b4f0:	e8be                	sd	a5,80(sp)
   1b4f2:	020e9793          	slli	a5,t4,0x20
   1b4f6:	00003697          	auipc	a3,0x3
   1b4fa:	1da68693          	addi	a3,a3,474 # 1e6d0 <zeroes.4521+0x18>
   1b4fe:	9381                	srli	a5,a5,0x20
   1b500:	6290                	ld	a2,0(a3)
   1b502:	0785                	addi	a5,a5,1
   1b504:	6694                	ld	a3,8(a3)
   1b506:	97e6                	add	a5,a5,s9
   1b508:	f13e                	sd	a5,160(sp)
   1b50a:	01dc87bb          	addw	a5,s9,t4
   1b50e:	fd32                	sd	a2,184(sp)
   1b510:	e1b6                	sd	a3,192(sp)
   1b512:	8c66                	mv	s8,s9
   1b514:	db3e                	sw	a5,180(sp)
   1b516:	a831                	j	1b532 <_svfprintf_r+0x184e>
   1b518:	4601                	li	a2,0
   1b51a:	4681                	li	a3,0
   1b51c:	e4ae                	sd	a1,72(sp)
   1b51e:	e0aa                	sd	a0,64(sp)
   1b520:	6c4010ef          	jal	ra,1cbe4 <__eqtf2>
   1b524:	7ec2                	ld	t4,48(sp)
   1b526:	7362                	ld	t1,56(sp)
   1b528:	6f86                	ld	t6,64(sp)
   1b52a:	68a6                	ld	a7,72(sp)
   1b52c:	62a2                	ld	t0,8(sp)
   1b52e:	7702                	ld	a4,32(sp)
   1b530:	c135                	beqz	a0,1b594 <_svfprintf_r+0x18b0>
   1b532:	766a                	ld	a2,184(sp)
   1b534:	668e                	ld	a3,192(sp)
   1b536:	853a                	mv	a0,a4
   1b538:	8596                	mv	a1,t0
   1b53a:	fc1a                	sd	t1,56(sp)
   1b53c:	f876                	sd	t4,48(sp)
   1b53e:	08b010ef          	jal	ra,1cdc8 <__multf3>
   1b542:	e42e                	sd	a1,8(sp)
   1b544:	f02a                	sd	a0,32(sp)
   1b546:	690020ef          	jal	ra,1dbd6 <__fixtfsi>
   1b54a:	0005099b          	sext.w	s3,a0
   1b54e:	854e                	mv	a0,s3
   1b550:	71c020ef          	jal	ra,1dc6c <__floatsitf>
   1b554:	7882                	ld	a7,32(sp)
   1b556:	6722                	ld	a4,8(sp)
   1b558:	862a                	mv	a2,a0
   1b55a:	86ae                	mv	a3,a1
   1b55c:	8546                	mv	a0,a7
   1b55e:	85ba                	mv	a1,a4
   1b560:	67b010ef          	jal	ra,1d3da <__subtf3>
   1b564:	67c6                	ld	a5,80(sp)
   1b566:	f562                	sd	s8,168(sp)
   1b568:	0c05                	addi	s8,s8,1
   1b56a:	01378733          	add	a4,a5,s3
   1b56e:	57da                	lw	a5,180(sp)
   1b570:	00074703          	lbu	a4,0(a4)
   1b574:	f02a                	sd	a0,32(sp)
   1b576:	418787bb          	subw	a5,a5,s8
   1b57a:	ecbe                	sd	a5,88(sp)
   1b57c:	778a                	ld	a5,160(sp)
   1b57e:	feec0fa3          	sb	a4,-1(s8)
   1b582:	e42e                	sd	a1,8(sp)
   1b584:	7ec2                	ld	t4,48(sp)
   1b586:	7362                	ld	t1,56(sp)
   1b588:	8faa                	mv	t6,a0
   1b58a:	88ae                	mv	a7,a1
   1b58c:	f98796e3          	bne	a5,s8,1b518 <_svfprintf_r+0x1834>
   1b590:	57fd                	li	a5,-1
   1b592:	ecbe                	sd	a5,88(sp)
   1b594:	00003717          	auipc	a4,0x3
   1b598:	14c70713          	addi	a4,a4,332 # 1e6e0 <zeroes.4521+0x28>
   1b59c:	6310                	ld	a2,0(a4)
   1b59e:	6714                	ld	a3,8(a4)
   1b5a0:	857e                	mv	a0,t6
   1b5a2:	85c6                	mv	a1,a7
   1b5a4:	f01a                	sd	t1,32(sp)
   1b5a6:	e476                	sd	t4,8(sp)
   1b5a8:	e4fe                	sd	t6,72(sp)
   1b5aa:	e0b2                	sd	a2,64(sp)
   1b5ac:	fc36                	sd	a3,56(sp)
   1b5ae:	f846                	sd	a7,48(sp)
   1b5b0:	6c8010ef          	jal	ra,1cc78 <__getf2>
   1b5b4:	6ea2                	ld	t4,8(sp)
   1b5b6:	7302                	ld	t1,32(sp)
   1b5b8:	04a04e63          	bgtz	a0,1b614 <_svfprintf_r+0x1930>
   1b5bc:	6fa6                	ld	t6,72(sp)
   1b5be:	78c2                	ld	a7,48(sp)
   1b5c0:	6606                	ld	a2,64(sp)
   1b5c2:	76e2                	ld	a3,56(sp)
   1b5c4:	857e                	mv	a0,t6
   1b5c6:	85c6                	mv	a1,a7
   1b5c8:	61c010ef          	jal	ra,1cbe4 <__eqtf2>
   1b5cc:	6ea2                	ld	t4,8(sp)
   1b5ce:	7302                	ld	t1,32(sp)
   1b5d0:	e509                	bnez	a0,1b5da <_svfprintf_r+0x18f6>
   1b5d2:	0019f993          	andi	s3,s3,1
   1b5d6:	02099f63          	bnez	s3,1b614 <_svfprintf_r+0x1930>
   1b5da:	67e6                	ld	a5,88(sp)
   1b5dc:	03000693          	li	a3,48
   1b5e0:	00178713          	addi	a4,a5,1
   1b5e4:	9762                	add	a4,a4,s8
   1b5e6:	0007c763          	bltz	a5,1b5f4 <_svfprintf_r+0x1910>
   1b5ea:	0c05                	addi	s8,s8,1
   1b5ec:	fedc0fa3          	sb	a3,-1(s8)
   1b5f0:	ff871de3          	bne	a4,s8,1b5ea <_svfprintf_r+0x1906>
   1b5f4:	419c07bb          	subw	a5,s8,s9
   1b5f8:	f03e                	sd	a5,32(sp)
   1b5fa:	b91fe06f          	j	1a18a <_svfprintf_r+0x4a6>
   1b5fe:	ed26                	sd	s1,152(sp)
   1b600:	e802                	sd	zero,16(sp)
   1b602:	84fe                	mv	s1,t6
   1b604:	57fd                	li	a5,-1
   1b606:	17fe                	slli	a5,a5,0x3f
   1b608:	00f9c9b3          	xor	s3,s3,a5
   1b60c:	02d00793          	li	a5,45
   1b610:	e5be                	sd	a5,200(sp)
   1b612:	b549                	j	1b494 <_svfprintf_r+0x17b0>
   1b614:	77aa                	ld	a5,168(sp)
   1b616:	8762                	mv	a4,s8
   1b618:	fdbe                	sd	a5,248(sp)
   1b61a:	67c6                	ld	a5,80(sp)
   1b61c:	fffc4683          	lbu	a3,-1(s8)
   1b620:	00f7c603          	lbu	a2,15(a5)
   1b624:	00d61e63          	bne	a2,a3,1b640 <_svfprintf_r+0x195c>
   1b628:	03000593          	li	a1,48
   1b62c:	feb70fa3          	sb	a1,-1(a4)
   1b630:	776e                	ld	a4,248(sp)
   1b632:	fff70693          	addi	a3,a4,-1
   1b636:	fdb6                	sd	a3,248(sp)
   1b638:	fff74683          	lbu	a3,-1(a4)
   1b63c:	fed608e3          	beq	a2,a3,1b62c <_svfprintf_r+0x1948>
   1b640:	0016861b          	addiw	a2,a3,1
   1b644:	03900593          	li	a1,57
   1b648:	0ff67613          	zext.b	a2,a2
   1b64c:	00b68563          	beq	a3,a1,1b656 <_svfprintf_r+0x1972>
   1b650:	fec70fa3          	sb	a2,-1(a4)
   1b654:	b745                	j	1b5f4 <_svfprintf_r+0x1910>
   1b656:	67c6                	ld	a5,80(sp)
   1b658:	00a7c603          	lbu	a2,10(a5)
   1b65c:	fec70fa3          	sb	a2,-1(a4)
   1b660:	bf51                	j	1b5f4 <_svfprintf_r+0x1910>
   1b662:	001e859b          	addiw	a1,t4,1
   1b666:	8552                	mv	a0,s4
   1b668:	e81a                	sd	t1,16(sp)
   1b66a:	e476                	sd	t4,8(sp)
   1b66c:	8edf60ef          	jal	ra,11f58 <_malloc_r>
   1b670:	6ea2                	ld	t4,8(sp)
   1b672:	6342                	ld	t1,16(sp)
   1b674:	8caa                	mv	s9,a0
   1b676:	24050063          	beqz	a0,1b8b6 <_svfprintf_r+0x1bd2>
   1b67a:	e82a                	sd	a0,16(sp)
   1b67c:	b509                	j	1b47e <_svfprintf_r+0x179a>
   1b67e:	8826                	mv	a6,s1
   1b680:	a16ff06f          	j	1a896 <_svfprintf_r+0xbb2>
   1b684:	03000793          	li	a5,48
   1b688:	0ef10023          	sb	a5,224(sp)
   1b68c:	07800713          	li	a4,120
   1b690:	bbd1                	j	1b464 <_svfprintf_r+0x1780>
   1b692:	04700793          	li	a5,71
   1b696:	01dc88b3          	add	a7,s9,t4
   1b69a:	f0be                	sd	a5,96(sp)
   1b69c:	ab3fe06f          	j	1a14e <_svfprintf_r+0x46a>
   1b6a0:	2705                	addiw	a4,a4,1
   1b6a2:	97e2                	add	a5,a5,s8
   1b6a4:	01233023          	sd	s2,0(t1)
   1b6a8:	01833423          	sd	s8,8(t1)
   1b6ac:	f23e                	sd	a5,288(sp)
   1b6ae:	10e12c23          	sw	a4,280(sp)
   1b6b2:	469d                	li	a3,7
   1b6b4:	8ce6d0e3          	bge	a3,a4,1af74 <_svfprintf_r+0x1290>
   1b6b8:	0a10                	addi	a2,sp,272
   1b6ba:	85d6                	mv	a1,s5
   1b6bc:	8552                	mv	a0,s4
   1b6be:	670000ef          	jal	ra,1bd2e <__ssprint_r>
   1b6c2:	9a051a63          	bnez	a0,1a876 <_svfprintf_r+0xb92>
   1b6c6:	7792                	ld	a5,288(sp)
   1b6c8:	11812703          	lw	a4,280(sp)
   1b6cc:	835e                	mv	t1,s7
   1b6ce:	b065                	j	1af76 <_svfprintf_r+0x1292>
   1b6d0:	c31c                	sw	a5,0(a4)
   1b6d2:	8ca2                	mv	s9,s0
   1b6d4:	867fe06f          	j	19f3a <_svfprintf_r+0x256>
   1b6d8:	57fd                	li	a5,-1
   1b6da:	e03e                	sd	a5,0(sp)
   1b6dc:	87dfe06f          	j	19f58 <_svfprintf_r+0x274>
   1b6e0:	000e9363          	bnez	t4,1b6e6 <_svfprintf_r+0x1a02>
   1b6e4:	4e85                	li	t4,1
   1b6e6:	69b2                	ld	s3,264(sp)
   1b6e8:	1004ef93          	ori	t6,s1,256
   1b6ec:	6c12                	ld	s8,256(sp)
   1b6ee:	2f81                	sext.w	t6,t6
   1b6f0:	f009c7e3          	bltz	s3,1b5fe <_svfprintf_r+0x191a>
   1b6f4:	8776                	mv	a4,t4
   1b6f6:	0f810893          	addi	a7,sp,248
   1b6fa:	0ec10813          	addi	a6,sp,236
   1b6fe:	11bc                	addi	a5,sp,232
   1b700:	4689                	li	a3,2
   1b702:	85e2                	mv	a1,s8
   1b704:	864e                	mv	a2,s3
   1b706:	8552                	mv	a0,s4
   1b708:	e87e                	sd	t6,16(sp)
   1b70a:	f01a                	sd	t1,32(sp)
   1b70c:	e476                	sd	t4,8(sp)
   1b70e:	afbfb0ef          	jal	ra,17208 <_ldtoa_r>
   1b712:	6fc2                	ld	t6,16(sp)
   1b714:	ed26                	sd	s1,152(sp)
   1b716:	6ea2                	ld	t4,8(sp)
   1b718:	7302                	ld	t1,32(sp)
   1b71a:	8caa                	mv	s9,a0
   1b71c:	84fe                	mv	s1,t6
   1b71e:	e802                	sd	zero,16(sp)
   1b720:	e582                	sd	zero,200(sp)
   1b722:	b90d                	j	1b354 <_svfprintf_r+0x1670>
   1b724:	0f210713          	addi	a4,sp,242
   1b728:	e699                	bnez	a3,1b736 <_svfprintf_r+0x1a52>
   1b72a:	03000713          	li	a4,48
   1b72e:	0ee10923          	sb	a4,242(sp)
   1b732:	0f310713          	addi	a4,sp,243
   1b736:	0c14                	addi	a3,sp,528
   1b738:	0307879b          	addiw	a5,a5,48
   1b73c:	40d706b3          	sub	a3,a4,a3
   1b740:	00f70023          	sb	a5,0(a4)
   1b744:	1216879b          	addiw	a5,a3,289
   1b748:	e13e                	sd	a5,128(sp)
   1b74a:	b09fe06f          	j	1a252 <_svfprintf_r+0x56e>
   1b74e:	e802                	sd	zero,16(sp)
   1b750:	84be                	mv	s1,a5
   1b752:	bd4d                	j	1b604 <_svfprintf_r+0x1920>
   1b754:	06700d93          	li	s11,103
   1b758:	77a6                	ld	a5,104(sp)
   1b75a:	0ff00713          	li	a4,255
   1b75e:	e882                	sd	zero,80(sp)
   1b760:	0007c783          	lbu	a5,0(a5)
   1b764:	f082                	sd	zero,96(sp)
   1b766:	02e78863          	beq	a5,a4,1b796 <_svfprintf_r+0x1ab2>
   1b76a:	0ff00693          	li	a3,255
   1b76e:	6666                	ld	a2,88(sp)
   1b770:	0007871b          	sext.w	a4,a5
   1b774:	02c7d163          	bge	a5,a2,1b796 <_svfprintf_r+0x1ab2>
   1b778:	75a6                	ld	a1,104(sp)
   1b77a:	40e6073b          	subw	a4,a2,a4
   1b77e:	ecba                	sd	a4,88(sp)
   1b780:	0015c783          	lbu	a5,1(a1)
   1b784:	cf8d                	beqz	a5,1b7be <_svfprintf_r+0x1ada>
   1b786:	7706                	ld	a4,96(sp)
   1b788:	2705                	addiw	a4,a4,1
   1b78a:	f0ba                	sd	a4,96(sp)
   1b78c:	00158713          	addi	a4,a1,1
   1b790:	f4ba                	sd	a4,104(sp)
   1b792:	fcd79ee3          	bne	a5,a3,1b76e <_svfprintf_r+0x1a8a>
   1b796:	7706                	ld	a4,96(sp)
   1b798:	67c6                	ld	a5,80(sp)
   1b79a:	9fb9                	addw	a5,a5,a4
   1b79c:	672a                	ld	a4,136(sp)
   1b79e:	02e787bb          	mulw	a5,a5,a4
   1b7a2:	018787bb          	addw	a5,a5,s8
   1b7a6:	00078c1b          	sext.w	s8,a5
   1b7aa:	fffc4993          	not	s3,s8
   1b7ae:	43f9d993          	srai	s3,s3,0x3f
   1b7b2:	0137f7b3          	and	a5,a5,s3
   1b7b6:	0007899b          	sext.w	s3,a5
   1b7ba:	ad3fe06f          	j	1a28c <_svfprintf_r+0x5a8>
   1b7be:	6746                	ld	a4,80(sp)
   1b7c0:	77a6                	ld	a5,104(sp)
   1b7c2:	2705                	addiw	a4,a4,1
   1b7c4:	0007c783          	lbu	a5,0(a5)
   1b7c8:	e8ba                	sd	a4,80(sp)
   1b7ca:	b7e1                	j	1b792 <_svfprintf_r+0x1aae>
   1b7cc:	85ce                	mv	a1,s3
   1b7ce:	8562                	mv	a0,s8
   1b7d0:	fc1a                	sd	t1,56(sp)
   1b7d2:	f876                	sd	t4,48(sp)
   1b7d4:	5b4020ef          	jal	ra,1dd88 <__trunctfdf2>
   1b7d8:	11a8                	addi	a0,sp,232
   1b7da:	e67fd0ef          	jal	ra,19640 <frexp>
   1b7de:	4ea020ef          	jal	ra,1dcc8 <__extenddftf2>
   1b7e2:	00003797          	auipc	a5,0x3
   1b7e6:	f0e78793          	addi	a5,a5,-242 # 1e6f0 <zeroes.4521+0x38>
   1b7ea:	6390                	ld	a2,0(a5)
   1b7ec:	6794                	ld	a3,8(a5)
   1b7ee:	5da010ef          	jal	ra,1cdc8 <__multf3>
   1b7f2:	4601                	li	a2,0
   1b7f4:	4681                	li	a3,0
   1b7f6:	f02a                	sd	a0,32(sp)
   1b7f8:	e42e                	sd	a1,8(sp)
   1b7fa:	3ea010ef          	jal	ra,1cbe4 <__eqtf2>
   1b7fe:	62a2                	ld	t0,8(sp)
   1b800:	7702                	ld	a4,32(sp)
   1b802:	7ec2                	ld	t4,48(sp)
   1b804:	7362                	ld	t1,56(sp)
   1b806:	e119                	bnez	a0,1b80c <_svfprintf_r+0x1b28>
   1b808:	4785                	li	a5,1
   1b80a:	d5be                	sw	a5,232(sp)
   1b80c:	00003797          	auipc	a5,0x3
   1b810:	b5478793          	addi	a5,a5,-1196 # 1e360 <__func__.4057+0x2c0>
   1b814:	e8be                	sd	a5,80(sp)
   1b816:	b9f1                	j	1b4f2 <_svfprintf_r+0x180e>
   1b818:	77c6                	ld	a5,112(sp)
   1b81a:	06600d93          	li	s11,102
   1b81e:	00e78c3b          	addw	s8,a5,a4
   1b822:	01dc0c3b          	addw	s8,s8,t4
   1b826:	befd                	j	1b424 <_svfprintf_r+0x1740>
   1b828:	40ec07bb          	subw	a5,s8,a4
   1b82c:	2785                	addiw	a5,a5,1
   1b82e:	00078c1b          	sext.w	s8,a5
   1b832:	fffc4993          	not	s3,s8
   1b836:	43f9d993          	srai	s3,s3,0x3f
   1b83a:	0137f7b3          	and	a5,a5,s3
   1b83e:	0007899b          	sext.w	s3,a5
   1b842:	bc41                	j	1b2d2 <_svfprintf_r+0x15ee>
   1b844:	676a                	ld	a4,152(sp)
   1b846:	8b05                	andi	a4,a4,1
   1b848:	e319                	bnez	a4,1b84e <_svfprintf_r+0x1b6a>
   1b84a:	a23fe06f          	j	1a26c <_svfprintf_r+0x588>
   1b84e:	a19fe06f          	j	1a266 <_svfprintf_r+0x582>
   1b852:	e791                	bnez	a5,1b85e <_svfprintf_r+0x1b7a>
   1b854:	4985                	li	s3,1
   1b856:	06600d93          	li	s11,102
   1b85a:	4c05                	li	s8,1
   1b85c:	bc9d                	j	1b2d2 <_svfprintf_r+0x15ee>
   1b85e:	77c6                	ld	a5,112(sp)
   1b860:	06600d93          	li	s11,102
   1b864:	2785                	addiw	a5,a5,1
   1b866:	01d78ebb          	addw	t4,a5,t4
   1b86a:	000e8c1b          	sext.w	s8,t4
   1b86e:	fffc4993          	not	s3,s8
   1b872:	43f9d993          	srai	s3,s3,0x3f
   1b876:	013efeb3          	and	t4,t4,s3
   1b87a:	000e899b          	sext.w	s3,t4
   1b87e:	bc91                	j	1b2d2 <_svfprintf_r+0x15ee>
   1b880:	871a                	mv	a4,t1
   1b882:	b051                	j	1b106 <_svfprintf_r+0x1422>
   1b884:	66e2                	ld	a3,24(sp)
   1b886:	4298                	lw	a4,0(a3)
   1b888:	06a1                	addi	a3,a3,8
   1b88a:	00070e9b          	sext.w	t4,a4
   1b88e:	00075363          	bgez	a4,1b894 <_svfprintf_r+0x1bb0>
   1b892:	5efd                	li	t4,-1
   1b894:	00144f03          	lbu	t5,1(s0)
   1b898:	ec36                	sd	a3,24(sp)
   1b89a:	843e                	mv	s0,a5
   1b89c:	d40fe06f          	j	19ddc <_svfprintf_r+0xf8>
   1b8a0:	47b1                	li	a5,12
   1b8a2:	00fa2023          	sw	a5,0(s4)
   1b8a6:	57fd                	li	a5,-1
   1b8a8:	e03e                	sd	a5,0(sp)
   1b8aa:	eaefe06f          	j	19f58 <_svfprintf_r+0x274>
   1b8ae:	4789                	li	a5,2
   1b8b0:	e13e                	sd	a5,128(sp)
   1b8b2:	9a1fe06f          	j	1a252 <_svfprintf_r+0x56e>
   1b8b6:	010ad783          	lhu	a5,16(s5)
   1b8ba:	0407e713          	ori	a4,a5,64
   1b8be:	87ba                	mv	a5,a4
   1b8c0:	00ea9823          	sh	a4,16(s5)
   1b8c4:	e8afe06f          	j	19f4e <_svfprintf_r+0x26a>

000000000001b8c8 <__swbuf_r>:
   1b8c8:	7179                	addi	sp,sp,-48
   1b8ca:	f022                	sd	s0,32(sp)
   1b8cc:	ec26                	sd	s1,24(sp)
   1b8ce:	e84a                	sd	s2,16(sp)
   1b8d0:	f406                	sd	ra,40(sp)
   1b8d2:	e44e                	sd	s3,8(sp)
   1b8d4:	892a                	mv	s2,a0
   1b8d6:	84ae                	mv	s1,a1
   1b8d8:	8432                	mv	s0,a2
   1b8da:	c119                	beqz	a0,1b8e0 <__swbuf_r+0x18>
   1b8dc:	493c                	lw	a5,80(a0)
   1b8de:	c3ed                	beqz	a5,1b9c0 <__swbuf_r+0xf8>
   1b8e0:	01041703          	lh	a4,16(s0)
   1b8e4:	5414                	lw	a3,40(s0)
   1b8e6:	00877793          	andi	a5,a4,8
   1b8ea:	c454                	sw	a3,12(s0)
   1b8ec:	03071693          	slli	a3,a4,0x30
   1b8f0:	92c1                	srli	a3,a3,0x30
   1b8f2:	cbb9                	beqz	a5,1b948 <__swbuf_r+0x80>
   1b8f4:	6c1c                	ld	a5,24(s0)
   1b8f6:	cba9                	beqz	a5,1b948 <__swbuf_r+0x80>
   1b8f8:	0ff4f993          	zext.b	s3,s1
   1b8fc:	03269613          	slli	a2,a3,0x32
   1b900:	84ce                	mv	s1,s3
   1b902:	06065563          	bgez	a2,1b96c <__swbuf_r+0xa4>
   1b906:	6018                	ld	a4,0(s0)
   1b908:	5014                	lw	a3,32(s0)
   1b90a:	40f707bb          	subw	a5,a4,a5
   1b90e:	08d7d063          	bge	a5,a3,1b98e <__swbuf_r+0xc6>
   1b912:	4454                	lw	a3,12(s0)
   1b914:	00170613          	addi	a2,a4,1
   1b918:	e010                	sd	a2,0(s0)
   1b91a:	36fd                	addiw	a3,a3,-1
   1b91c:	c454                	sw	a3,12(s0)
   1b91e:	01370023          	sb	s3,0(a4)
   1b922:	5018                	lw	a4,32(s0)
   1b924:	2785                	addiw	a5,a5,1
   1b926:	08f70663          	beq	a4,a5,1b9b2 <__swbuf_r+0xea>
   1b92a:	01045783          	lhu	a5,16(s0)
   1b92e:	8b85                	andi	a5,a5,1
   1b930:	c781                	beqz	a5,1b938 <__swbuf_r+0x70>
   1b932:	47a9                	li	a5,10
   1b934:	06f48f63          	beq	s1,a5,1b9b2 <__swbuf_r+0xea>
   1b938:	70a2                	ld	ra,40(sp)
   1b93a:	7402                	ld	s0,32(sp)
   1b93c:	6942                	ld	s2,16(sp)
   1b93e:	69a2                	ld	s3,8(sp)
   1b940:	8526                	mv	a0,s1
   1b942:	64e2                	ld	s1,24(sp)
   1b944:	6145                	addi	sp,sp,48
   1b946:	8082                	ret
   1b948:	85a2                	mv	a1,s0
   1b94a:	854a                	mv	a0,s2
   1b94c:	fc0f90ef          	jal	ra,1510c <__swsetup_r>
   1b950:	e535                	bnez	a0,1b9bc <__swbuf_r+0xf4>
   1b952:	01041703          	lh	a4,16(s0)
   1b956:	0ff4f993          	zext.b	s3,s1
   1b95a:	6c1c                	ld	a5,24(s0)
   1b95c:	03071693          	slli	a3,a4,0x30
   1b960:	92c1                	srli	a3,a3,0x30
   1b962:	03269613          	slli	a2,a3,0x32
   1b966:	84ce                	mv	s1,s3
   1b968:	f8064fe3          	bltz	a2,1b906 <__swbuf_r+0x3e>
   1b96c:	0ac42683          	lw	a3,172(s0)
   1b970:	6609                	lui	a2,0x2
   1b972:	8f51                	or	a4,a4,a2
   1b974:	7679                	lui	a2,0xffffe
   1b976:	167d                	addi	a2,a2,-1
   1b978:	8ef1                	and	a3,a3,a2
   1b97a:	00e41823          	sh	a4,16(s0)
   1b97e:	6018                	ld	a4,0(s0)
   1b980:	0ad42623          	sw	a3,172(s0)
   1b984:	5014                	lw	a3,32(s0)
   1b986:	40f707bb          	subw	a5,a4,a5
   1b98a:	f8d7c4e3          	blt	a5,a3,1b912 <__swbuf_r+0x4a>
   1b98e:	85a2                	mv	a1,s0
   1b990:	854a                	mv	a0,s2
   1b992:	ae1f90ef          	jal	ra,15472 <_fflush_r>
   1b996:	e11d                	bnez	a0,1b9bc <__swbuf_r+0xf4>
   1b998:	6018                	ld	a4,0(s0)
   1b99a:	4454                	lw	a3,12(s0)
   1b99c:	4785                	li	a5,1
   1b99e:	00170613          	addi	a2,a4,1
   1b9a2:	36fd                	addiw	a3,a3,-1
   1b9a4:	e010                	sd	a2,0(s0)
   1b9a6:	c454                	sw	a3,12(s0)
   1b9a8:	01370023          	sb	s3,0(a4)
   1b9ac:	5018                	lw	a4,32(s0)
   1b9ae:	f6f71ee3          	bne	a4,a5,1b92a <__swbuf_r+0x62>
   1b9b2:	85a2                	mv	a1,s0
   1b9b4:	854a                	mv	a0,s2
   1b9b6:	abdf90ef          	jal	ra,15472 <_fflush_r>
   1b9ba:	dd3d                	beqz	a0,1b938 <__swbuf_r+0x70>
   1b9bc:	54fd                	li	s1,-1
   1b9be:	bfad                	j	1b938 <__swbuf_r+0x70>
   1b9c0:	d4bf90ef          	jal	ra,1570a <__sinit>
   1b9c4:	bf31                	j	1b8e0 <__swbuf_r+0x18>

000000000001b9c6 <__swbuf>:
   1b9c6:	862e                	mv	a2,a1
   1b9c8:	85aa                	mv	a1,a0
   1b9ca:	8901b503          	ld	a0,-1904(gp) # 21280 <_impure_ptr>
   1b9ce:	bded                	j	1b8c8 <__swbuf_r>

000000000001b9d0 <_wcrtomb_r>:
   1b9d0:	7179                	addi	sp,sp,-48
   1b9d2:	f022                	sd	s0,32(sp)
   1b9d4:	ec26                	sd	s1,24(sp)
   1b9d6:	f406                	sd	ra,40(sp)
   1b9d8:	842a                	mv	s0,a0
   1b9da:	84b6                	mv	s1,a3
   1b9dc:	00005797          	auipc	a5,0x5
   1b9e0:	74c7b783          	ld	a5,1868(a5) # 21128 <__global_locale+0xe0>
   1b9e4:	c991                	beqz	a1,1b9f8 <_wcrtomb_r+0x28>
   1b9e6:	9782                	jalr	a5
   1b9e8:	57fd                	li	a5,-1
   1b9ea:	00f50d63          	beq	a0,a5,1ba04 <_wcrtomb_r+0x34>
   1b9ee:	70a2                	ld	ra,40(sp)
   1b9f0:	7402                	ld	s0,32(sp)
   1b9f2:	64e2                	ld	s1,24(sp)
   1b9f4:	6145                	addi	sp,sp,48
   1b9f6:	8082                	ret
   1b9f8:	4601                	li	a2,0
   1b9fa:	858a                	mv	a1,sp
   1b9fc:	9782                	jalr	a5
   1b9fe:	57fd                	li	a5,-1
   1ba00:	fef517e3          	bne	a0,a5,1b9ee <_wcrtomb_r+0x1e>
   1ba04:	0004a023          	sw	zero,0(s1)
   1ba08:	08a00793          	li	a5,138
   1ba0c:	70a2                	ld	ra,40(sp)
   1ba0e:	c01c                	sw	a5,0(s0)
   1ba10:	7402                	ld	s0,32(sp)
   1ba12:	64e2                	ld	s1,24(sp)
   1ba14:	6145                	addi	sp,sp,48
   1ba16:	8082                	ret

000000000001ba18 <wcrtomb>:
   1ba18:	7179                	addi	sp,sp,-48
   1ba1a:	f022                	sd	s0,32(sp)
   1ba1c:	ec26                	sd	s1,24(sp)
   1ba1e:	f406                	sd	ra,40(sp)
   1ba20:	8432                	mv	s0,a2
   1ba22:	8901b483          	ld	s1,-1904(gp) # 21280 <_impure_ptr>
   1ba26:	00005797          	auipc	a5,0x5
   1ba2a:	7027b783          	ld	a5,1794(a5) # 21128 <__global_locale+0xe0>
   1ba2e:	cd11                	beqz	a0,1ba4a <wcrtomb+0x32>
   1ba30:	862e                	mv	a2,a1
   1ba32:	86a2                	mv	a3,s0
   1ba34:	85aa                	mv	a1,a0
   1ba36:	8526                	mv	a0,s1
   1ba38:	9782                	jalr	a5
   1ba3a:	57fd                	li	a5,-1
   1ba3c:	00f50f63          	beq	a0,a5,1ba5a <wcrtomb+0x42>
   1ba40:	70a2                	ld	ra,40(sp)
   1ba42:	7402                	ld	s0,32(sp)
   1ba44:	64e2                	ld	s1,24(sp)
   1ba46:	6145                	addi	sp,sp,48
   1ba48:	8082                	ret
   1ba4a:	86b2                	mv	a3,a2
   1ba4c:	858a                	mv	a1,sp
   1ba4e:	4601                	li	a2,0
   1ba50:	8526                	mv	a0,s1
   1ba52:	9782                	jalr	a5
   1ba54:	57fd                	li	a5,-1
   1ba56:	fef515e3          	bne	a0,a5,1ba40 <wcrtomb+0x28>
   1ba5a:	00042023          	sw	zero,0(s0)
   1ba5e:	70a2                	ld	ra,40(sp)
   1ba60:	7402                	ld	s0,32(sp)
   1ba62:	08a00793          	li	a5,138
   1ba66:	c09c                	sw	a5,0(s1)
   1ba68:	64e2                	ld	s1,24(sp)
   1ba6a:	6145                	addi	sp,sp,48
   1ba6c:	8082                	ret

000000000001ba6e <_wctomb_r>:
   1ba6e:	00005317          	auipc	t1,0x5
   1ba72:	6ba33303          	ld	t1,1722(t1) # 21128 <__global_locale+0xe0>
   1ba76:	8302                	jr	t1

000000000001ba78 <__ascii_wctomb>:
   1ba78:	0006079b          	sext.w	a5,a2
   1ba7c:	cd91                	beqz	a1,1ba98 <__ascii_wctomb+0x20>
   1ba7e:	0ff00713          	li	a4,255
   1ba82:	00f76663          	bltu	a4,a5,1ba8e <__ascii_wctomb+0x16>
   1ba86:	00c58023          	sb	a2,0(a1)
   1ba8a:	4505                	li	a0,1
   1ba8c:	8082                	ret
   1ba8e:	08a00793          	li	a5,138
   1ba92:	c11c                	sw	a5,0(a0)
   1ba94:	557d                	li	a0,-1
   1ba96:	8082                	ret
   1ba98:	4501                	li	a0,0
   1ba9a:	8082                	ret

000000000001ba9c <_write_r>:
   1ba9c:	1141                	addi	sp,sp,-16
   1ba9e:	872e                	mv	a4,a1
   1baa0:	e022                	sd	s0,0(sp)
   1baa2:	85b2                	mv	a1,a2
   1baa4:	842a                	mv	s0,a0
   1baa6:	8636                	mv	a2,a3
   1baa8:	853a                	mv	a0,a4
   1baaa:	000fb797          	auipc	a5,0xfb
   1baae:	2607af23          	sw	zero,638(a5) # 116d28 <errno>
   1bab2:	e406                	sd	ra,8(sp)
   1bab4:	09e010ef          	jal	ra,1cb52 <_write>
   1bab8:	57fd                	li	a5,-1
   1baba:	00f50663          	beq	a0,a5,1bac6 <_write_r+0x2a>
   1babe:	60a2                	ld	ra,8(sp)
   1bac0:	6402                	ld	s0,0(sp)
   1bac2:	0141                	addi	sp,sp,16
   1bac4:	8082                	ret
   1bac6:	000fb797          	auipc	a5,0xfb
   1baca:	2627a783          	lw	a5,610(a5) # 116d28 <errno>
   1bace:	dbe5                	beqz	a5,1babe <_write_r+0x22>
   1bad0:	60a2                	ld	ra,8(sp)
   1bad2:	c01c                	sw	a5,0(s0)
   1bad4:	6402                	ld	s0,0(sp)
   1bad6:	0141                	addi	sp,sp,16
   1bad8:	8082                	ret

000000000001bada <__register_exitproc>:
   1bada:	8701b703          	ld	a4,-1936(gp) # 21260 <_global_impure_ptr>
   1bade:	1f873783          	ld	a5,504(a4)
   1bae2:	c3b1                	beqz	a5,1bb26 <__register_exitproc+0x4c>
   1bae4:	4798                	lw	a4,8(a5)
   1bae6:	487d                	li	a6,31
   1bae8:	06e84263          	blt	a6,a4,1bb4c <__register_exitproc+0x72>
   1baec:	c505                	beqz	a0,1bb14 <__register_exitproc+0x3a>
   1baee:	00371813          	slli	a6,a4,0x3
   1baf2:	983e                	add	a6,a6,a5
   1baf4:	10c83823          	sd	a2,272(a6) # 7ff00110 <__BSS_END__+0x7fde93e0>
   1baf8:	3107a883          	lw	a7,784(a5)
   1bafc:	4605                	li	a2,1
   1bafe:	00e6163b          	sllw	a2,a2,a4
   1bb02:	00c8e8b3          	or	a7,a7,a2
   1bb06:	3117a823          	sw	a7,784(a5)
   1bb0a:	20d83823          	sd	a3,528(a6)
   1bb0e:	4689                	li	a3,2
   1bb10:	02d50063          	beq	a0,a3,1bb30 <__register_exitproc+0x56>
   1bb14:	00270693          	addi	a3,a4,2
   1bb18:	068e                	slli	a3,a3,0x3
   1bb1a:	2705                	addiw	a4,a4,1
   1bb1c:	c798                	sw	a4,8(a5)
   1bb1e:	97b6                	add	a5,a5,a3
   1bb20:	e38c                	sd	a1,0(a5)
   1bb22:	4501                	li	a0,0
   1bb24:	8082                	ret
   1bb26:	20070793          	addi	a5,a4,512
   1bb2a:	1ef73c23          	sd	a5,504(a4)
   1bb2e:	bf5d                	j	1bae4 <__register_exitproc+0xa>
   1bb30:	3147a683          	lw	a3,788(a5)
   1bb34:	4501                	li	a0,0
   1bb36:	8e55                	or	a2,a2,a3
   1bb38:	00270693          	addi	a3,a4,2
   1bb3c:	068e                	slli	a3,a3,0x3
   1bb3e:	2705                	addiw	a4,a4,1
   1bb40:	30c7aa23          	sw	a2,788(a5)
   1bb44:	c798                	sw	a4,8(a5)
   1bb46:	97b6                	add	a5,a5,a3
   1bb48:	e38c                	sd	a1,0(a5)
   1bb4a:	8082                	ret
   1bb4c:	557d                	li	a0,-1
   1bb4e:	8082                	ret

000000000001bb50 <_close_r>:
   1bb50:	1141                	addi	sp,sp,-16
   1bb52:	e022                	sd	s0,0(sp)
   1bb54:	842a                	mv	s0,a0
   1bb56:	852e                	mv	a0,a1
   1bb58:	000fb797          	auipc	a5,0xfb
   1bb5c:	1c07a823          	sw	zero,464(a5) # 116d28 <errno>
   1bb60:	e406                	sd	ra,8(sp)
   1bb62:	63b000ef          	jal	ra,1c99c <_close>
   1bb66:	57fd                	li	a5,-1
   1bb68:	00f50663          	beq	a0,a5,1bb74 <_close_r+0x24>
   1bb6c:	60a2                	ld	ra,8(sp)
   1bb6e:	6402                	ld	s0,0(sp)
   1bb70:	0141                	addi	sp,sp,16
   1bb72:	8082                	ret
   1bb74:	000fb797          	auipc	a5,0xfb
   1bb78:	1b47a783          	lw	a5,436(a5) # 116d28 <errno>
   1bb7c:	dbe5                	beqz	a5,1bb6c <_close_r+0x1c>
   1bb7e:	60a2                	ld	ra,8(sp)
   1bb80:	c01c                	sw	a5,0(s0)
   1bb82:	6402                	ld	s0,0(sp)
   1bb84:	0141                	addi	sp,sp,16
   1bb86:	8082                	ret

000000000001bb88 <_fclose_r>:
   1bb88:	1101                	addi	sp,sp,-32
   1bb8a:	ec06                	sd	ra,24(sp)
   1bb8c:	e822                	sd	s0,16(sp)
   1bb8e:	e426                	sd	s1,8(sp)
   1bb90:	e04a                	sd	s2,0(sp)
   1bb92:	c989                	beqz	a1,1bba4 <_fclose_r+0x1c>
   1bb94:	842e                	mv	s0,a1
   1bb96:	84aa                	mv	s1,a0
   1bb98:	c119                	beqz	a0,1bb9e <_fclose_r+0x16>
   1bb9a:	493c                	lw	a5,80(a0)
   1bb9c:	cfa5                	beqz	a5,1bc14 <_fclose_r+0x8c>
   1bb9e:	01041783          	lh	a5,16(s0)
   1bba2:	eb89                	bnez	a5,1bbb4 <_fclose_r+0x2c>
   1bba4:	60e2                	ld	ra,24(sp)
   1bba6:	6442                	ld	s0,16(sp)
   1bba8:	4901                	li	s2,0
   1bbaa:	64a2                	ld	s1,8(sp)
   1bbac:	854a                	mv	a0,s2
   1bbae:	6902                	ld	s2,0(sp)
   1bbb0:	6105                	addi	sp,sp,32
   1bbb2:	8082                	ret
   1bbb4:	85a2                	mv	a1,s0
   1bbb6:	8526                	mv	a0,s1
   1bbb8:	f20f90ef          	jal	ra,152d8 <__sflush_r>
   1bbbc:	683c                	ld	a5,80(s0)
   1bbbe:	892a                	mv	s2,a0
   1bbc0:	c791                	beqz	a5,1bbcc <_fclose_r+0x44>
   1bbc2:	780c                	ld	a1,48(s0)
   1bbc4:	8526                	mv	a0,s1
   1bbc6:	9782                	jalr	a5
   1bbc8:	04054c63          	bltz	a0,1bc20 <_fclose_r+0x98>
   1bbcc:	01045783          	lhu	a5,16(s0)
   1bbd0:	0807f793          	andi	a5,a5,128
   1bbd4:	efa1                	bnez	a5,1bc2c <_fclose_r+0xa4>
   1bbd6:	6c2c                	ld	a1,88(s0)
   1bbd8:	c991                	beqz	a1,1bbec <_fclose_r+0x64>
   1bbda:	07440793          	addi	a5,s0,116
   1bbde:	00f58563          	beq	a1,a5,1bbe8 <_fclose_r+0x60>
   1bbe2:	8526                	mv	a0,s1
   1bbe4:	da3f90ef          	jal	ra,15986 <_free_r>
   1bbe8:	04043c23          	sd	zero,88(s0)
   1bbec:	7c2c                	ld	a1,120(s0)
   1bbee:	c591                	beqz	a1,1bbfa <_fclose_r+0x72>
   1bbf0:	8526                	mv	a0,s1
   1bbf2:	d95f90ef          	jal	ra,15986 <_free_r>
   1bbf6:	06043c23          	sd	zero,120(s0)
   1bbfa:	b19f90ef          	jal	ra,15712 <__sfp_lock_acquire>
   1bbfe:	00041823          	sh	zero,16(s0)
   1bc02:	b13f90ef          	jal	ra,15714 <__sfp_lock_release>
   1bc06:	60e2                	ld	ra,24(sp)
   1bc08:	6442                	ld	s0,16(sp)
   1bc0a:	64a2                	ld	s1,8(sp)
   1bc0c:	854a                	mv	a0,s2
   1bc0e:	6902                	ld	s2,0(sp)
   1bc10:	6105                	addi	sp,sp,32
   1bc12:	8082                	ret
   1bc14:	af7f90ef          	jal	ra,1570a <__sinit>
   1bc18:	01041783          	lh	a5,16(s0)
   1bc1c:	d7c1                	beqz	a5,1bba4 <_fclose_r+0x1c>
   1bc1e:	bf59                	j	1bbb4 <_fclose_r+0x2c>
   1bc20:	01045783          	lhu	a5,16(s0)
   1bc24:	597d                	li	s2,-1
   1bc26:	0807f793          	andi	a5,a5,128
   1bc2a:	d7d5                	beqz	a5,1bbd6 <_fclose_r+0x4e>
   1bc2c:	6c0c                	ld	a1,24(s0)
   1bc2e:	8526                	mv	a0,s1
   1bc30:	d57f90ef          	jal	ra,15986 <_free_r>
   1bc34:	b74d                	j	1bbd6 <_fclose_r+0x4e>

000000000001bc36 <fclose>:
   1bc36:	85aa                	mv	a1,a0
   1bc38:	8901b503          	ld	a0,-1904(gp) # 21280 <_impure_ptr>
   1bc3c:	b7b1                	j	1bb88 <_fclose_r>

000000000001bc3e <_fstat_r>:
   1bc3e:	1141                	addi	sp,sp,-16
   1bc40:	872e                	mv	a4,a1
   1bc42:	e022                	sd	s0,0(sp)
   1bc44:	85b2                	mv	a1,a2
   1bc46:	842a                	mv	s0,a0
   1bc48:	853a                	mv	a0,a4
   1bc4a:	000fb797          	auipc	a5,0xfb
   1bc4e:	0c07af23          	sw	zero,222(a5) # 116d28 <errno>
   1bc52:	e406                	sd	ra,8(sp)
   1bc54:	5ab000ef          	jal	ra,1c9fe <_fstat>
   1bc58:	57fd                	li	a5,-1
   1bc5a:	00f50663          	beq	a0,a5,1bc66 <_fstat_r+0x28>
   1bc5e:	60a2                	ld	ra,8(sp)
   1bc60:	6402                	ld	s0,0(sp)
   1bc62:	0141                	addi	sp,sp,16
   1bc64:	8082                	ret
   1bc66:	000fb797          	auipc	a5,0xfb
   1bc6a:	0c27a783          	lw	a5,194(a5) # 116d28 <errno>
   1bc6e:	dbe5                	beqz	a5,1bc5e <_fstat_r+0x20>
   1bc70:	60a2                	ld	ra,8(sp)
   1bc72:	c01c                	sw	a5,0(s0)
   1bc74:	6402                	ld	s0,0(sp)
   1bc76:	0141                	addi	sp,sp,16
   1bc78:	8082                	ret

000000000001bc7a <_isatty_r>:
   1bc7a:	1141                	addi	sp,sp,-16
   1bc7c:	e022                	sd	s0,0(sp)
   1bc7e:	842a                	mv	s0,a0
   1bc80:	852e                	mv	a0,a1
   1bc82:	000fb797          	auipc	a5,0xfb
   1bc86:	0a07a323          	sw	zero,166(a5) # 116d28 <errno>
   1bc8a:	e406                	sd	ra,8(sp)
   1bc8c:	5bf000ef          	jal	ra,1ca4a <_isatty>
   1bc90:	57fd                	li	a5,-1
   1bc92:	00f50663          	beq	a0,a5,1bc9e <_isatty_r+0x24>
   1bc96:	60a2                	ld	ra,8(sp)
   1bc98:	6402                	ld	s0,0(sp)
   1bc9a:	0141                	addi	sp,sp,16
   1bc9c:	8082                	ret
   1bc9e:	000fb797          	auipc	a5,0xfb
   1bca2:	08a7a783          	lw	a5,138(a5) # 116d28 <errno>
   1bca6:	dbe5                	beqz	a5,1bc96 <_isatty_r+0x1c>
   1bca8:	60a2                	ld	ra,8(sp)
   1bcaa:	c01c                	sw	a5,0(s0)
   1bcac:	6402                	ld	s0,0(sp)
   1bcae:	0141                	addi	sp,sp,16
   1bcb0:	8082                	ret

000000000001bcb2 <_lseek_r>:
   1bcb2:	1141                	addi	sp,sp,-16
   1bcb4:	872e                	mv	a4,a1
   1bcb6:	e022                	sd	s0,0(sp)
   1bcb8:	85b2                	mv	a1,a2
   1bcba:	842a                	mv	s0,a0
   1bcbc:	8636                	mv	a2,a3
   1bcbe:	853a                	mv	a0,a4
   1bcc0:	000fb797          	auipc	a5,0xfb
   1bcc4:	0607a423          	sw	zero,104(a5) # 116d28 <errno>
   1bcc8:	e406                	sd	ra,8(sp)
   1bcca:	5bb000ef          	jal	ra,1ca84 <_lseek>
   1bcce:	57fd                	li	a5,-1
   1bcd0:	00f50663          	beq	a0,a5,1bcdc <_lseek_r+0x2a>
   1bcd4:	60a2                	ld	ra,8(sp)
   1bcd6:	6402                	ld	s0,0(sp)
   1bcd8:	0141                	addi	sp,sp,16
   1bcda:	8082                	ret
   1bcdc:	000fb797          	auipc	a5,0xfb
   1bce0:	04c7a783          	lw	a5,76(a5) # 116d28 <errno>
   1bce4:	dbe5                	beqz	a5,1bcd4 <_lseek_r+0x22>
   1bce6:	60a2                	ld	ra,8(sp)
   1bce8:	c01c                	sw	a5,0(s0)
   1bcea:	6402                	ld	s0,0(sp)
   1bcec:	0141                	addi	sp,sp,16
   1bcee:	8082                	ret

000000000001bcf0 <_read_r>:
   1bcf0:	1141                	addi	sp,sp,-16
   1bcf2:	872e                	mv	a4,a1
   1bcf4:	e022                	sd	s0,0(sp)
   1bcf6:	85b2                	mv	a1,a2
   1bcf8:	842a                	mv	s0,a0
   1bcfa:	8636                	mv	a2,a3
   1bcfc:	853a                	mv	a0,a4
   1bcfe:	000fb797          	auipc	a5,0xfb
   1bd02:	0207a523          	sw	zero,42(a5) # 116d28 <errno>
   1bd06:	e406                	sd	ra,8(sp)
   1bd08:	5af000ef          	jal	ra,1cab6 <_read>
   1bd0c:	57fd                	li	a5,-1
   1bd0e:	00f50663          	beq	a0,a5,1bd1a <_read_r+0x2a>
   1bd12:	60a2                	ld	ra,8(sp)
   1bd14:	6402                	ld	s0,0(sp)
   1bd16:	0141                	addi	sp,sp,16
   1bd18:	8082                	ret
   1bd1a:	000fb797          	auipc	a5,0xfb
   1bd1e:	00e7a783          	lw	a5,14(a5) # 116d28 <errno>
   1bd22:	dbe5                	beqz	a5,1bd12 <_read_r+0x22>
   1bd24:	60a2                	ld	ra,8(sp)
   1bd26:	c01c                	sw	a5,0(s0)
   1bd28:	6402                	ld	s0,0(sp)
   1bd2a:	0141                	addi	sp,sp,16
   1bd2c:	8082                	ret

000000000001bd2e <__ssprint_r>:
   1bd2e:	6a1c                	ld	a5,16(a2)
   1bd30:	715d                	addi	sp,sp,-80
   1bd32:	f052                	sd	s4,32(sp)
   1bd34:	e486                	sd	ra,72(sp)
   1bd36:	e0a2                	sd	s0,64(sp)
   1bd38:	fc26                	sd	s1,56(sp)
   1bd3a:	f84a                	sd	s2,48(sp)
   1bd3c:	f44e                	sd	s3,40(sp)
   1bd3e:	ec56                	sd	s5,24(sp)
   1bd40:	e85a                	sd	s6,16(sp)
   1bd42:	e45e                	sd	s7,8(sp)
   1bd44:	e062                	sd	s8,0(sp)
   1bd46:	8a32                	mv	s4,a2
   1bd48:	cff9                	beqz	a5,1be26 <__ssprint_r+0xf8>
   1bd4a:	8aaa                	mv	s5,a0
   1bd4c:	00063983          	ld	s3,0(a2) # ffffffffffffe000 <__BSS_END__+0xffffffffffee72d0>
   1bd50:	6188                	ld	a0,0(a1)
   1bd52:	45c0                	lw	s0,12(a1)
   1bd54:	892e                	mv	s2,a1
   1bd56:	4b01                	li	s6,0
   1bd58:	4481                	li	s1,0
   1bd5a:	c4ed                	beqz	s1,1be44 <__ssprint_r+0x116>
   1bd5c:	8c22                	mv	s8,s0
   1bd5e:	0004879b          	sext.w	a5,s1
   1bd62:	0e84e763          	bltu	s1,s0,1be50 <__ssprint_r+0x122>
   1bd66:	01095783          	lhu	a5,16(s2)
   1bd6a:	00048b9b          	sext.w	s7,s1
   1bd6e:	4807f713          	andi	a4,a5,1152
   1bd72:	c349                	beqz	a4,1bdf4 <__ssprint_r+0xc6>
   1bd74:	02092683          	lw	a3,32(s2)
   1bd78:	01893583          	ld	a1,24(s2)
   1bd7c:	00148713          	addi	a4,s1,1
   1bd80:	0016941b          	slliw	s0,a3,0x1
   1bd84:	9ea1                	addw	a3,a3,s0
   1bd86:	8d0d                	sub	a0,a0,a1
   1bd88:	01f6d41b          	srliw	s0,a3,0x1f
   1bd8c:	00050b9b          	sext.w	s7,a0
   1bd90:	9c35                	addw	s0,s0,a3
   1bd92:	4014541b          	sraiw	s0,s0,0x1
   1bd96:	975e                	add	a4,a4,s7
   1bd98:	00e47563          	bgeu	s0,a4,1bda2 <__ssprint_r+0x74>
   1bd9c:	0014841b          	addiw	s0,s1,1
   1bda0:	9c29                	addw	s0,s0,a0
   1bda2:	4007f793          	andi	a5,a5,1024
   1bda6:	cbcd                	beqz	a5,1be58 <__ssprint_r+0x12a>
   1bda8:	85a2                	mv	a1,s0
   1bdaa:	8556                	mv	a0,s5
   1bdac:	9acf60ef          	jal	ra,11f58 <_malloc_r>
   1bdb0:	8c2a                	mv	s8,a0
   1bdb2:	cd55                	beqz	a0,1be6e <__ssprint_r+0x140>
   1bdb4:	01893583          	ld	a1,24(s2)
   1bdb8:	865e                	mv	a2,s7
   1bdba:	da8fc0ef          	jal	ra,18362 <memcpy>
   1bdbe:	01095783          	lhu	a5,16(s2)
   1bdc2:	b7f7f793          	andi	a5,a5,-1153
   1bdc6:	0807e793          	ori	a5,a5,128
   1bdca:	00f91823          	sh	a5,16(s2)
   1bdce:	017c0533          	add	a0,s8,s7
   1bdd2:	41740bbb          	subw	s7,s0,s7
   1bdd6:	0004879b          	sext.w	a5,s1
   1bdda:	01893c23          	sd	s8,24(s2)
   1bdde:	02892023          	sw	s0,32(s2)
   1bde2:	01792623          	sw	s7,12(s2)
   1bde6:	00a93023          	sd	a0,0(s2)
   1bdea:	843e                	mv	s0,a5
   1bdec:	8bbe                	mv	s7,a5
   1bdee:	8c3e                	mv	s8,a5
   1bdf0:	06f4e063          	bltu	s1,a5,1be50 <__ssprint_r+0x122>
   1bdf4:	8622                	mv	a2,s0
   1bdf6:	85da                	mv	a1,s6
   1bdf8:	e48fc0ef          	jal	ra,18440 <memmove>
   1bdfc:	00c92603          	lw	a2,12(s2)
   1be00:	00093503          	ld	a0,0(s2)
   1be04:	010a3783          	ld	a5,16(s4)
   1be08:	4086043b          	subw	s0,a2,s0
   1be0c:	9562                	add	a0,a0,s8
   1be0e:	00892623          	sw	s0,12(s2)
   1be12:	00a93023          	sd	a0,0(s2)
   1be16:	417787b3          	sub	a5,a5,s7
   1be1a:	00fa3823          	sd	a5,16(s4)
   1be1e:	9b5e                	add	s6,s6,s7
   1be20:	417484b3          	sub	s1,s1,s7
   1be24:	fb9d                	bnez	a5,1bd5a <__ssprint_r+0x2c>
   1be26:	000a2423          	sw	zero,8(s4)
   1be2a:	4501                	li	a0,0
   1be2c:	60a6                	ld	ra,72(sp)
   1be2e:	6406                	ld	s0,64(sp)
   1be30:	74e2                	ld	s1,56(sp)
   1be32:	7942                	ld	s2,48(sp)
   1be34:	79a2                	ld	s3,40(sp)
   1be36:	7a02                	ld	s4,32(sp)
   1be38:	6ae2                	ld	s5,24(sp)
   1be3a:	6b42                	ld	s6,16(sp)
   1be3c:	6ba2                	ld	s7,8(sp)
   1be3e:	6c02                	ld	s8,0(sp)
   1be40:	6161                	addi	sp,sp,80
   1be42:	8082                	ret
   1be44:	0009bb03          	ld	s6,0(s3)
   1be48:	0089b483          	ld	s1,8(s3)
   1be4c:	09c1                	addi	s3,s3,16
   1be4e:	b731                	j	1bd5a <__ssprint_r+0x2c>
   1be50:	843e                	mv	s0,a5
   1be52:	8bbe                	mv	s7,a5
   1be54:	8c3e                	mv	s8,a5
   1be56:	bf79                	j	1bdf4 <__ssprint_r+0xc6>
   1be58:	8622                	mv	a2,s0
   1be5a:	8556                	mv	a0,s5
   1be5c:	b10fd0ef          	jal	ra,1916c <_realloc_r>
   1be60:	8c2a                	mv	s8,a0
   1be62:	f535                	bnez	a0,1bdce <__ssprint_r+0xa0>
   1be64:	01893583          	ld	a1,24(s2)
   1be68:	8556                	mv	a0,s5
   1be6a:	b1df90ef          	jal	ra,15986 <_free_r>
   1be6e:	47b1                	li	a5,12
   1be70:	00faa023          	sw	a5,0(s5)
   1be74:	01095783          	lhu	a5,16(s2)
   1be78:	557d                	li	a0,-1
   1be7a:	0407e793          	ori	a5,a5,64
   1be7e:	00f91823          	sh	a5,16(s2)
   1be82:	000a3823          	sd	zero,16(s4)
   1be86:	000a2423          	sw	zero,8(s4)
   1be8a:	b74d                	j	1be2c <__ssprint_r+0xfe>

000000000001be8c <_svfiprintf_r>:
   1be8c:	0105d783          	lhu	a5,16(a1)
   1be90:	7145                	addi	sp,sp,-464
   1be92:	ff26                	sd	s1,440(sp)
   1be94:	f74e                	sd	s3,424(sp)
   1be96:	f6ee                	sd	s11,360(sp)
   1be98:	e786                	sd	ra,456(sp)
   1be9a:	e3a2                	sd	s0,448(sp)
   1be9c:	fb4a                	sd	s2,432(sp)
   1be9e:	f352                	sd	s4,416(sp)
   1bea0:	ef56                	sd	s5,408(sp)
   1bea2:	eb5a                	sd	s6,400(sp)
   1bea4:	e75e                	sd	s7,392(sp)
   1bea6:	e362                	sd	s8,384(sp)
   1bea8:	fee6                	sd	s9,376(sp)
   1beaa:	faea                	sd	s10,368(sp)
   1beac:	0807f793          	andi	a5,a5,128
   1beb0:	e436                	sd	a3,8(sp)
   1beb2:	84ae                	mv	s1,a1
   1beb4:	89aa                	mv	s3,a0
   1beb6:	8db2                	mv	s11,a2
   1beb8:	c781                	beqz	a5,1bec0 <_svfiprintf_r+0x34>
   1beba:	6d9c                	ld	a5,24(a1)
   1bebc:	160783e3          	beqz	a5,1c822 <_svfiprintf_r+0x996>
   1bec0:	77e1                	lui	a5,0xffff8
   1bec2:	0e010913          	addi	s2,sp,224
   1bec6:	8307c793          	xori	a5,a5,-2000
   1beca:	f0ca                	sd	s2,96(sp)
   1becc:	f882                	sd	zero,112(sp)
   1bece:	d482                	sw	zero,104(sp)
   1bed0:	874a                	mv	a4,s2
   1bed2:	e802                	sd	zero,16(sp)
   1bed4:	f802                	sd	zero,48(sp)
   1bed6:	e082                	sd	zero,64(sp)
   1bed8:	fc02                	sd	zero,56(sp)
   1beda:	e002                	sd	zero,0(sp)
   1bedc:	00003b97          	auipc	s7,0x3
   1bee0:	e9cb8b93          	addi	s7,s7,-356 # 1ed78 <_ctype_+0x108>
   1bee4:	e4be                	sd	a5,72(sp)
   1bee6:	000dc783          	lbu	a5,0(s11)
   1beea:	18078963          	beqz	a5,1c07c <_svfiprintf_r+0x1f0>
   1beee:	8a6e                	mv	s4,s11
   1bef0:	02500693          	li	a3,37
   1bef4:	28d78263          	beq	a5,a3,1c178 <_svfiprintf_r+0x2ec>
   1bef8:	001a4783          	lbu	a5,1(s4)
   1befc:	0a05                	addi	s4,s4,1
   1befe:	fbfd                	bnez	a5,1bef4 <_svfiprintf_r+0x68>
   1bf00:	41ba043b          	subw	s0,s4,s11
   1bf04:	16040c63          	beqz	s0,1c07c <_svfiprintf_r+0x1f0>
   1bf08:	76c6                	ld	a3,112(sp)
   1bf0a:	57a6                	lw	a5,104(sp)
   1bf0c:	01b73023          	sd	s11,0(a4)
   1bf10:	96a2                	add	a3,a3,s0
   1bf12:	2785                	addiw	a5,a5,1
   1bf14:	e700                	sd	s0,8(a4)
   1bf16:	f8b6                	sd	a3,112(sp)
   1bf18:	d4be                	sw	a5,104(sp)
   1bf1a:	0007869b          	sext.w	a3,a5
   1bf1e:	479d                	li	a5,7
   1bf20:	0741                	addi	a4,a4,16
   1bf22:	26d7c263          	blt	a5,a3,1c186 <_svfiprintf_r+0x2fa>
   1bf26:	6682                	ld	a3,0(sp)
   1bf28:	000a4783          	lbu	a5,0(s4)
   1bf2c:	9ea1                	addw	a3,a3,s0
   1bf2e:	e036                	sd	a3,0(sp)
   1bf30:	14078663          	beqz	a5,1c07c <_svfiprintf_r+0x1f0>
   1bf34:	001a4683          	lbu	a3,1(s4)
   1bf38:	001a0d93          	addi	s11,s4,1
   1bf3c:	04010ba3          	sb	zero,87(sp)
   1bf40:	5cfd                	li	s9,-1
   1bf42:	4401                	li	s0,0
   1bf44:	4d01                	li	s10,0
   1bf46:	4a25                	li	s4,9
   1bf48:	02a00a93          	li	s5,42
   1bf4c:	0d85                	addi	s11,s11,1
   1bf4e:	2681                	sext.w	a3,a3
   1bf50:	05a00593          	li	a1,90
   1bf54:	fe06879b          	addiw	a5,a3,-32
   1bf58:	0007861b          	sext.w	a2,a5
   1bf5c:	04c5e063          	bltu	a1,a2,1bf9c <_svfiprintf_r+0x110>
   1bf60:	1782                	slli	a5,a5,0x20
   1bf62:	83f9                	srli	a5,a5,0x1e
   1bf64:	97de                	add	a5,a5,s7
   1bf66:	439c                	lw	a5,0(a5)
   1bf68:	97de                	add	a5,a5,s7
   1bf6a:	8782                	jr	a5
   1bf6c:	4401                	li	s0,0
   1bf6e:	000dc603          	lbu	a2,0(s11)
   1bf72:	0024179b          	slliw	a5,s0,0x2
   1bf76:	9c3d                	addw	s0,s0,a5
   1bf78:	fd06869b          	addiw	a3,a3,-48
   1bf7c:	0014141b          	slliw	s0,s0,0x1
   1bf80:	fd06079b          	addiw	a5,a2,-48
   1bf84:	9c35                	addw	s0,s0,a3
   1bf86:	0d85                	addi	s11,s11,1
   1bf88:	0006069b          	sext.w	a3,a2
   1bf8c:	fefa71e3          	bgeu	s4,a5,1bf6e <_svfiprintf_r+0xe2>
   1bf90:	fe06879b          	addiw	a5,a3,-32
   1bf94:	0007861b          	sext.w	a2,a5
   1bf98:	fcc5f4e3          	bgeu	a1,a2,1bf60 <_svfiprintf_r+0xd4>
   1bf9c:	c2e5                	beqz	a3,1c07c <_svfiprintf_r+0x1f0>
   1bf9e:	06d10c23          	sb	a3,120(sp)
   1bfa2:	04010ba3          	sb	zero,87(sp)
   1bfa6:	4a85                	li	s5,1
   1bfa8:	4a05                	li	s4,1
   1bfaa:	07810c13          	addi	s8,sp,120
   1bfae:	4c81                	li	s9,0
   1bfb0:	002d7793          	andi	a5,s10,2
   1bfb4:	0007839b          	sext.w	t2,a5
   1bfb8:	c391                	beqz	a5,1bfbc <_svfiprintf_r+0x130>
   1bfba:	2a89                	addiw	s5,s5,2
   1bfbc:	084d7b13          	andi	s6,s10,132
   1bfc0:	77c6                	ld	a5,112(sp)
   1bfc2:	5626                	lw	a2,104(sp)
   1bfc4:	000b1663          	bnez	s6,1bfd0 <_svfiprintf_r+0x144>
   1bfc8:	415406bb          	subw	a3,s0,s5
   1bfcc:	5ad04a63          	bgtz	a3,1c580 <_svfiprintf_r+0x6f4>
   1bfd0:	05714e83          	lbu	t4,87(sp)
   1bfd4:	0016059b          	addiw	a1,a2,1
   1bfd8:	01070693          	addi	a3,a4,16
   1bfdc:	020e8763          	beqz	t4,1c00a <_svfiprintf_r+0x17e>
   1bfe0:	05710e93          	addi	t4,sp,87
   1bfe4:	0785                	addi	a5,a5,1
   1bfe6:	01d73023          	sd	t4,0(a4)
   1bfea:	4e85                	li	t4,1
   1bfec:	01d73423          	sd	t4,8(a4)
   1bff0:	f8be                	sd	a5,112(sp)
   1bff2:	d4ae                	sw	a1,104(sp)
   1bff4:	451d                	li	a0,7
   1bff6:	60b54a63          	blt	a0,a1,1c60a <_svfiprintf_r+0x77e>
   1bffa:	00260e9b          	addiw	t4,a2,2
   1bffe:	02070513          	addi	a0,a4,32
   1c002:	862e                	mv	a2,a1
   1c004:	8736                	mv	a4,a3
   1c006:	85f6                	mv	a1,t4
   1c008:	86aa                	mv	a3,a0
   1c00a:	02038063          	beqz	t2,1c02a <_svfiprintf_r+0x19e>
   1c00e:	08b0                	addi	a2,sp,88
   1c010:	e310                	sd	a2,0(a4)
   1c012:	0789                	addi	a5,a5,2
   1c014:	4609                	li	a2,2
   1c016:	e710                	sd	a2,8(a4)
   1c018:	f8be                	sd	a5,112(sp)
   1c01a:	d4ae                	sw	a1,104(sp)
   1c01c:	471d                	li	a4,7
   1c01e:	60b74663          	blt	a4,a1,1c62a <_svfiprintf_r+0x79e>
   1c022:	862e                	mv	a2,a1
   1c024:	8736                	mv	a4,a3
   1c026:	2585                	addiw	a1,a1,1
   1c028:	06c1                	addi	a3,a3,16
   1c02a:	08000513          	li	a0,128
   1c02e:	40ab0f63          	beq	s6,a0,1c44c <_svfiprintf_r+0x5c0>
   1c032:	414c8cbb          	subw	s9,s9,s4
   1c036:	49904e63          	bgtz	s9,1c4d2 <_svfiprintf_r+0x646>
   1c03a:	97d2                	add	a5,a5,s4
   1c03c:	01873023          	sd	s8,0(a4)
   1c040:	01473423          	sd	s4,8(a4)
   1c044:	f8be                	sd	a5,112(sp)
   1c046:	d4ae                	sw	a1,104(sp)
   1c048:	471d                	li	a4,7
   1c04a:	50b74763          	blt	a4,a1,1c558 <_svfiprintf_r+0x6cc>
   1c04e:	004d7e13          	andi	t3,s10,4
   1c052:	000e0663          	beqz	t3,1c05e <_svfiprintf_r+0x1d2>
   1c056:	41540a3b          	subw	s4,s0,s5
   1c05a:	5f404663          	bgtz	s4,1c646 <_svfiprintf_r+0x7ba>
   1c05e:	8722                	mv	a4,s0
   1c060:	01545363          	bge	s0,s5,1c066 <_svfiprintf_r+0x1da>
   1c064:	8756                	mv	a4,s5
   1c066:	6682                	ld	a3,0(sp)
   1c068:	9f35                	addw	a4,a4,a3
   1c06a:	e03a                	sd	a4,0(sp)
   1c06c:	50079063          	bnez	a5,1c56c <_svfiprintf_r+0x6e0>
   1c070:	000dc783          	lbu	a5,0(s11)
   1c074:	d482                	sw	zero,104(sp)
   1c076:	874a                	mv	a4,s2
   1c078:	e6079be3          	bnez	a5,1beee <_svfiprintf_r+0x62>
   1c07c:	77c6                	ld	a5,112(sp)
   1c07e:	0a079be3          	bnez	a5,1c934 <_svfiprintf_r+0xaa8>
   1c082:	0104d783          	lhu	a5,16(s1)
   1c086:	0407f793          	andi	a5,a5,64
   1c08a:	0c079ee3          	bnez	a5,1c966 <_svfiprintf_r+0xada>
   1c08e:	60be                	ld	ra,456(sp)
   1c090:	641e                	ld	s0,448(sp)
   1c092:	6502                	ld	a0,0(sp)
   1c094:	74fa                	ld	s1,440(sp)
   1c096:	795a                	ld	s2,432(sp)
   1c098:	79ba                	ld	s3,424(sp)
   1c09a:	7a1a                	ld	s4,416(sp)
   1c09c:	6afa                	ld	s5,408(sp)
   1c09e:	6b5a                	ld	s6,400(sp)
   1c0a0:	6bba                	ld	s7,392(sp)
   1c0a2:	6c1a                	ld	s8,384(sp)
   1c0a4:	7cf6                	ld	s9,376(sp)
   1c0a6:	7d56                	ld	s10,368(sp)
   1c0a8:	7db6                	ld	s11,360(sp)
   1c0aa:	6179                	addi	sp,sp,464
   1c0ac:	8082                	ret
   1c0ae:	010d6e13          	ori	t3,s10,16
   1c0b2:	000dc683          	lbu	a3,0(s11)
   1c0b6:	000e0d1b          	sext.w	s10,t3
   1c0ba:	bd49                	j	1bf4c <_svfiprintf_r+0xc0>
   1c0bc:	010d6e13          	ori	t3,s10,16
   1c0c0:	000e0d1b          	sext.w	s10,t3
   1c0c4:	6622                	ld	a2,8(sp)
   1c0c6:	020d7793          	andi	a5,s10,32
   1c0ca:	00860693          	addi	a3,a2,8
   1c0ce:	c7e5                	beqz	a5,1c1b6 <_svfiprintf_r+0x32a>
   1c0d0:	621c                	ld	a5,0(a2)
   1c0d2:	8a3e                	mv	s4,a5
   1c0d4:	0e07cf63          	bltz	a5,1c1d2 <_svfiprintf_r+0x346>
   1c0d8:	57fd                	li	a5,-1
   1c0da:	76fc8b63          	beq	s9,a5,1c850 <_svfiprintf_r+0x9c4>
   1c0de:	f7fd7e13          	andi	t3,s10,-129
   1c0e2:	e436                	sd	a3,8(sp)
   1c0e4:	000e0a9b          	sext.w	s5,t3
   1c0e8:	5c0a0d63          	beqz	s4,1c6c2 <_svfiprintf_r+0x836>
   1c0ec:	47a5                	li	a5,9
   1c0ee:	6147ef63          	bltu	a5,s4,1c70c <_svfiprintf_r+0x880>
   1c0f2:	030a0a1b          	addiw	s4,s4,48
   1c0f6:	0d410da3          	sb	s4,219(sp)
   1c0fa:	8d56                	mv	s10,s5
   1c0fc:	4a05                	li	s4,1
   1c0fe:	0db10c13          	addi	s8,sp,219
   1c102:	a8b1                	j	1c15e <_svfiprintf_r+0x2d2>
   1c104:	010d6e13          	ori	t3,s10,16
   1c108:	000e0d1b          	sext.w	s10,t3
   1c10c:	6622                	ld	a2,8(sp)
   1c10e:	020d7793          	andi	a5,s10,32
   1c112:	00860693          	addi	a3,a2,8
   1c116:	c3c9                	beqz	a5,1c198 <_svfiprintf_r+0x30c>
   1c118:	00063a03          	ld	s4,0(a2)
   1c11c:	bffd7e13          	andi	t3,s10,-1025
   1c120:	000e0a9b          	sext.w	s5,t3
   1c124:	e436                	sd	a3,8(sp)
   1c126:	4781                	li	a5,0
   1c128:	04010ba3          	sb	zero,87(sp)
   1c12c:	56fd                	li	a3,-1
   1c12e:	0adc8e63          	beq	s9,a3,1c1ea <_svfiprintf_r+0x35e>
   1c132:	f7fafe13          	andi	t3,s5,-129
   1c136:	000e0d1b          	sext.w	s10,t3
   1c13a:	440a1163          	bnez	s4,1c57c <_svfiprintf_r+0x6f0>
   1c13e:	2c0c9c63          	bnez	s9,1c416 <_svfiprintf_r+0x58a>
   1c142:	58079363          	bnez	a5,1c6c8 <_svfiprintf_r+0x83c>
   1c146:	001afa13          	andi	s4,s5,1
   1c14a:	0dc10c13          	addi	s8,sp,220
   1c14e:	000a0863          	beqz	s4,1c15e <_svfiprintf_r+0x2d2>
   1c152:	03000793          	li	a5,48
   1c156:	0cf10da3          	sb	a5,219(sp)
   1c15a:	0db10c13          	addi	s8,sp,219
   1c15e:	87e6                	mv	a5,s9
   1c160:	014cd363          	bge	s9,s4,1c166 <_svfiprintf_r+0x2da>
   1c164:	87d2                	mv	a5,s4
   1c166:	05714683          	lbu	a3,87(sp)
   1c16a:	00078a9b          	sext.w	s5,a5
   1c16e:	e40681e3          	beqz	a3,1bfb0 <_svfiprintf_r+0x124>
   1c172:	00178a9b          	addiw	s5,a5,1
   1c176:	bd2d                	j	1bfb0 <_svfiprintf_r+0x124>
   1c178:	41ba043b          	subw	s0,s4,s11
   1c17c:	d80416e3          	bnez	s0,1bf08 <_svfiprintf_r+0x7c>
   1c180:	000a4783          	lbu	a5,0(s4)
   1c184:	b375                	j	1bf30 <_svfiprintf_r+0xa4>
   1c186:	1090                	addi	a2,sp,96
   1c188:	85a6                	mv	a1,s1
   1c18a:	854e                	mv	a0,s3
   1c18c:	ba3ff0ef          	jal	ra,1bd2e <__ssprint_r>
   1c190:	ee0519e3          	bnez	a0,1c082 <_svfiprintf_r+0x1f6>
   1c194:	874a                	mv	a4,s2
   1c196:	bb41                	j	1bf26 <_svfiprintf_r+0x9a>
   1c198:	010d7793          	andi	a5,s10,16
   1c19c:	5e079e63          	bnez	a5,1c798 <_svfiprintf_r+0x90c>
   1c1a0:	6622                	ld	a2,8(sp)
   1c1a2:	040d7793          	andi	a5,s10,64
   1c1a6:	00062a03          	lw	s4,0(a2)
   1c1aa:	72078463          	beqz	a5,1c8d2 <_svfiprintf_r+0xa46>
   1c1ae:	1a42                	slli	s4,s4,0x30
   1c1b0:	030a5a13          	srli	s4,s4,0x30
   1c1b4:	b7a5                	j	1c11c <_svfiprintf_r+0x290>
   1c1b6:	010d7793          	andi	a5,s10,16
   1c1ba:	5c079563          	bnez	a5,1c784 <_svfiprintf_r+0x8f8>
   1c1be:	040d7793          	andi	a5,s10,64
   1c1c2:	6e078f63          	beqz	a5,1c8c0 <_svfiprintf_r+0xa34>
   1c1c6:	67a2                	ld	a5,8(sp)
   1c1c8:	00079a03          	lh	s4,0(a5) # ffffffffffff8000 <__BSS_END__+0xffffffffffee12d0>
   1c1cc:	87d2                	mv	a5,s4
   1c1ce:	f007d5e3          	bgez	a5,1c0d8 <_svfiprintf_r+0x24c>
   1c1d2:	02d00793          	li	a5,45
   1c1d6:	04f10ba3          	sb	a5,87(sp)
   1c1da:	e436                	sd	a3,8(sp)
   1c1dc:	56fd                	li	a3,-1
   1c1de:	41400a33          	neg	s4,s4
   1c1e2:	8aea                	mv	s5,s10
   1c1e4:	4785                	li	a5,1
   1c1e6:	f4dc96e3          	bne	s9,a3,1c132 <_svfiprintf_r+0x2a6>
   1c1ea:	4685                	li	a3,1
   1c1ec:	f0d780e3          	beq	a5,a3,1c0ec <_svfiprintf_r+0x260>
   1c1f0:	4689                	li	a3,2
   1c1f2:	22d78963          	beq	a5,a3,1c424 <_svfiprintf_r+0x598>
   1c1f6:	0dc10c13          	addi	s8,sp,220
   1c1fa:	007a7793          	andi	a5,s4,7
   1c1fe:	03078793          	addi	a5,a5,48
   1c202:	fefc0fa3          	sb	a5,-1(s8)
   1c206:	003a5a13          	srli	s4,s4,0x3
   1c20a:	86e2                	mv	a3,s8
   1c20c:	1c7d                	addi	s8,s8,-1
   1c20e:	fe0a16e3          	bnez	s4,1c1fa <_svfiprintf_r+0x36e>
   1c212:	001af613          	andi	a2,s5,1
   1c216:	22060663          	beqz	a2,1c442 <_svfiprintf_r+0x5b6>
   1c21a:	03000613          	li	a2,48
   1c21e:	22c78263          	beq	a5,a2,1c442 <_svfiprintf_r+0x5b6>
   1c222:	16f9                	addi	a3,a3,-2
   1c224:	09fc                	addi	a5,sp,220
   1c226:	fecc0fa3          	sb	a2,-1(s8)
   1c22a:	40d78a3b          	subw	s4,a5,a3
   1c22e:	8d56                	mv	s10,s5
   1c230:	8c36                	mv	s8,a3
   1c232:	b735                	j	1c15e <_svfiprintf_r+0x2d2>
   1c234:	67a2                	ld	a5,8(sp)
   1c236:	04010ba3          	sb	zero,87(sp)
   1c23a:	0007bc03          	ld	s8,0(a5)
   1c23e:	00878b13          	addi	s6,a5,8
   1c242:	640c0b63          	beqz	s8,1c898 <_svfiprintf_r+0xa0c>
   1c246:	57fd                	li	a5,-1
   1c248:	5cfc8363          	beq	s9,a5,1c80e <_svfiprintf_r+0x982>
   1c24c:	8666                	mv	a2,s9
   1c24e:	4581                	li	a1,0
   1c250:	8562                	mv	a0,s8
   1c252:	e43a                	sd	a4,8(sp)
   1c254:	870fc0ef          	jal	ra,182c4 <memchr>
   1c258:	6722                	ld	a4,8(sp)
   1c25a:	6e050463          	beqz	a0,1c942 <_svfiprintf_r+0xab6>
   1c25e:	41850a3b          	subw	s4,a0,s8
   1c262:	e45a                	sd	s6,8(sp)
   1c264:	4c81                	li	s9,0
   1c266:	bde5                	j	1c15e <_svfiprintf_r+0x2d2>
   1c268:	66a2                	ld	a3,8(sp)
   1c26a:	04010ba3          	sb	zero,87(sp)
   1c26e:	4a85                	li	s5,1
   1c270:	429c                	lw	a5,0(a3)
   1c272:	06a1                	addi	a3,a3,8
   1c274:	e436                	sd	a3,8(sp)
   1c276:	06f10c23          	sb	a5,120(sp)
   1c27a:	4a05                	li	s4,1
   1c27c:	07810c13          	addi	s8,sp,120
   1c280:	b33d                	j	1bfae <_svfiprintf_r+0x122>
   1c282:	020d6e13          	ori	t3,s10,32
   1c286:	000dc683          	lbu	a3,0(s11)
   1c28a:	000e0d1b          	sext.w	s10,t3
   1c28e:	b97d                	j	1bf4c <_svfiprintf_r+0xc0>
   1c290:	67a2                	ld	a5,8(sp)
   1c292:	66a6                	ld	a3,72(sp)
   1c294:	002d6e13          	ori	t3,s10,2
   1c298:	0007ba03          	ld	s4,0(a5)
   1c29c:	07a1                	addi	a5,a5,8
   1c29e:	e43e                	sd	a5,8(sp)
   1c2a0:	00002797          	auipc	a5,0x2
   1c2a4:	0c078793          	addi	a5,a5,192 # 1e360 <__func__.4057+0x2c0>
   1c2a8:	e83e                	sd	a5,16(sp)
   1c2aa:	000e0a9b          	sext.w	s5,t3
   1c2ae:	04d11c23          	sh	a3,88(sp)
   1c2b2:	4789                	li	a5,2
   1c2b4:	bd95                	j	1c128 <_svfiprintf_r+0x29c>
   1c2b6:	6622                	ld	a2,8(sp)
   1c2b8:	020d7793          	andi	a5,s10,32
   1c2bc:	6214                	ld	a3,0(a2)
   1c2be:	0621                	addi	a2,a2,8
   1c2c0:	e432                	sd	a2,8(sp)
   1c2c2:	e385                	bnez	a5,1c2e2 <_svfiprintf_r+0x456>
   1c2c4:	010d7793          	andi	a5,s10,16
   1c2c8:	ef89                	bnez	a5,1c2e2 <_svfiprintf_r+0x456>
   1c2ca:	040d7793          	andi	a5,s10,64
   1c2ce:	64079e63          	bnez	a5,1c92a <_svfiprintf_r+0xa9e>
   1c2d2:	200d7e13          	andi	t3,s10,512
   1c2d6:	6782                	ld	a5,0(sp)
   1c2d8:	680e0463          	beqz	t3,1c960 <_svfiprintf_r+0xad4>
   1c2dc:	00f68023          	sb	a5,0(a3)
   1c2e0:	b119                	j	1bee6 <_svfiprintf_r+0x5a>
   1c2e2:	6782                	ld	a5,0(sp)
   1c2e4:	e29c                	sd	a5,0(a3)
   1c2e6:	b101                	j	1bee6 <_svfiprintf_r+0x5a>
   1c2e8:	000dc683          	lbu	a3,0(s11)
   1c2ec:	06c00793          	li	a5,108
   1c2f0:	56f68c63          	beq	a3,a5,1c868 <_svfiprintf_r+0x9dc>
   1c2f4:	010d6e13          	ori	t3,s10,16
   1c2f8:	000e0d1b          	sext.w	s10,t3
   1c2fc:	b981                	j	1bf4c <_svfiprintf_r+0xc0>
   1c2fe:	000dc683          	lbu	a3,0(s11)
   1c302:	06800793          	li	a5,104
   1c306:	54f68863          	beq	a3,a5,1c856 <_svfiprintf_r+0x9ca>
   1c30a:	040d6e13          	ori	t3,s10,64
   1c30e:	000e0d1b          	sext.w	s10,t3
   1c312:	b92d                	j	1bf4c <_svfiprintf_r+0xc0>
   1c314:	010d6e13          	ori	t3,s10,16
   1c318:	000e0a9b          	sext.w	s5,t3
   1c31c:	6622                	ld	a2,8(sp)
   1c31e:	020af793          	andi	a5,s5,32
   1c322:	00860693          	addi	a3,a2,8
   1c326:	3a078663          	beqz	a5,1c6d2 <_svfiprintf_r+0x846>
   1c32a:	00063a03          	ld	s4,0(a2)
   1c32e:	4785                	li	a5,1
   1c330:	e436                	sd	a3,8(sp)
   1c332:	bbdd                	j	1c128 <_svfiprintf_r+0x29c>
   1c334:	080d6e13          	ori	t3,s10,128
   1c338:	000dc683          	lbu	a3,0(s11)
   1c33c:	000e0d1b          	sext.w	s10,t3
   1c340:	b131                	j	1bf4c <_svfiprintf_r+0xc0>
   1c342:	67a2                	ld	a5,8(sp)
   1c344:	000dc683          	lbu	a3,0(s11)
   1c348:	4380                	lw	s0,0(a5)
   1c34a:	07a1                	addi	a5,a5,8
   1c34c:	e43e                	sd	a5,8(sp)
   1c34e:	be045fe3          	bgez	s0,1bf4c <_svfiprintf_r+0xc0>
   1c352:	4080043b          	negw	s0,s0
   1c356:	a0b5                	j	1c3c2 <_svfiprintf_r+0x536>
   1c358:	854e                	mv	a0,s3
   1c35a:	ec3a                	sd	a4,24(sp)
   1c35c:	dcdfb0ef          	jal	ra,18128 <_localeconv_r>
   1c360:	651c                	ld	a5,8(a0)
   1c362:	853e                	mv	a0,a5
   1c364:	fc3e                	sd	a5,56(sp)
   1c366:	871fd0ef          	jal	ra,19bd6 <strlen>
   1c36a:	87aa                	mv	a5,a0
   1c36c:	854e                	mv	a0,s3
   1c36e:	8b3e                	mv	s6,a5
   1c370:	e0be                	sd	a5,64(sp)
   1c372:	db7fb0ef          	jal	ra,18128 <_localeconv_r>
   1c376:	691c                	ld	a5,16(a0)
   1c378:	6762                	ld	a4,24(sp)
   1c37a:	000dc683          	lbu	a3,0(s11)
   1c37e:	f83e                	sd	a5,48(sp)
   1c380:	bc0b06e3          	beqz	s6,1bf4c <_svfiprintf_r+0xc0>
   1c384:	bc0784e3          	beqz	a5,1bf4c <_svfiprintf_r+0xc0>
   1c388:	0007c783          	lbu	a5,0(a5)
   1c38c:	bc0780e3          	beqz	a5,1bf4c <_svfiprintf_r+0xc0>
   1c390:	400d6e13          	ori	t3,s10,1024
   1c394:	000e0d1b          	sext.w	s10,t3
   1c398:	be55                	j	1bf4c <_svfiprintf_r+0xc0>
   1c39a:	001d6e13          	ori	t3,s10,1
   1c39e:	000dc683          	lbu	a3,0(s11)
   1c3a2:	000e0d1b          	sext.w	s10,t3
   1c3a6:	b65d                	j	1bf4c <_svfiprintf_r+0xc0>
   1c3a8:	05714783          	lbu	a5,87(sp)
   1c3ac:	000dc683          	lbu	a3,0(s11)
   1c3b0:	b8079ee3          	bnez	a5,1bf4c <_svfiprintf_r+0xc0>
   1c3b4:	02000793          	li	a5,32
   1c3b8:	04f10ba3          	sb	a5,87(sp)
   1c3bc:	be41                	j	1bf4c <_svfiprintf_r+0xc0>
   1c3be:	000dc683          	lbu	a3,0(s11)
   1c3c2:	004d6e13          	ori	t3,s10,4
   1c3c6:	000e0d1b          	sext.w	s10,t3
   1c3ca:	b649                	j	1bf4c <_svfiprintf_r+0xc0>
   1c3cc:	02b00793          	li	a5,43
   1c3d0:	000dc683          	lbu	a3,0(s11)
   1c3d4:	04f10ba3          	sb	a5,87(sp)
   1c3d8:	be95                	j	1bf4c <_svfiprintf_r+0xc0>
   1c3da:	000dc603          	lbu	a2,0(s11)
   1c3de:	001d8793          	addi	a5,s11,1
   1c3e2:	0006069b          	sext.w	a3,a2
   1c3e6:	58ca8463          	beq	s5,a2,1c96e <_svfiprintf_r+0xae2>
   1c3ea:	fd06061b          	addiw	a2,a2,-48
   1c3ee:	8dbe                	mv	s11,a5
   1c3f0:	4c81                	li	s9,0
   1c3f2:	b6ca61e3          	bltu	s4,a2,1bf54 <_svfiprintf_r+0xc8>
   1c3f6:	000dc683          	lbu	a3,0(s11)
   1c3fa:	002c979b          	slliw	a5,s9,0x2
   1c3fe:	0197883b          	addw	a6,a5,s9
   1c402:	0018181b          	slliw	a6,a6,0x1
   1c406:	00c80cbb          	addw	s9,a6,a2
   1c40a:	fd06861b          	addiw	a2,a3,-48
   1c40e:	0d85                	addi	s11,s11,1
   1c410:	feca73e3          	bgeu	s4,a2,1c3f6 <_svfiprintf_r+0x56a>
   1c414:	b681                	j	1bf54 <_svfiprintf_r+0xc8>
   1c416:	4685                	li	a3,1
   1c418:	52d78a63          	beq	a5,a3,1c94c <_svfiprintf_r+0xac0>
   1c41c:	4689                	li	a3,2
   1c41e:	8aea                	mv	s5,s10
   1c420:	dcd79be3          	bne	a5,a3,1c1f6 <_svfiprintf_r+0x36a>
   1c424:	0dc10c13          	addi	s8,sp,220
   1c428:	66c2                	ld	a3,16(sp)
   1c42a:	00fa7793          	andi	a5,s4,15
   1c42e:	1c7d                	addi	s8,s8,-1
   1c430:	97b6                	add	a5,a5,a3
   1c432:	0007c783          	lbu	a5,0(a5)
   1c436:	004a5a13          	srli	s4,s4,0x4
   1c43a:	00fc0023          	sb	a5,0(s8)
   1c43e:	fe0a15e3          	bnez	s4,1c428 <_svfiprintf_r+0x59c>
   1c442:	09fc                	addi	a5,sp,220
   1c444:	41878a3b          	subw	s4,a5,s8
   1c448:	8d56                	mv	s10,s5
   1c44a:	bb11                	j	1c15e <_svfiprintf_r+0x2d2>
   1c44c:	41540ebb          	subw	t4,s0,s5
   1c450:	bfd051e3          	blez	t4,1c032 <_svfiprintf_r+0x1a6>
   1c454:	4541                	li	a0,16
   1c456:	4fd55e63          	bge	a0,t4,1c952 <_svfiprintf_r+0xac6>
   1c45a:	00003b17          	auipc	s6,0x3
   1c45e:	a9eb0b13          	addi	s6,s6,-1378 # 1eef8 <zeroes.4483>
   1c462:	4fc1                	li	t6,16
   1c464:	429d                	li	t0,7
   1c466:	a021                	j	1c46e <_svfiprintf_r+0x5e2>
   1c468:	3ec1                	addiw	t4,t4,-16
   1c46a:	03dfde63          	bge	t6,t4,1c4a6 <_svfiprintf_r+0x61a>
   1c46e:	2605                	addiw	a2,a2,1
   1c470:	07c1                	addi	a5,a5,16
   1c472:	01673023          	sd	s6,0(a4)
   1c476:	01f73423          	sd	t6,8(a4)
   1c47a:	f8be                	sd	a5,112(sp)
   1c47c:	d4b2                	sw	a2,104(sp)
   1c47e:	0741                	addi	a4,a4,16
   1c480:	fec2d4e3          	bge	t0,a2,1c468 <_svfiprintf_r+0x5dc>
   1c484:	1090                	addi	a2,sp,96
   1c486:	85a6                	mv	a1,s1
   1c488:	854e                	mv	a0,s3
   1c48a:	ec76                	sd	t4,24(sp)
   1c48c:	8a3ff0ef          	jal	ra,1bd2e <__ssprint_r>
   1c490:	be0519e3          	bnez	a0,1c082 <_svfiprintf_r+0x1f6>
   1c494:	6ee2                	ld	t4,24(sp)
   1c496:	4fc1                	li	t6,16
   1c498:	77c6                	ld	a5,112(sp)
   1c49a:	3ec1                	addiw	t4,t4,-16
   1c49c:	5626                	lw	a2,104(sp)
   1c49e:	874a                	mv	a4,s2
   1c4a0:	429d                	li	t0,7
   1c4a2:	fddfc6e3          	blt	t6,t4,1c46e <_svfiprintf_r+0x5e2>
   1c4a6:	2605                	addiw	a2,a2,1
   1c4a8:	01070513          	addi	a0,a4,16
   1c4ac:	97f6                	add	a5,a5,t4
   1c4ae:	01673023          	sd	s6,0(a4)
   1c4b2:	01d73423          	sd	t4,8(a4)
   1c4b6:	f8be                	sd	a5,112(sp)
   1c4b8:	d4b2                	sw	a2,104(sp)
   1c4ba:	471d                	li	a4,7
   1c4bc:	3ac74f63          	blt	a4,a2,1c87a <_svfiprintf_r+0x9ee>
   1c4c0:	414c8cbb          	subw	s9,s9,s4
   1c4c4:	0016059b          	addiw	a1,a2,1
   1c4c8:	01050693          	addi	a3,a0,16
   1c4cc:	872a                	mv	a4,a0
   1c4ce:	b79056e3          	blez	s9,1c03a <_svfiprintf_r+0x1ae>
   1c4d2:	4541                	li	a0,16
   1c4d4:	41955f63          	bge	a0,s9,1c8f2 <_svfiprintf_r+0xa66>
   1c4d8:	00003b17          	auipc	s6,0x3
   1c4dc:	a20b0b13          	addi	s6,s6,-1504 # 1eef8 <zeroes.4483>
   1c4e0:	4ec1                	li	t4,16
   1c4e2:	4f9d                	li	t6,7
   1c4e4:	a021                	j	1c4ec <_svfiprintf_r+0x660>
   1c4e6:	3cc1                	addiw	s9,s9,-16
   1c4e8:	039edc63          	bge	t4,s9,1c520 <_svfiprintf_r+0x694>
   1c4ec:	2605                	addiw	a2,a2,1
   1c4ee:	07c1                	addi	a5,a5,16
   1c4f0:	01673023          	sd	s6,0(a4)
   1c4f4:	01d73423          	sd	t4,8(a4)
   1c4f8:	f8be                	sd	a5,112(sp)
   1c4fa:	d4b2                	sw	a2,104(sp)
   1c4fc:	0741                	addi	a4,a4,16
   1c4fe:	fecfd4e3          	bge	t6,a2,1c4e6 <_svfiprintf_r+0x65a>
   1c502:	1090                	addi	a2,sp,96
   1c504:	85a6                	mv	a1,s1
   1c506:	854e                	mv	a0,s3
   1c508:	827ff0ef          	jal	ra,1bd2e <__ssprint_r>
   1c50c:	b6051be3          	bnez	a0,1c082 <_svfiprintf_r+0x1f6>
   1c510:	4ec1                	li	t4,16
   1c512:	3cc1                	addiw	s9,s9,-16
   1c514:	77c6                	ld	a5,112(sp)
   1c516:	5626                	lw	a2,104(sp)
   1c518:	874a                	mv	a4,s2
   1c51a:	4f9d                	li	t6,7
   1c51c:	fd9ec8e3          	blt	t4,s9,1c4ec <_svfiprintf_r+0x660>
   1c520:	0016059b          	addiw	a1,a2,1
   1c524:	01070613          	addi	a2,a4,16
   1c528:	97e6                	add	a5,a5,s9
   1c52a:	01673023          	sd	s6,0(a4)
   1c52e:	01973423          	sd	s9,8(a4)
   1c532:	f8be                	sd	a5,112(sp)
   1c534:	d4ae                	sw	a1,104(sp)
   1c536:	471d                	li	a4,7
   1c538:	1ab74d63          	blt	a4,a1,1c6f2 <_svfiprintf_r+0x866>
   1c53c:	8732                	mv	a4,a2
   1c53e:	2585                	addiw	a1,a1,1
   1c540:	97d2                	add	a5,a5,s4
   1c542:	01873023          	sd	s8,0(a4)
   1c546:	01473423          	sd	s4,8(a4)
   1c54a:	f8be                	sd	a5,112(sp)
   1c54c:	d4ae                	sw	a1,104(sp)
   1c54e:	471d                	li	a4,7
   1c550:	01060693          	addi	a3,a2,16
   1c554:	aeb75de3          	bge	a4,a1,1c04e <_svfiprintf_r+0x1c2>
   1c558:	1090                	addi	a2,sp,96
   1c55a:	85a6                	mv	a1,s1
   1c55c:	854e                	mv	a0,s3
   1c55e:	fd0ff0ef          	jal	ra,1bd2e <__ssprint_r>
   1c562:	b20510e3          	bnez	a0,1c082 <_svfiprintf_r+0x1f6>
   1c566:	77c6                	ld	a5,112(sp)
   1c568:	86ca                	mv	a3,s2
   1c56a:	b4d5                	j	1c04e <_svfiprintf_r+0x1c2>
   1c56c:	1090                	addi	a2,sp,96
   1c56e:	85a6                	mv	a1,s1
   1c570:	854e                	mv	a0,s3
   1c572:	fbcff0ef          	jal	ra,1bd2e <__ssprint_r>
   1c576:	ae050de3          	beqz	a0,1c070 <_svfiprintf_r+0x1e4>
   1c57a:	b621                	j	1c082 <_svfiprintf_r+0x1f6>
   1c57c:	8aea                	mv	s5,s10
   1c57e:	b1b5                	j	1c1ea <_svfiprintf_r+0x35e>
   1c580:	45c1                	li	a1,16
   1c582:	00003e97          	auipc	t4,0x3
   1c586:	966e8e93          	addi	t4,t4,-1690 # 1eee8 <blanks.4482>
   1c58a:	4f41                	li	t5,16
   1c58c:	429d                	li	t0,7
   1c58e:	00d5c663          	blt	a1,a3,1c59a <_svfiprintf_r+0x70e>
   1c592:	a0a1                	j	1c5da <_svfiprintf_r+0x74e>
   1c594:	36c1                	addiw	a3,a3,-16
   1c596:	04df5263          	bge	t5,a3,1c5da <_svfiprintf_r+0x74e>
   1c59a:	2605                	addiw	a2,a2,1
   1c59c:	07c1                	addi	a5,a5,16
   1c59e:	01d73023          	sd	t4,0(a4)
   1c5a2:	01e73423          	sd	t5,8(a4)
   1c5a6:	f8be                	sd	a5,112(sp)
   1c5a8:	d4b2                	sw	a2,104(sp)
   1c5aa:	0741                	addi	a4,a4,16
   1c5ac:	fec2d4e3          	bge	t0,a2,1c594 <_svfiprintf_r+0x708>
   1c5b0:	1090                	addi	a2,sp,96
   1c5b2:	85a6                	mv	a1,s1
   1c5b4:	854e                	mv	a0,s3
   1c5b6:	f476                	sd	t4,40(sp)
   1c5b8:	f036                	sd	a3,32(sp)
   1c5ba:	ec1e                	sd	t2,24(sp)
   1c5bc:	f72ff0ef          	jal	ra,1bd2e <__ssprint_r>
   1c5c0:	ac0511e3          	bnez	a0,1c082 <_svfiprintf_r+0x1f6>
   1c5c4:	7682                	ld	a3,32(sp)
   1c5c6:	4f41                	li	t5,16
   1c5c8:	77c6                	ld	a5,112(sp)
   1c5ca:	36c1                	addiw	a3,a3,-16
   1c5cc:	5626                	lw	a2,104(sp)
   1c5ce:	7ea2                	ld	t4,40(sp)
   1c5d0:	63e2                	ld	t2,24(sp)
   1c5d2:	874a                	mv	a4,s2
   1c5d4:	429d                	li	t0,7
   1c5d6:	fcdf42e3          	blt	t5,a3,1c59a <_svfiprintf_r+0x70e>
   1c5da:	97b6                	add	a5,a5,a3
   1c5dc:	2605                	addiw	a2,a2,1
   1c5de:	e714                	sd	a3,8(a4)
   1c5e0:	01d73023          	sd	t4,0(a4)
   1c5e4:	f8be                	sd	a5,112(sp)
   1c5e6:	d4b2                	sw	a2,104(sp)
   1c5e8:	469d                	li	a3,7
   1c5ea:	0741                	addi	a4,a4,16
   1c5ec:	9ec6d2e3          	bge	a3,a2,1bfd0 <_svfiprintf_r+0x144>
   1c5f0:	1090                	addi	a2,sp,96
   1c5f2:	85a6                	mv	a1,s1
   1c5f4:	854e                	mv	a0,s3
   1c5f6:	ec1e                	sd	t2,24(sp)
   1c5f8:	f36ff0ef          	jal	ra,1bd2e <__ssprint_r>
   1c5fc:	a80513e3          	bnez	a0,1c082 <_svfiprintf_r+0x1f6>
   1c600:	77c6                	ld	a5,112(sp)
   1c602:	5626                	lw	a2,104(sp)
   1c604:	63e2                	ld	t2,24(sp)
   1c606:	874a                	mv	a4,s2
   1c608:	b2e1                	j	1bfd0 <_svfiprintf_r+0x144>
   1c60a:	1090                	addi	a2,sp,96
   1c60c:	85a6                	mv	a1,s1
   1c60e:	854e                	mv	a0,s3
   1c610:	ec1e                	sd	t2,24(sp)
   1c612:	f1cff0ef          	jal	ra,1bd2e <__ssprint_r>
   1c616:	a60516e3          	bnez	a0,1c082 <_svfiprintf_r+0x1f6>
   1c61a:	5626                	lw	a2,104(sp)
   1c61c:	77c6                	ld	a5,112(sp)
   1c61e:	63e2                	ld	t2,24(sp)
   1c620:	1994                	addi	a3,sp,240
   1c622:	0016059b          	addiw	a1,a2,1
   1c626:	874a                	mv	a4,s2
   1c628:	b2cd                	j	1c00a <_svfiprintf_r+0x17e>
   1c62a:	1090                	addi	a2,sp,96
   1c62c:	85a6                	mv	a1,s1
   1c62e:	854e                	mv	a0,s3
   1c630:	efeff0ef          	jal	ra,1bd2e <__ssprint_r>
   1c634:	a40517e3          	bnez	a0,1c082 <_svfiprintf_r+0x1f6>
   1c638:	5626                	lw	a2,104(sp)
   1c63a:	77c6                	ld	a5,112(sp)
   1c63c:	1994                	addi	a3,sp,240
   1c63e:	0016059b          	addiw	a1,a2,1
   1c642:	874a                	mv	a4,s2
   1c644:	b2dd                	j	1c02a <_svfiprintf_r+0x19e>
   1c646:	4641                	li	a2,16
   1c648:	5726                	lw	a4,104(sp)
   1c64a:	00003e97          	auipc	t4,0x3
   1c64e:	89ee8e93          	addi	t4,t4,-1890 # 1eee8 <blanks.4482>
   1c652:	4cc1                	li	s9,16
   1c654:	4c1d                	li	s8,7
   1c656:	01464663          	blt	a2,s4,1c662 <_svfiprintf_r+0x7d6>
   1c65a:	a835                	j	1c696 <_svfiprintf_r+0x80a>
   1c65c:	3a41                	addiw	s4,s4,-16
   1c65e:	034cdc63          	bge	s9,s4,1c696 <_svfiprintf_r+0x80a>
   1c662:	2705                	addiw	a4,a4,1
   1c664:	07c1                	addi	a5,a5,16
   1c666:	01d6b023          	sd	t4,0(a3)
   1c66a:	0196b423          	sd	s9,8(a3)
   1c66e:	f8be                	sd	a5,112(sp)
   1c670:	d4ba                	sw	a4,104(sp)
   1c672:	06c1                	addi	a3,a3,16
   1c674:	feec54e3          	bge	s8,a4,1c65c <_svfiprintf_r+0x7d0>
   1c678:	1090                	addi	a2,sp,96
   1c67a:	85a6                	mv	a1,s1
   1c67c:	854e                	mv	a0,s3
   1c67e:	ec76                	sd	t4,24(sp)
   1c680:	eaeff0ef          	jal	ra,1bd2e <__ssprint_r>
   1c684:	9e051fe3          	bnez	a0,1c082 <_svfiprintf_r+0x1f6>
   1c688:	3a41                	addiw	s4,s4,-16
   1c68a:	77c6                	ld	a5,112(sp)
   1c68c:	5726                	lw	a4,104(sp)
   1c68e:	6ee2                	ld	t4,24(sp)
   1c690:	86ca                	mv	a3,s2
   1c692:	fd4cc8e3          	blt	s9,s4,1c662 <_svfiprintf_r+0x7d6>
   1c696:	2705                	addiw	a4,a4,1
   1c698:	97d2                	add	a5,a5,s4
   1c69a:	01d6b023          	sd	t4,0(a3)
   1c69e:	0146b423          	sd	s4,8(a3)
   1c6a2:	d4ba                	sw	a4,104(sp)
   1c6a4:	0007069b          	sext.w	a3,a4
   1c6a8:	f8be                	sd	a5,112(sp)
   1c6aa:	471d                	li	a4,7
   1c6ac:	9ad759e3          	bge	a4,a3,1c05e <_svfiprintf_r+0x1d2>
   1c6b0:	1090                	addi	a2,sp,96
   1c6b2:	85a6                	mv	a1,s1
   1c6b4:	854e                	mv	a0,s3
   1c6b6:	e78ff0ef          	jal	ra,1bd2e <__ssprint_r>
   1c6ba:	9c0514e3          	bnez	a0,1c082 <_svfiprintf_r+0x1f6>
   1c6be:	77c6                	ld	a5,112(sp)
   1c6c0:	ba79                	j	1c05e <_svfiprintf_r+0x1d2>
   1c6c2:	a20c98e3          	bnez	s9,1c0f2 <_svfiprintf_r+0x266>
   1c6c6:	8d56                	mv	s10,s5
   1c6c8:	4c81                	li	s9,0
   1c6ca:	4a01                	li	s4,0
   1c6cc:	0dc10c13          	addi	s8,sp,220
   1c6d0:	b479                	j	1c15e <_svfiprintf_r+0x2d2>
   1c6d2:	010af793          	andi	a5,s5,16
   1c6d6:	ebdd                	bnez	a5,1c78c <_svfiprintf_r+0x900>
   1c6d8:	6622                	ld	a2,8(sp)
   1c6da:	040af793          	andi	a5,s5,64
   1c6de:	00062a03          	lw	s4,0(a2)
   1c6e2:	1e078f63          	beqz	a5,1c8e0 <_svfiprintf_r+0xa54>
   1c6e6:	1a42                	slli	s4,s4,0x30
   1c6e8:	030a5a13          	srli	s4,s4,0x30
   1c6ec:	e436                	sd	a3,8(sp)
   1c6ee:	4785                	li	a5,1
   1c6f0:	bc25                	j	1c128 <_svfiprintf_r+0x29c>
   1c6f2:	1090                	addi	a2,sp,96
   1c6f4:	85a6                	mv	a1,s1
   1c6f6:	854e                	mv	a0,s3
   1c6f8:	e36ff0ef          	jal	ra,1bd2e <__ssprint_r>
   1c6fc:	980513e3          	bnez	a0,1c082 <_svfiprintf_r+0x1f6>
   1c700:	55a6                	lw	a1,104(sp)
   1c702:	77c6                	ld	a5,112(sp)
   1c704:	1994                	addi	a3,sp,240
   1c706:	2585                	addiw	a1,a1,1
   1c708:	874a                	mv	a4,s2
   1c70a:	ba05                	j	1c03a <_svfiprintf_r+0x1ae>
   1c70c:	400afe13          	andi	t3,s5,1024
   1c710:	2e01                	sext.w	t3,t3
   1c712:	4581                	li	a1,0
   1c714:	09f0                	addi	a2,sp,220
   1c716:	46a9                	li	a3,10
   1c718:	4d25                	li	s10,9
   1c71a:	0ff00b13          	li	s6,255
   1c71e:	a039                	j	1c72c <_svfiprintf_r+0x8a0>
   1c720:	02da57b3          	divu	a5,s4,a3
   1c724:	d14d7fe3          	bgeu	s10,s4,1c442 <_svfiprintf_r+0x5b6>
   1c728:	8a3e                	mv	s4,a5
   1c72a:	8662                	mv	a2,s8
   1c72c:	fff60c13          	addi	s8,a2,-1
   1c730:	2585                	addiw	a1,a1,1
   1c732:	02da77b3          	remu	a5,s4,a3
   1c736:	0307879b          	addiw	a5,a5,48
   1c73a:	fef60fa3          	sb	a5,-1(a2)
   1c73e:	fe0e01e3          	beqz	t3,1c720 <_svfiprintf_r+0x894>
   1c742:	77c2                	ld	a5,48(sp)
   1c744:	0007c783          	lbu	a5,0(a5)
   1c748:	fcb79ce3          	bne	a5,a1,1c720 <_svfiprintf_r+0x894>
   1c74c:	fd678ae3          	beq	a5,s6,1c720 <_svfiprintf_r+0x894>
   1c750:	cf4d79e3          	bgeu	s10,s4,1c442 <_svfiprintf_r+0x5b6>
   1c754:	6786                	ld	a5,64(sp)
   1c756:	75e2                	ld	a1,56(sp)
   1c758:	f072                	sd	t3,32(sp)
   1c75a:	40fc0c33          	sub	s8,s8,a5
   1c75e:	863e                	mv	a2,a5
   1c760:	8562                	mv	a0,s8
   1c762:	ec3a                	sd	a4,24(sp)
   1c764:	d06fd0ef          	jal	ra,19c6a <strncpy>
   1c768:	7742                	ld	a4,48(sp)
   1c76a:	46a9                	li	a3,10
   1c76c:	02da57b3          	divu	a5,s4,a3
   1c770:	00174603          	lbu	a2,1(a4)
   1c774:	7e02                	ld	t3,32(sp)
   1c776:	4581                	li	a1,0
   1c778:	00c03633          	snez	a2,a2
   1c77c:	9732                	add	a4,a4,a2
   1c77e:	f83a                	sd	a4,48(sp)
   1c780:	6762                	ld	a4,24(sp)
   1c782:	b75d                	j	1c728 <_svfiprintf_r+0x89c>
   1c784:	67a2                	ld	a5,8(sp)
   1c786:	639c                	ld	a5,0(a5)
   1c788:	8a3e                	mv	s4,a5
   1c78a:	b2a9                	j	1c0d4 <_svfiprintf_r+0x248>
   1c78c:	67a2                	ld	a5,8(sp)
   1c78e:	e436                	sd	a3,8(sp)
   1c790:	0007ba03          	ld	s4,0(a5)
   1c794:	4785                	li	a5,1
   1c796:	ba49                	j	1c128 <_svfiprintf_r+0x29c>
   1c798:	67a2                	ld	a5,8(sp)
   1c79a:	0007ba03          	ld	s4,0(a5)
   1c79e:	babd                	j	1c11c <_svfiprintf_r+0x290>
   1c7a0:	8aea                	mv	s5,s10
   1c7a2:	bead                	j	1c31c <_svfiprintf_r+0x490>
   1c7a4:	65a2                	ld	a1,8(sp)
   1c7a6:	00002797          	auipc	a5,0x2
   1c7aa:	ba278793          	addi	a5,a5,-1118 # 1e348 <__func__.4057+0x2a8>
   1c7ae:	e83e                	sd	a5,16(sp)
   1c7b0:	020d7793          	andi	a5,s10,32
   1c7b4:	00858613          	addi	a2,a1,8
   1c7b8:	c7a1                	beqz	a5,1c800 <_svfiprintf_r+0x974>
   1c7ba:	0005ba03          	ld	s4,0(a1)
   1c7be:	001d7793          	andi	a5,s10,1
   1c7c2:	cf89                	beqz	a5,1c7dc <_svfiprintf_r+0x950>
   1c7c4:	000a0c63          	beqz	s4,1c7dc <_svfiprintf_r+0x950>
   1c7c8:	002d6e13          	ori	t3,s10,2
   1c7cc:	03000793          	li	a5,48
   1c7d0:	04f10c23          	sb	a5,88(sp)
   1c7d4:	04d10ca3          	sb	a3,89(sp)
   1c7d8:	000e0d1b          	sext.w	s10,t3
   1c7dc:	bffd7e13          	andi	t3,s10,-1025
   1c7e0:	000e0a9b          	sext.w	s5,t3
   1c7e4:	e432                	sd	a2,8(sp)
   1c7e6:	4789                	li	a5,2
   1c7e8:	b281                	j	1c128 <_svfiprintf_r+0x29c>
   1c7ea:	65a2                	ld	a1,8(sp)
   1c7ec:	00002797          	auipc	a5,0x2
   1c7f0:	b7478793          	addi	a5,a5,-1164 # 1e360 <__func__.4057+0x2c0>
   1c7f4:	e83e                	sd	a5,16(sp)
   1c7f6:	020d7793          	andi	a5,s10,32
   1c7fa:	00858613          	addi	a2,a1,8
   1c7fe:	ffd5                	bnez	a5,1c7ba <_svfiprintf_r+0x92e>
   1c800:	010d7793          	andi	a5,s10,16
   1c804:	cf85                	beqz	a5,1c83c <_svfiprintf_r+0x9b0>
   1c806:	67a2                	ld	a5,8(sp)
   1c808:	0007ba03          	ld	s4,0(a5)
   1c80c:	bf4d                	j	1c7be <_svfiprintf_r+0x932>
   1c80e:	8562                	mv	a0,s8
   1c810:	ec3a                	sd	a4,24(sp)
   1c812:	bc4fd0ef          	jal	ra,19bd6 <strlen>
   1c816:	6762                	ld	a4,24(sp)
   1c818:	00050a1b          	sext.w	s4,a0
   1c81c:	e45a                	sd	s6,8(sp)
   1c81e:	4c81                	li	s9,0
   1c820:	ba3d                	j	1c15e <_svfiprintf_r+0x2d2>
   1c822:	04000593          	li	a1,64
   1c826:	f32f50ef          	jal	ra,11f58 <_malloc_r>
   1c82a:	e088                	sd	a0,0(s1)
   1c82c:	ec88                	sd	a0,24(s1)
   1c82e:	16050063          	beqz	a0,1c98e <_svfiprintf_r+0xb02>
   1c832:	04000793          	li	a5,64
   1c836:	d09c                	sw	a5,32(s1)
   1c838:	e88ff06f          	j	1bec0 <_svfiprintf_r+0x34>
   1c83c:	65a2                	ld	a1,8(sp)
   1c83e:	040d7793          	andi	a5,s10,64
   1c842:	0005aa03          	lw	s4,0(a1)
   1c846:	c7bd                	beqz	a5,1c8b4 <_svfiprintf_r+0xa28>
   1c848:	1a42                	slli	s4,s4,0x30
   1c84a:	030a5a13          	srli	s4,s4,0x30
   1c84e:	bf85                	j	1c7be <_svfiprintf_r+0x932>
   1c850:	8aea                	mv	s5,s10
   1c852:	e436                	sd	a3,8(sp)
   1c854:	b861                	j	1c0ec <_svfiprintf_r+0x260>
   1c856:	200d6e13          	ori	t3,s10,512
   1c85a:	001dc683          	lbu	a3,1(s11)
   1c85e:	000e0d1b          	sext.w	s10,t3
   1c862:	0d85                	addi	s11,s11,1
   1c864:	ee8ff06f          	j	1bf4c <_svfiprintf_r+0xc0>
   1c868:	020d6e13          	ori	t3,s10,32
   1c86c:	001dc683          	lbu	a3,1(s11)
   1c870:	000e0d1b          	sext.w	s10,t3
   1c874:	0d85                	addi	s11,s11,1
   1c876:	ed6ff06f          	j	1bf4c <_svfiprintf_r+0xc0>
   1c87a:	1090                	addi	a2,sp,96
   1c87c:	85a6                	mv	a1,s1
   1c87e:	854e                	mv	a0,s3
   1c880:	caeff0ef          	jal	ra,1bd2e <__ssprint_r>
   1c884:	fe051f63          	bnez	a0,1c082 <_svfiprintf_r+0x1f6>
   1c888:	5626                	lw	a2,104(sp)
   1c88a:	77c6                	ld	a5,112(sp)
   1c88c:	1994                	addi	a3,sp,240
   1c88e:	0016059b          	addiw	a1,a2,1
   1c892:	874a                	mv	a4,s2
   1c894:	f9eff06f          	j	1c032 <_svfiprintf_r+0x1a6>
   1c898:	4799                	li	a5,6
   1c89a:	000c8a1b          	sext.w	s4,s9
   1c89e:	0197f363          	bgeu	a5,s9,1c8a4 <_svfiprintf_r+0xa18>
   1c8a2:	4a19                	li	s4,6
   1c8a4:	8ad2                	mv	s5,s4
   1c8a6:	e45a                	sd	s6,8(sp)
   1c8a8:	00002c17          	auipc	s8,0x2
   1c8ac:	ad0c0c13          	addi	s8,s8,-1328 # 1e378 <__func__.4057+0x2d8>
   1c8b0:	efeff06f          	j	1bfae <_svfiprintf_r+0x122>
   1c8b4:	200d7793          	andi	a5,s10,512
   1c8b8:	c7ad                	beqz	a5,1c922 <_svfiprintf_r+0xa96>
   1c8ba:	0ffa7a13          	zext.b	s4,s4
   1c8be:	b701                	j	1c7be <_svfiprintf_r+0x932>
   1c8c0:	200d7793          	andi	a5,s10,512
   1c8c4:	cba9                	beqz	a5,1c916 <_svfiprintf_r+0xa8a>
   1c8c6:	67a2                	ld	a5,8(sp)
   1c8c8:	00078a03          	lb	s4,0(a5)
   1c8cc:	87d2                	mv	a5,s4
   1c8ce:	807ff06f          	j	1c0d4 <_svfiprintf_r+0x248>
   1c8d2:	200d7793          	andi	a5,s10,512
   1c8d6:	cb9d                	beqz	a5,1c90c <_svfiprintf_r+0xa80>
   1c8d8:	0ffa7a13          	zext.b	s4,s4
   1c8dc:	841ff06f          	j	1c11c <_svfiprintf_r+0x290>
   1c8e0:	200af793          	andi	a5,s5,512
   1c8e4:	cf89                	beqz	a5,1c8fe <_svfiprintf_r+0xa72>
   1c8e6:	0ffa7a13          	zext.b	s4,s4
   1c8ea:	e436                	sd	a3,8(sp)
   1c8ec:	4785                	li	a5,1
   1c8ee:	83bff06f          	j	1c128 <_svfiprintf_r+0x29c>
   1c8f2:	8636                	mv	a2,a3
   1c8f4:	00002b17          	auipc	s6,0x2
   1c8f8:	604b0b13          	addi	s6,s6,1540 # 1eef8 <zeroes.4483>
   1c8fc:	b135                	j	1c528 <_svfiprintf_r+0x69c>
   1c8fe:	1a02                	slli	s4,s4,0x20
   1c900:	020a5a13          	srli	s4,s4,0x20
   1c904:	e436                	sd	a3,8(sp)
   1c906:	4785                	li	a5,1
   1c908:	821ff06f          	j	1c128 <_svfiprintf_r+0x29c>
   1c90c:	1a02                	slli	s4,s4,0x20
   1c90e:	020a5a13          	srli	s4,s4,0x20
   1c912:	80bff06f          	j	1c11c <_svfiprintf_r+0x290>
   1c916:	67a2                	ld	a5,8(sp)
   1c918:	0007aa03          	lw	s4,0(a5)
   1c91c:	87d2                	mv	a5,s4
   1c91e:	fb6ff06f          	j	1c0d4 <_svfiprintf_r+0x248>
   1c922:	1a02                	slli	s4,s4,0x20
   1c924:	020a5a13          	srli	s4,s4,0x20
   1c928:	bd59                	j	1c7be <_svfiprintf_r+0x932>
   1c92a:	6782                	ld	a5,0(sp)
   1c92c:	00f69023          	sh	a5,0(a3)
   1c930:	db6ff06f          	j	1bee6 <_svfiprintf_r+0x5a>
   1c934:	1090                	addi	a2,sp,96
   1c936:	85a6                	mv	a1,s1
   1c938:	854e                	mv	a0,s3
   1c93a:	bf4ff0ef          	jal	ra,1bd2e <__ssprint_r>
   1c93e:	f44ff06f          	j	1c082 <_svfiprintf_r+0x1f6>
   1c942:	8a66                	mv	s4,s9
   1c944:	e45a                	sd	s6,8(sp)
   1c946:	4c81                	li	s9,0
   1c948:	817ff06f          	j	1c15e <_svfiprintf_r+0x2d2>
   1c94c:	8aea                	mv	s5,s10
   1c94e:	fa4ff06f          	j	1c0f2 <_svfiprintf_r+0x266>
   1c952:	8536                	mv	a0,a3
   1c954:	862e                	mv	a2,a1
   1c956:	00002b17          	auipc	s6,0x2
   1c95a:	5a2b0b13          	addi	s6,s6,1442 # 1eef8 <zeroes.4483>
   1c95e:	b6b9                	j	1c4ac <_svfiprintf_r+0x620>
   1c960:	c29c                	sw	a5,0(a3)
   1c962:	d84ff06f          	j	1bee6 <_svfiprintf_r+0x5a>
   1c966:	57fd                	li	a5,-1
   1c968:	e03e                	sd	a5,0(sp)
   1c96a:	f24ff06f          	j	1c08e <_svfiprintf_r+0x202>
   1c96e:	6622                	ld	a2,8(sp)
   1c970:	4214                	lw	a3,0(a2)
   1c972:	00860b13          	addi	s6,a2,8
   1c976:	8836                	mv	a6,a3
   1c978:	0006d363          	bgez	a3,1c97e <_svfiprintf_r+0xaf2>
   1c97c:	587d                	li	a6,-1
   1c97e:	001dc683          	lbu	a3,1(s11)
   1c982:	00080c9b          	sext.w	s9,a6
   1c986:	e45a                	sd	s6,8(sp)
   1c988:	8dbe                	mv	s11,a5
   1c98a:	dc2ff06f          	j	1bf4c <_svfiprintf_r+0xc0>
   1c98e:	47b1                	li	a5,12
   1c990:	00f9a023          	sw	a5,0(s3)
   1c994:	57fd                	li	a5,-1
   1c996:	e03e                	sd	a5,0(sp)
   1c998:	ef6ff06f          	j	1c08e <_svfiprintf_r+0x202>

000000000001c99c <_close>:
   1c99c:	1141                	addi	sp,sp,-16
   1c99e:	e406                	sd	ra,8(sp)
   1c9a0:	e022                	sd	s0,0(sp)
   1c9a2:	4581                	li	a1,0
   1c9a4:	4601                	li	a2,0
   1c9a6:	4681                	li	a3,0
   1c9a8:	4701                	li	a4,0
   1c9aa:	4781                	li	a5,0
   1c9ac:	03900893          	li	a7,57
   1c9b0:	00000073          	ecall
   1c9b4:	842a                	mv	s0,a0
   1c9b6:	00054763          	bltz	a0,1c9c4 <_close+0x28>
   1c9ba:	2501                	sext.w	a0,a0
   1c9bc:	60a2                	ld	ra,8(sp)
   1c9be:	6402                	ld	s0,0(sp)
   1c9c0:	0141                	addi	sp,sp,16
   1c9c2:	8082                	ret
   1c9c4:	21a000ef          	jal	ra,1cbde <__errno>
   1c9c8:	4080043b          	negw	s0,s0
   1c9cc:	c100                	sw	s0,0(a0)
   1c9ce:	557d                	li	a0,-1
   1c9d0:	b7f5                	j	1c9bc <_close+0x20>

000000000001c9d2 <_exit>:
   1c9d2:	4581                	li	a1,0
   1c9d4:	4601                	li	a2,0
   1c9d6:	4681                	li	a3,0
   1c9d8:	4701                	li	a4,0
   1c9da:	4781                	li	a5,0
   1c9dc:	05d00893          	li	a7,93
   1c9e0:	00000073          	ecall
   1c9e4:	00054363          	bltz	a0,1c9ea <_exit+0x18>
   1c9e8:	a001                	j	1c9e8 <_exit+0x16>
   1c9ea:	1141                	addi	sp,sp,-16
   1c9ec:	e022                	sd	s0,0(sp)
   1c9ee:	842a                	mv	s0,a0
   1c9f0:	e406                	sd	ra,8(sp)
   1c9f2:	4080043b          	negw	s0,s0
   1c9f6:	1e8000ef          	jal	ra,1cbde <__errno>
   1c9fa:	c100                	sw	s0,0(a0)
   1c9fc:	a001                	j	1c9fc <_exit+0x2a>

000000000001c9fe <_fstat>:
   1c9fe:	7135                	addi	sp,sp,-160
   1ca00:	e526                	sd	s1,136(sp)
   1ca02:	ed06                	sd	ra,152(sp)
   1ca04:	84ae                	mv	s1,a1
   1ca06:	e922                	sd	s0,144(sp)
   1ca08:	858a                	mv	a1,sp
   1ca0a:	4601                	li	a2,0
   1ca0c:	4681                	li	a3,0
   1ca0e:	4701                	li	a4,0
   1ca10:	4781                	li	a5,0
   1ca12:	05000893          	li	a7,80
   1ca16:	00000073          	ecall
   1ca1a:	842a                	mv	s0,a0
   1ca1c:	00054e63          	bltz	a0,1ca38 <_fstat+0x3a>
   1ca20:	0005041b          	sext.w	s0,a0
   1ca24:	8526                	mv	a0,s1
   1ca26:	858a                	mv	a1,sp
   1ca28:	15c000ef          	jal	ra,1cb84 <_conv_stat>
   1ca2c:	60ea                	ld	ra,152(sp)
   1ca2e:	8522                	mv	a0,s0
   1ca30:	644a                	ld	s0,144(sp)
   1ca32:	64aa                	ld	s1,136(sp)
   1ca34:	610d                	addi	sp,sp,160
   1ca36:	8082                	ret
   1ca38:	4080043b          	negw	s0,s0
   1ca3c:	1a2000ef          	jal	ra,1cbde <__errno>
   1ca40:	c100                	sw	s0,0(a0)
   1ca42:	547d                	li	s0,-1
   1ca44:	b7c5                	j	1ca24 <_fstat+0x26>

000000000001ca46 <_getpid>:
   1ca46:	4505                	li	a0,1
   1ca48:	8082                	ret

000000000001ca4a <_isatty>:
   1ca4a:	7119                	addi	sp,sp,-128
   1ca4c:	002c                	addi	a1,sp,8
   1ca4e:	fc86                	sd	ra,120(sp)
   1ca50:	fafff0ef          	jal	ra,1c9fe <_fstat>
   1ca54:	57fd                	li	a5,-1
   1ca56:	00f50963          	beq	a0,a5,1ca68 <_isatty+0x1e>
   1ca5a:	4532                	lw	a0,12(sp)
   1ca5c:	70e6                	ld	ra,120(sp)
   1ca5e:	40d5551b          	sraiw	a0,a0,0xd
   1ca62:	8905                	andi	a0,a0,1
   1ca64:	6109                	addi	sp,sp,128
   1ca66:	8082                	ret
   1ca68:	70e6                	ld	ra,120(sp)
   1ca6a:	4501                	li	a0,0
   1ca6c:	6109                	addi	sp,sp,128
   1ca6e:	8082                	ret

000000000001ca70 <_kill>:
   1ca70:	1141                	addi	sp,sp,-16
   1ca72:	e406                	sd	ra,8(sp)
   1ca74:	16a000ef          	jal	ra,1cbde <__errno>
   1ca78:	60a2                	ld	ra,8(sp)
   1ca7a:	47d9                	li	a5,22
   1ca7c:	c11c                	sw	a5,0(a0)
   1ca7e:	557d                	li	a0,-1
   1ca80:	0141                	addi	sp,sp,16
   1ca82:	8082                	ret

000000000001ca84 <_lseek>:
   1ca84:	1141                	addi	sp,sp,-16
   1ca86:	e406                	sd	ra,8(sp)
   1ca88:	e022                	sd	s0,0(sp)
   1ca8a:	4681                	li	a3,0
   1ca8c:	4701                	li	a4,0
   1ca8e:	4781                	li	a5,0
   1ca90:	03e00893          	li	a7,62
   1ca94:	00000073          	ecall
   1ca98:	842a                	mv	s0,a0
   1ca9a:	00054763          	bltz	a0,1caa8 <_lseek+0x24>
   1ca9e:	60a2                	ld	ra,8(sp)
   1caa0:	8522                	mv	a0,s0
   1caa2:	6402                	ld	s0,0(sp)
   1caa4:	0141                	addi	sp,sp,16
   1caa6:	8082                	ret
   1caa8:	4080043b          	negw	s0,s0
   1caac:	132000ef          	jal	ra,1cbde <__errno>
   1cab0:	c100                	sw	s0,0(a0)
   1cab2:	547d                	li	s0,-1
   1cab4:	b7ed                	j	1ca9e <_lseek+0x1a>

000000000001cab6 <_read>:
   1cab6:	1141                	addi	sp,sp,-16
   1cab8:	e406                	sd	ra,8(sp)
   1caba:	e022                	sd	s0,0(sp)
   1cabc:	4681                	li	a3,0
   1cabe:	4701                	li	a4,0
   1cac0:	4781                	li	a5,0
   1cac2:	03f00893          	li	a7,63
   1cac6:	00000073          	ecall
   1caca:	842a                	mv	s0,a0
   1cacc:	00054763          	bltz	a0,1cada <_read+0x24>
   1cad0:	60a2                	ld	ra,8(sp)
   1cad2:	8522                	mv	a0,s0
   1cad4:	6402                	ld	s0,0(sp)
   1cad6:	0141                	addi	sp,sp,16
   1cad8:	8082                	ret
   1cada:	4080043b          	negw	s0,s0
   1cade:	100000ef          	jal	ra,1cbde <__errno>
   1cae2:	c100                	sw	s0,0(a0)
   1cae4:	547d                	li	s0,-1
   1cae6:	b7ed                	j	1cad0 <_read+0x1a>

000000000001cae8 <_sbrk>:
   1cae8:	8d818313          	addi	t1,gp,-1832 # 212c8 <heap_end.1850>
   1caec:	00033783          	ld	a5,0(t1)
   1caf0:	1141                	addi	sp,sp,-16
   1caf2:	e406                	sd	ra,8(sp)
   1caf4:	882a                	mv	a6,a0
   1caf6:	e385                	bnez	a5,1cb16 <_sbrk+0x2e>
   1caf8:	4501                	li	a0,0
   1cafa:	4581                	li	a1,0
   1cafc:	4601                	li	a2,0
   1cafe:	4681                	li	a3,0
   1cb00:	4701                	li	a4,0
   1cb02:	0d600893          	li	a7,214
   1cb06:	00000073          	ecall
   1cb0a:	577d                	li	a4,-1
   1cb0c:	87aa                	mv	a5,a0
   1cb0e:	02e50a63          	beq	a0,a4,1cb42 <_sbrk+0x5a>
   1cb12:	00a33023          	sd	a0,0(t1)
   1cb16:	00f80533          	add	a0,a6,a5
   1cb1a:	4581                	li	a1,0
   1cb1c:	4601                	li	a2,0
   1cb1e:	4681                	li	a3,0
   1cb20:	4701                	li	a4,0
   1cb22:	4781                	li	a5,0
   1cb24:	0d600893          	li	a7,214
   1cb28:	00000073          	ecall
   1cb2c:	00033783          	ld	a5,0(t1)
   1cb30:	983e                	add	a6,a6,a5
   1cb32:	01051863          	bne	a0,a6,1cb42 <_sbrk+0x5a>
   1cb36:	60a2                	ld	ra,8(sp)
   1cb38:	00a33023          	sd	a0,0(t1)
   1cb3c:	853e                	mv	a0,a5
   1cb3e:	0141                	addi	sp,sp,16
   1cb40:	8082                	ret
   1cb42:	09c000ef          	jal	ra,1cbde <__errno>
   1cb46:	60a2                	ld	ra,8(sp)
   1cb48:	47b1                	li	a5,12
   1cb4a:	c11c                	sw	a5,0(a0)
   1cb4c:	557d                	li	a0,-1
   1cb4e:	0141                	addi	sp,sp,16
   1cb50:	8082                	ret

000000000001cb52 <_write>:
   1cb52:	1141                	addi	sp,sp,-16
   1cb54:	e406                	sd	ra,8(sp)
   1cb56:	e022                	sd	s0,0(sp)
   1cb58:	4681                	li	a3,0
   1cb5a:	4701                	li	a4,0
   1cb5c:	4781                	li	a5,0
   1cb5e:	04000893          	li	a7,64
   1cb62:	00000073          	ecall
   1cb66:	842a                	mv	s0,a0
   1cb68:	00054763          	bltz	a0,1cb76 <_write+0x24>
   1cb6c:	60a2                	ld	ra,8(sp)
   1cb6e:	8522                	mv	a0,s0
   1cb70:	6402                	ld	s0,0(sp)
   1cb72:	0141                	addi	sp,sp,16
   1cb74:	8082                	ret
   1cb76:	4080043b          	negw	s0,s0
   1cb7a:	064000ef          	jal	ra,1cbde <__errno>
   1cb7e:	c100                	sw	s0,0(a0)
   1cb80:	547d                	li	s0,-1
   1cb82:	b7ed                	j	1cb6c <_write+0x1a>

000000000001cb84 <_conv_stat>:
   1cb84:	0005b383          	ld	t2,0(a1)
   1cb88:	0085b283          	ld	t0,8(a1)
   1cb8c:	0105af83          	lw	t6,16(a1)
   1cb90:	0145af03          	lw	t5,20(a1)
   1cb94:	0185ae83          	lw	t4,24(a1)
   1cb98:	01c5ae03          	lw	t3,28(a1)
   1cb9c:	0205b303          	ld	t1,32(a1)
   1cba0:	0305b883          	ld	a7,48(a1)
   1cba4:	0405b803          	ld	a6,64(a1)
   1cba8:	5d90                	lw	a2,56(a1)
   1cbaa:	65b4                	ld	a3,72(a1)
   1cbac:	6db8                	ld	a4,88(a1)
   1cbae:	75bc                	ld	a5,104(a1)
   1cbb0:	00751023          	sh	t2,0(a0)
   1cbb4:	00551123          	sh	t0,2(a0)
   1cbb8:	01f52223          	sw	t6,4(a0)
   1cbbc:	01e51423          	sh	t5,8(a0)
   1cbc0:	01d51523          	sh	t4,10(a0)
   1cbc4:	01c51623          	sh	t3,12(a0)
   1cbc8:	00651723          	sh	t1,14(a0)
   1cbcc:	01153823          	sd	a7,16(a0)
   1cbd0:	05053823          	sd	a6,80(a0)
   1cbd4:	e530                	sd	a2,72(a0)
   1cbd6:	ed14                	sd	a3,24(a0)
   1cbd8:	f518                	sd	a4,40(a0)
   1cbda:	fd1c                	sd	a5,56(a0)
   1cbdc:	8082                	ret

000000000001cbde <__errno>:
   1cbde:	8901b503          	ld	a0,-1904(gp) # 21280 <_impure_ptr>
   1cbe2:	8082                	ret

000000000001cbe4 <__eqtf2>:
   1cbe4:	882a                	mv	a6,a0
   1cbe6:	002027f3          	frrm	a5
   1cbea:	6521                	lui	a0,0x8
   1cbec:	0305d893          	srli	a7,a1,0x30
   1cbf0:	157d                	addi	a0,a0,-1
   1cbf2:	57fd                	li	a5,-1
   1cbf4:	83c1                	srli	a5,a5,0x10
   1cbf6:	0306d313          	srli	t1,a3,0x30
   1cbfa:	00a8f8b3          	and	a7,a7,a0
   1cbfe:	00f5f733          	and	a4,a1,a5
   1cc02:	00a37333          	and	t1,t1,a0
   1cc06:	8ff5                	and	a5,a5,a3
   1cc08:	91fd                	srli	a1,a1,0x3f
   1cc0a:	92fd                	srli	a3,a3,0x3f
   1cc0c:	00a89863          	bne	a7,a0,1cc1c <__eqtf2+0x38>
   1cc10:	01076533          	or	a0,a4,a6
   1cc14:	e529                	bnez	a0,1cc5e <__eqtf2+0x7a>
   1cc16:	05131f63          	bne	t1,a7,1cc74 <__eqtf2+0x90>
   1cc1a:	a019                	j	1cc20 <__eqtf2+0x3c>
   1cc1c:	00a31563          	bne	t1,a0,1cc26 <__eqtf2+0x42>
   1cc20:	00c7e533          	or	a0,a5,a2
   1cc24:	e515                	bnez	a0,1cc50 <__eqtf2+0x6c>
   1cc26:	4505                	li	a0,1
   1cc28:	04689763          	bne	a7,t1,1cc76 <__eqtf2+0x92>
   1cc2c:	04f71563          	bne	a4,a5,1cc76 <__eqtf2+0x92>
   1cc30:	04c81363          	bne	a6,a2,1cc76 <__eqtf2+0x92>
   1cc34:	00d58963          	beq	a1,a3,1cc46 <__eqtf2+0x62>
   1cc38:	02089f63          	bnez	a7,1cc76 <__eqtf2+0x92>
   1cc3c:	01076533          	or	a0,a4,a6
   1cc40:	00a03533          	snez	a0,a0
   1cc44:	8082                	ret
   1cc46:	4501                	li	a0,0
   1cc48:	8082                	ret
   1cc4a:	00186073          	csrsi	fflags,16
   1cc4e:	a01d                	j	1cc74 <__eqtf2+0x90>
   1cc50:	66a1                	lui	a3,0x8
   1cc52:	16fd                	addi	a3,a3,-1
   1cc54:	00d89e63          	bne	a7,a3,1cc70 <__eqtf2+0x8c>
   1cc58:	01076533          	or	a0,a4,a6
   1cc5c:	c911                	beqz	a0,1cc70 <__eqtf2+0x8c>
   1cc5e:	933d                	srli	a4,a4,0x2f
   1cc60:	d76d                	beqz	a4,1cc4a <__eqtf2+0x66>
   1cc62:	6721                	lui	a4,0x8
   1cc64:	177d                	addi	a4,a4,-1
   1cc66:	4505                	li	a0,1
   1cc68:	00e31763          	bne	t1,a4,1cc76 <__eqtf2+0x92>
   1cc6c:	8e5d                	or	a2,a2,a5
   1cc6e:	c601                	beqz	a2,1cc76 <__eqtf2+0x92>
   1cc70:	93bd                	srli	a5,a5,0x2f
   1cc72:	dfe1                	beqz	a5,1cc4a <__eqtf2+0x66>
   1cc74:	4505                	li	a0,1
   1cc76:	8082                	ret

000000000001cc78 <__getf2>:
   1cc78:	88aa                	mv	a7,a0
   1cc7a:	002027f3          	frrm	a5
   1cc7e:	6321                	lui	t1,0x8
   1cc80:	137d                	addi	t1,t1,-1
   1cc82:	57fd                	li	a5,-1
   1cc84:	0305d813          	srli	a6,a1,0x30
   1cc88:	83c1                	srli	a5,a5,0x10
   1cc8a:	0306d713          	srli	a4,a3,0x30
   1cc8e:	00687833          	and	a6,a6,t1
   1cc92:	00f5fe33          	and	t3,a1,a5
   1cc96:	03f5d513          	srli	a0,a1,0x3f
   1cc9a:	8ff5                	and	a5,a5,a3
   1cc9c:	00677733          	and	a4,a4,t1
   1cca0:	92fd                	srli	a3,a3,0x3f
   1cca2:	00681963          	bne	a6,t1,1ccb4 <__getf2+0x3c>
   1cca6:	011e65b3          	or	a1,t3,a7
   1ccaa:	c5b5                	beqz	a1,1cd16 <__getf2+0x9e>
   1ccac:	00186073          	csrsi	fflags,16
   1ccb0:	5579                	li	a0,-2
   1ccb2:	8082                	ret
   1ccb4:	00671563          	bne	a4,t1,1ccbe <__getf2+0x46>
   1ccb8:	00c7e5b3          	or	a1,a5,a2
   1ccbc:	f9e5                	bnez	a1,1ccac <__getf2+0x34>
   1ccbe:	04081e63          	bnez	a6,1cd1a <__getf2+0xa2>
   1ccc2:	011e65b3          	or	a1,t3,a7
   1ccc6:	0015b593          	seqz	a1,a1
   1ccca:	e709                	bnez	a4,1ccd4 <__getf2+0x5c>
   1cccc:	00c7e333          	or	t1,a5,a2
   1ccd0:	02030e63          	beqz	t1,1cd0c <__getf2+0x94>
   1ccd4:	e981                	bnez	a1,1cce4 <__getf2+0x6c>
   1ccd6:	00d51463          	bne	a0,a3,1ccde <__getf2+0x66>
   1ccda:	01075963          	bge	a4,a6,1ccec <__getf2+0x74>
   1ccde:	c50d                	beqz	a0,1cd08 <__getf2+0x90>
   1cce0:	557d                	li	a0,-1
   1cce2:	8082                	ret
   1cce4:	557d                	li	a0,-1
   1cce6:	c691                	beqz	a3,1ccf2 <__getf2+0x7a>
   1cce8:	8536                	mv	a0,a3
   1ccea:	8082                	ret
   1ccec:	00e85463          	bge	a6,a4,1ccf4 <__getf2+0x7c>
   1ccf0:	d965                	beqz	a0,1cce0 <__getf2+0x68>
   1ccf2:	8082                	ret
   1ccf4:	ffc7e5e3          	bltu	a5,t3,1ccde <__getf2+0x66>
   1ccf8:	00fe1c63          	bne	t3,a5,1cd10 <__getf2+0x98>
   1ccfc:	ff1661e3          	bltu	a2,a7,1ccde <__getf2+0x66>
   1cd00:	fec8e8e3          	bltu	a7,a2,1ccf0 <__getf2+0x78>
   1cd04:	4501                	li	a0,0
   1cd06:	8082                	ret
   1cd08:	4505                	li	a0,1
   1cd0a:	8082                	ret
   1cd0c:	fde5                	bnez	a1,1cd04 <__getf2+0x8c>
   1cd0e:	bfc1                	j	1ccde <__getf2+0x66>
   1cd10:	fefe60e3          	bltu	t3,a5,1ccf0 <__getf2+0x78>
   1cd14:	bfc5                	j	1cd04 <__getf2+0x8c>
   1cd16:	fb0701e3          	beq	a4,a6,1ccb8 <__getf2+0x40>
   1cd1a:	ff55                	bnez	a4,1ccd6 <__getf2+0x5e>
   1cd1c:	4581                	li	a1,0
   1cd1e:	b77d                	j	1cccc <__getf2+0x54>

000000000001cd20 <__letf2>:
   1cd20:	88aa                	mv	a7,a0
   1cd22:	002027f3          	frrm	a5
   1cd26:	6321                	lui	t1,0x8
   1cd28:	137d                	addi	t1,t1,-1
   1cd2a:	57fd                	li	a5,-1
   1cd2c:	0305d813          	srli	a6,a1,0x30
   1cd30:	83c1                	srli	a5,a5,0x10
   1cd32:	0306d713          	srli	a4,a3,0x30
   1cd36:	00687833          	and	a6,a6,t1
   1cd3a:	00f5fe33          	and	t3,a1,a5
   1cd3e:	03f5d513          	srli	a0,a1,0x3f
   1cd42:	8ff5                	and	a5,a5,a3
   1cd44:	00677733          	and	a4,a4,t1
   1cd48:	92fd                	srli	a3,a3,0x3f
   1cd4a:	00681963          	bne	a6,t1,1cd5c <__letf2+0x3c>
   1cd4e:	011e65b3          	or	a1,t3,a7
   1cd52:	c5b5                	beqz	a1,1cdbe <__letf2+0x9e>
   1cd54:	00186073          	csrsi	fflags,16
   1cd58:	4509                	li	a0,2
   1cd5a:	8082                	ret
   1cd5c:	00671563          	bne	a4,t1,1cd66 <__letf2+0x46>
   1cd60:	00c7e5b3          	or	a1,a5,a2
   1cd64:	f9e5                	bnez	a1,1cd54 <__letf2+0x34>
   1cd66:	04081e63          	bnez	a6,1cdc2 <__letf2+0xa2>
   1cd6a:	011e65b3          	or	a1,t3,a7
   1cd6e:	0015b593          	seqz	a1,a1
   1cd72:	e709                	bnez	a4,1cd7c <__letf2+0x5c>
   1cd74:	00c7e333          	or	t1,a5,a2
   1cd78:	02030e63          	beqz	t1,1cdb4 <__letf2+0x94>
   1cd7c:	e981                	bnez	a1,1cd8c <__letf2+0x6c>
   1cd7e:	00d51463          	bne	a0,a3,1cd86 <__letf2+0x66>
   1cd82:	01075963          	bge	a4,a6,1cd94 <__letf2+0x74>
   1cd86:	c50d                	beqz	a0,1cdb0 <__letf2+0x90>
   1cd88:	557d                	li	a0,-1
   1cd8a:	8082                	ret
   1cd8c:	557d                	li	a0,-1
   1cd8e:	c691                	beqz	a3,1cd9a <__letf2+0x7a>
   1cd90:	8536                	mv	a0,a3
   1cd92:	8082                	ret
   1cd94:	00e85463          	bge	a6,a4,1cd9c <__letf2+0x7c>
   1cd98:	d965                	beqz	a0,1cd88 <__letf2+0x68>
   1cd9a:	8082                	ret
   1cd9c:	ffc7e5e3          	bltu	a5,t3,1cd86 <__letf2+0x66>
   1cda0:	00fe1c63          	bne	t3,a5,1cdb8 <__letf2+0x98>
   1cda4:	ff1661e3          	bltu	a2,a7,1cd86 <__letf2+0x66>
   1cda8:	fec8e8e3          	bltu	a7,a2,1cd98 <__letf2+0x78>
   1cdac:	4501                	li	a0,0
   1cdae:	8082                	ret
   1cdb0:	4505                	li	a0,1
   1cdb2:	8082                	ret
   1cdb4:	fde5                	bnez	a1,1cdac <__letf2+0x8c>
   1cdb6:	bfc1                	j	1cd86 <__letf2+0x66>
   1cdb8:	fefe60e3          	bltu	t3,a5,1cd98 <__letf2+0x78>
   1cdbc:	bfc5                	j	1cdac <__letf2+0x8c>
   1cdbe:	fb0701e3          	beq	a4,a6,1cd60 <__letf2+0x40>
   1cdc2:	ff55                	bnez	a4,1cd7e <__letf2+0x5e>
   1cdc4:	4581                	li	a1,0
   1cdc6:	b77d                	j	1cd74 <__letf2+0x54>

000000000001cdc8 <__multf3>:
   1cdc8:	711d                	addi	sp,sp,-96
   1cdca:	f05a                	sd	s6,32(sp)
   1cdcc:	e466                	sd	s9,8(sp)
   1cdce:	ec86                	sd	ra,88(sp)
   1cdd0:	e8a2                	sd	s0,80(sp)
   1cdd2:	e4a6                	sd	s1,72(sp)
   1cdd4:	e0ca                	sd	s2,64(sp)
   1cdd6:	fc4e                	sd	s3,56(sp)
   1cdd8:	f852                	sd	s4,48(sp)
   1cdda:	f456                	sd	s5,40(sp)
   1cddc:	ec5e                	sd	s7,24(sp)
   1cdde:	e862                	sd	s8,16(sp)
   1cde0:	8cb2                	mv	s9,a2
   1cde2:	8b36                	mv	s6,a3
   1cde4:	002029f3          	frrm	s3
   1cde8:	6721                	lui	a4,0x8
   1cdea:	0305da93          	srli	s5,a1,0x30
   1cdee:	177d                	addi	a4,a4,-1
   1cdf0:	01059493          	slli	s1,a1,0x10
   1cdf4:	00eaf7b3          	and	a5,s5,a4
   1cdf8:	2981                	sext.w	s3,s3
   1cdfa:	80c1                	srli	s1,s1,0x10
   1cdfc:	03f5db93          	srli	s7,a1,0x3f
   1ce00:	c78d                	beqz	a5,1ce2a <__multf3+0x62>
   1ce02:	8a2a                	mv	s4,a0
   1ce04:	00078a9b          	sext.w	s5,a5
   1ce08:	08e78263          	beq	a5,a4,1ce8c <__multf3+0xc4>
   1ce0c:	048e                	slli	s1,s1,0x3
   1ce0e:	03d55713          	srli	a4,a0,0x3d
   1ce12:	8f45                	or	a4,a4,s1
   1ce14:	7af1                	lui	s5,0xffffc
   1ce16:	4485                	li	s1,1
   1ce18:	14ce                	slli	s1,s1,0x33
   1ce1a:	0a85                	addi	s5,s5,1
   1ce1c:	8cd9                	or	s1,s1,a4
   1ce1e:	00351a13          	slli	s4,a0,0x3
   1ce22:	9abe                	add	s5,s5,a5
   1ce24:	4c01                	li	s8,0
   1ce26:	4901                	li	s2,0
   1ce28:	a89d                	j	1ce9e <__multf3+0xd6>
   1ce2a:	00a4e7b3          	or	a5,s1,a0
   1ce2e:	842a                	mv	s0,a0
   1ce30:	cbf1                	beqz	a5,1cf04 <__multf3+0x13c>
   1ce32:	c0a1                	beqz	s1,1ce72 <__multf3+0xaa>
   1ce34:	8526                	mv	a0,s1
   1ce36:	184010ef          	jal	ra,1dfba <__clzdi2>
   1ce3a:	0005079b          	sext.w	a5,a0
   1ce3e:	ff178693          	addi	a3,a5,-15
   1ce42:	03c00613          	li	a2,60
   1ce46:	0006871b          	sext.w	a4,a3
   1ce4a:	02d64b63          	blt	a2,a3,1ce80 <__multf3+0xb8>
   1ce4e:	03d00693          	li	a3,61
   1ce52:	00370a1b          	addiw	s4,a4,3
   1ce56:	40e6873b          	subw	a4,a3,a4
   1ce5a:	014494b3          	sll	s1,s1,s4
   1ce5e:	00e45733          	srl	a4,s0,a4
   1ce62:	8cd9                	or	s1,s1,a4
   1ce64:	01441a33          	sll	s4,s0,s4
   1ce68:	7af1                	lui	s5,0xffffc
   1ce6a:	0ac5                	addi	s5,s5,17
   1ce6c:	40fa8ab3          	sub	s5,s5,a5
   1ce70:	bf55                	j	1ce24 <__multf3+0x5c>
   1ce72:	148010ef          	jal	ra,1dfba <__clzdi2>
   1ce76:	00050a9b          	sext.w	s5,a0
   1ce7a:	040a8793          	addi	a5,s5,64 # ffffffffffffc040 <__BSS_END__+0xffffffffffee5310>
   1ce7e:	b7c1                	j	1ce3e <__multf3+0x76>
   1ce80:	fc37049b          	addiw	s1,a4,-61
   1ce84:	009414b3          	sll	s1,s0,s1
   1ce88:	4a01                	li	s4,0
   1ce8a:	bff9                	j	1ce68 <__multf3+0xa0>
   1ce8c:	00a4e7b3          	or	a5,s1,a0
   1ce90:	cfbd                	beqz	a5,1cf0e <__multf3+0x146>
   1ce92:	01049793          	slli	a5,s1,0x10
   1ce96:	4c0d                	li	s8,3
   1ce98:	4941                	li	s2,16
   1ce9a:	f807c6e3          	bltz	a5,1ce26 <__multf3+0x5e>
   1ce9e:	66a1                	lui	a3,0x8
   1cea0:	030b5513          	srli	a0,s6,0x30
   1cea4:	16fd                	addi	a3,a3,-1
   1cea6:	010b1413          	slli	s0,s6,0x10
   1ceaa:	00d57733          	and	a4,a0,a3
   1ceae:	87e6                	mv	a5,s9
   1ceb0:	8041                	srli	s0,s0,0x10
   1ceb2:	03fb5b13          	srli	s6,s6,0x3f
   1ceb6:	c325                	beqz	a4,1cf16 <__multf3+0x14e>
   1ceb8:	0007051b          	sext.w	a0,a4
   1cebc:	0ad70c63          	beq	a4,a3,1cf74 <__multf3+0x1ac>
   1cec0:	040e                	slli	s0,s0,0x3
   1cec2:	03dcd593          	srli	a1,s9,0x3d
   1cec6:	8dc1                	or	a1,a1,s0
   1cec8:	7571                	lui	a0,0xffffc
   1ceca:	4405                	li	s0,1
   1cecc:	144e                	slli	s0,s0,0x33
   1cece:	0505                	addi	a0,a0,1
   1ced0:	8c4d                	or	s0,s0,a1
   1ced2:	003c9793          	slli	a5,s9,0x3
   1ced6:	953a                	add	a0,a0,a4
   1ced8:	4701                	li	a4,0
   1ceda:	002c1693          	slli	a3,s8,0x2
   1cede:	8ed9                	or	a3,a3,a4
   1cee0:	9aaa                	add	s5,s5,a0
   1cee2:	16fd                	addi	a3,a3,-1
   1cee4:	45b9                	li	a1,14
   1cee6:	016bc633          	xor	a2,s7,s6
   1ceea:	001a8813          	addi	a6,s5,1
   1ceee:	0ed5e963          	bltu	a1,a3,1cfe0 <__multf3+0x218>
   1cef2:	00002597          	auipc	a1,0x2
   1cef6:	01658593          	addi	a1,a1,22 # 1ef08 <zeroes.4483+0x10>
   1cefa:	068a                	slli	a3,a3,0x2
   1cefc:	96ae                	add	a3,a3,a1
   1cefe:	4294                	lw	a3,0(a3)
   1cf00:	96ae                	add	a3,a3,a1
   1cf02:	8682                	jr	a3
   1cf04:	4481                	li	s1,0
   1cf06:	4a01                	li	s4,0
   1cf08:	4a81                	li	s5,0
   1cf0a:	4c05                	li	s8,1
   1cf0c:	bf29                	j	1ce26 <__multf3+0x5e>
   1cf0e:	4481                	li	s1,0
   1cf10:	4a01                	li	s4,0
   1cf12:	4c09                	li	s8,2
   1cf14:	bf09                	j	1ce26 <__multf3+0x5e>
   1cf16:	019467b3          	or	a5,s0,s9
   1cf1a:	c7bd                	beqz	a5,1cf88 <__multf3+0x1c0>
   1cf1c:	cc1d                	beqz	s0,1cf5a <__multf3+0x192>
   1cf1e:	8522                	mv	a0,s0
   1cf20:	09a010ef          	jal	ra,1dfba <__clzdi2>
   1cf24:	0005071b          	sext.w	a4,a0
   1cf28:	ff170793          	addi	a5,a4,-15 # 7ff1 <register_fini-0x80f7>
   1cf2c:	03c00613          	li	a2,60
   1cf30:	0007869b          	sext.w	a3,a5
   1cf34:	02f64a63          	blt	a2,a5,1cf68 <__multf3+0x1a0>
   1cf38:	03d00613          	li	a2,61
   1cf3c:	0036879b          	addiw	a5,a3,3
   1cf40:	40d606bb          	subw	a3,a2,a3
   1cf44:	00f41433          	sll	s0,s0,a5
   1cf48:	00dcd6b3          	srl	a3,s9,a3
   1cf4c:	8c55                	or	s0,s0,a3
   1cf4e:	00fc97b3          	sll	a5,s9,a5
   1cf52:	7571                	lui	a0,0xffffc
   1cf54:	0545                	addi	a0,a0,17
   1cf56:	8d19                	sub	a0,a0,a4
   1cf58:	b741                	j	1ced8 <__multf3+0x110>
   1cf5a:	8566                	mv	a0,s9
   1cf5c:	05e010ef          	jal	ra,1dfba <__clzdi2>
   1cf60:	2501                	sext.w	a0,a0
   1cf62:	04050713          	addi	a4,a0,64 # ffffffffffffc040 <__BSS_END__+0xffffffffffee5310>
   1cf66:	b7c9                	j	1cf28 <__multf3+0x160>
   1cf68:	fc36841b          	addiw	s0,a3,-61
   1cf6c:	008c9433          	sll	s0,s9,s0
   1cf70:	4781                	li	a5,0
   1cf72:	b7c5                	j	1cf52 <__multf3+0x18a>
   1cf74:	01946733          	or	a4,s0,s9
   1cf78:	cf09                	beqz	a4,1cf92 <__multf3+0x1ca>
   1cf7a:	01041713          	slli	a4,s0,0x10
   1cf7e:	00074e63          	bltz	a4,1cf9a <__multf3+0x1d2>
   1cf82:	470d                	li	a4,3
   1cf84:	4941                	li	s2,16
   1cf86:	bf91                	j	1ceda <__multf3+0x112>
   1cf88:	4401                	li	s0,0
   1cf8a:	4781                	li	a5,0
   1cf8c:	4501                	li	a0,0
   1cf8e:	4705                	li	a4,1
   1cf90:	b7a9                	j	1ceda <__multf3+0x112>
   1cf92:	4401                	li	s0,0
   1cf94:	4781                	li	a5,0
   1cf96:	4709                	li	a4,2
   1cf98:	b789                	j	1ceda <__multf3+0x112>
   1cf9a:	470d                	li	a4,3
   1cf9c:	bf3d                	j	1ceda <__multf3+0x112>
   1cf9e:	4405                	li	s0,1
   1cfa0:	6721                	lui	a4,0x8
   1cfa2:	143e                	slli	s0,s0,0x2f
   1cfa4:	4501                	li	a0,0
   1cfa6:	177d                	addi	a4,a4,-1
   1cfa8:	4601                	li	a2,0
   1cfaa:	4941                	li	s2,16
   1cfac:	1746                	slli	a4,a4,0x31
   1cfae:	9345                	srli	a4,a4,0x31
   1cfb0:	00f61593          	slli	a1,a2,0xf
   1cfb4:	0442                	slli	s0,s0,0x10
   1cfb6:	8dd9                	or	a1,a1,a4
   1cfb8:	15c2                	slli	a1,a1,0x30
   1cfba:	8041                	srli	s0,s0,0x10
   1cfbc:	8dc1                	or	a1,a1,s0
   1cfbe:	00090463          	beqz	s2,1cfc6 <__multf3+0x1fe>
   1cfc2:	00192073          	csrs	fflags,s2
   1cfc6:	60e6                	ld	ra,88(sp)
   1cfc8:	6446                	ld	s0,80(sp)
   1cfca:	64a6                	ld	s1,72(sp)
   1cfcc:	6906                	ld	s2,64(sp)
   1cfce:	79e2                	ld	s3,56(sp)
   1cfd0:	7a42                	ld	s4,48(sp)
   1cfd2:	7aa2                	ld	s5,40(sp)
   1cfd4:	7b02                	ld	s6,32(sp)
   1cfd6:	6be2                	ld	s7,24(sp)
   1cfd8:	6c42                	ld	s8,16(sp)
   1cfda:	6ca2                	ld	s9,8(sp)
   1cfdc:	6125                	addi	sp,sp,96
   1cfde:	8082                	ret
   1cfe0:	557d                	li	a0,-1
   1cfe2:	014483b3          	add	t2,s1,s4
   1cfe6:	00878f33          	add	t5,a5,s0
   1cfea:	9101                	srli	a0,a0,0x20
   1cfec:	020a5e93          	srli	t4,s4,0x20
   1cff0:	0207d693          	srli	a3,a5,0x20
   1cff4:	0143bfb3          	sltu	t6,t2,s4
   1cff8:	0143be33          	sltu	t3,t2,s4
   1cffc:	00ff32b3          	sltu	t0,t5,a5
   1d000:	00aa7a33          	and	s4,s4,a0
   1d004:	00ff3333          	sltu	t1,t5,a5
   1d008:	8fe9                	and	a5,a5,a0
   1d00a:	034785b3          	mul	a1,a5,s4
   1d00e:	02de8733          	mul	a4,t4,a3
   1d012:	02fe87b3          	mul	a5,t4,a5
   1d016:	034686b3          	mul	a3,a3,s4
   1d01a:	0205da13          	srli	s4,a1,0x20
   1d01e:	96be                	add	a3,a3,a5
   1d020:	9a36                	add	s4,s4,a3
   1d022:	00fa7563          	bgeu	s4,a5,1d02c <__multf3+0x264>
   1d026:	4785                	li	a5,1
   1d028:	1782                	slli	a5,a5,0x20
   1d02a:	973e                	add	a4,a4,a5
   1d02c:	56fd                	li	a3,-1
   1d02e:	9281                	srli	a3,a3,0x20
   1d030:	00da7533          	and	a0,s4,a3
   1d034:	8df5                	and	a1,a1,a3
   1d036:	1502                	slli	a0,a0,0x20
   1d038:	0203d893          	srli	a7,t2,0x20
   1d03c:	020f5793          	srli	a5,t5,0x20
   1d040:	020a5e93          	srli	t4,s4,0x20
   1d044:	952e                	add	a0,a0,a1
   1d046:	00d3f5b3          	and	a1,t2,a3
   1d04a:	00df76b3          	and	a3,t5,a3
   1d04e:	02f88b33          	mul	s6,a7,a5
   1d052:	9eba                	add	t4,t4,a4
   1d054:	02b787b3          	mul	a5,a5,a1
   1d058:	02b68733          	mul	a4,a3,a1
   1d05c:	02d886b3          	mul	a3,a7,a3
   1d060:	00d785b3          	add	a1,a5,a3
   1d064:	02075793          	srli	a5,a4,0x20
   1d068:	97ae                	add	a5,a5,a1
   1d06a:	00d7f563          	bgeu	a5,a3,1d074 <__multf3+0x2ac>
   1d06e:	4685                	li	a3,1
   1d070:	1682                	slli	a3,a3,0x20
   1d072:	9b36                	add	s6,s6,a3
   1d074:	58fd                	li	a7,-1
   1d076:	0208d893          	srli	a7,a7,0x20
   1d07a:	0117f6b3          	and	a3,a5,a7
   1d07e:	02045b93          	srli	s7,s0,0x20
   1d082:	0207da13          	srli	s4,a5,0x20
   1d086:	01147433          	and	s0,s0,a7
   1d08a:	0204d793          	srli	a5,s1,0x20
   1d08e:	0114f4b3          	and	s1,s1,a7
   1d092:	011775b3          	and	a1,a4,a7
   1d096:	028488b3          	mul	a7,s1,s0
   1d09a:	1682                	slli	a3,a3,0x20
   1d09c:	95b6                	add	a1,a1,a3
   1d09e:	02878433          	mul	s0,a5,s0
   1d0a2:	037787b3          	mul	a5,a5,s7
   1d0a6:	029b8bb3          	mul	s7,s7,s1
   1d0aa:	0208d493          	srli	s1,a7,0x20
   1d0ae:	9ba2                	add	s7,s7,s0
   1d0b0:	94de                	add	s1,s1,s7
   1d0b2:	0084f563          	bgeu	s1,s0,1d0bc <__multf3+0x2f4>
   1d0b6:	4705                	li	a4,1
   1d0b8:	1702                	slli	a4,a4,0x20
   1d0ba:	97ba                	add	a5,a5,a4
   1d0bc:	0204d693          	srli	a3,s1,0x20
   1d0c0:	97b6                	add	a5,a5,a3
   1d0c2:	56fd                	li	a3,-1
   1d0c4:	9281                	srli	a3,a3,0x20
   1d0c6:	00d8f8b3          	and	a7,a7,a3
   1d0ca:	00d4f733          	and	a4,s1,a3
   1d0ce:	01d586b3          	add	a3,a1,t4
   1d0d2:	01d6b5b3          	sltu	a1,a3,t4
   1d0d6:	1702                	slli	a4,a4,0x20
   1d0d8:	40600333          	neg	t1,t1
   1d0dc:	9746                	add	a4,a4,a7
   1d0de:	00ba08b3          	add	a7,s4,a1
   1d0e2:	98da                	add	a7,a7,s6
   1d0e4:	007373b3          	and	t2,t1,t2
   1d0e8:	41c00e33          	neg	t3,t3
   1d0ec:	93c6                	add	t2,t2,a7
   1d0ee:	01ee7f33          	and	t5,t3,t5
   1d0f2:	00b8b5b3          	sltu	a1,a7,a1
   1d0f6:	005fffb3          	and	t6,t6,t0
   1d0fa:	9f1e                	add	t5,t5,t2
   1d0fc:	0113b8b3          	sltu	a7,t2,a7
   1d100:	95fe                	add	a1,a1,t6
   1d102:	40a68333          	sub	t1,a3,a0
   1d106:	95c6                	add	a1,a1,a7
   1d108:	0066be33          	sltu	t3,a3,t1
   1d10c:	41df08b3          	sub	a7,t5,t4
   1d110:	007f33b3          	sltu	t2,t5,t2
   1d114:	011f3fb3          	sltu	t6,t5,a7
   1d118:	959e                	add	a1,a1,t2
   1d11a:	41c888b3          	sub	a7,a7,t3
   1d11e:	4e01                	li	t3,0
   1d120:	0066f663          	bgeu	a3,t1,1d12c <__multf3+0x364>
   1d124:	41ee8f33          	sub	t5,t4,t5
   1d128:	001f3e13          	seqz	t3,t5
   1d12c:	01fe6f33          	or	t5,t3,t6
   1d130:	40e30e33          	sub	t3,t1,a4
   1d134:	40f886b3          	sub	a3,a7,a5
   1d138:	95be                	add	a1,a1,a5
   1d13a:	01c337b3          	sltu	a5,t1,t3
   1d13e:	00d8b8b3          	sltu	a7,a7,a3
   1d142:	40f707b3          	sub	a5,a4,a5
   1d146:	4f81                	li	t6,0
   1d148:	01c37463          	bgeu	t1,t3,1d150 <__multf3+0x388>
   1d14c:	0016bf93          	seqz	t6,a3
   1d150:	96be                	add	a3,a3,a5
   1d152:	00e6b733          	sltu	a4,a3,a4
   1d156:	972e                	add	a4,a4,a1
   1d158:	00de1793          	slli	a5,t3,0xd
   1d15c:	8fc9                	or	a5,a5,a0
   1d15e:	41e70733          	sub	a4,a4,t5
   1d162:	011fe8b3          	or	a7,t6,a7
   1d166:	41170733          	sub	a4,a4,a7
   1d16a:	00f037b3          	snez	a5,a5
   1d16e:	033e5513          	srli	a0,t3,0x33
   1d172:	0736                	slli	a4,a4,0xd
   1d174:	0336d413          	srli	s0,a3,0x33
   1d178:	8fc9                	or	a5,a5,a0
   1d17a:	06b6                	slli	a3,a3,0xd
   1d17c:	8fd5                	or	a5,a5,a3
   1d17e:	00b71693          	slli	a3,a4,0xb
   1d182:	8c59                	or	s0,s0,a4
   1d184:	0606da63          	bgez	a3,1d1f8 <__multf3+0x430>
   1d188:	0017d713          	srli	a4,a5,0x1
   1d18c:	8b85                	andi	a5,a5,1
   1d18e:	03f41513          	slli	a0,s0,0x3f
   1d192:	8fd9                	or	a5,a5,a4
   1d194:	8fc9                	or	a5,a5,a0
   1d196:	8005                	srli	s0,s0,0x1
   1d198:	6711                	lui	a4,0x4
   1d19a:	177d                	addi	a4,a4,-1
   1d19c:	9742                	add	a4,a4,a6
   1d19e:	0ce05263          	blez	a4,1d262 <__multf3+0x49a>
   1d1a2:	0077f693          	andi	a3,a5,7
   1d1a6:	c2a5                	beqz	a3,1d206 <__multf3+0x43e>
   1d1a8:	4689                	li	a3,2
   1d1aa:	00196913          	ori	s2,s2,1
   1d1ae:	04d98b63          	beq	s3,a3,1d204 <__multf3+0x43c>
   1d1b2:	468d                	li	a3,3
   1d1b4:	04d98463          	beq	s3,a3,1d1fc <__multf3+0x434>
   1d1b8:	04099763          	bnez	s3,1d206 <__multf3+0x43e>
   1d1bc:	00f7f693          	andi	a3,a5,15
   1d1c0:	4591                	li	a1,4
   1d1c2:	04b68263          	beq	a3,a1,1d206 <__multf3+0x43e>
   1d1c6:	00478693          	addi	a3,a5,4
   1d1ca:	00f6b7b3          	sltu	a5,a3,a5
   1d1ce:	943e                	add	s0,s0,a5
   1d1d0:	87b6                	mv	a5,a3
   1d1d2:	a815                	j	1d206 <__multf3+0x43e>
   1d1d4:	865e                	mv	a2,s7
   1d1d6:	8426                	mv	s0,s1
   1d1d8:	87d2                	mv	a5,s4
   1d1da:	8762                	mv	a4,s8
   1d1dc:	4689                	li	a3,2
   1d1de:	1ed70263          	beq	a4,a3,1d3c2 <__multf3+0x5fa>
   1d1e2:	468d                	li	a3,3
   1d1e4:	1ed70463          	beq	a4,a3,1d3cc <__multf3+0x604>
   1d1e8:	4685                	li	a3,1
   1d1ea:	fad717e3          	bne	a4,a3,1d198 <__multf3+0x3d0>
   1d1ee:	4401                	li	s0,0
   1d1f0:	4501                	li	a0,0
   1d1f2:	aa7d                	j	1d3b0 <__multf3+0x5e8>
   1d1f4:	865a                	mv	a2,s6
   1d1f6:	b7dd                	j	1d1dc <__multf3+0x414>
   1d1f8:	8856                	mv	a6,s5
   1d1fa:	bf79                	j	1d198 <__multf3+0x3d0>
   1d1fc:	e609                	bnez	a2,1d206 <__multf3+0x43e>
   1d1fe:	00878693          	addi	a3,a5,8
   1d202:	b7e1                	j	1d1ca <__multf3+0x402>
   1d204:	fe6d                	bnez	a2,1d1fe <__multf3+0x436>
   1d206:	00b41693          	slli	a3,s0,0xb
   1d20a:	0006d863          	bgez	a3,1d21a <__multf3+0x452>
   1d20e:	577d                	li	a4,-1
   1d210:	1752                	slli	a4,a4,0x34
   1d212:	177d                	addi	a4,a4,-1
   1d214:	8c79                	and	s0,s0,a4
   1d216:	6711                	lui	a4,0x4
   1d218:	9742                	add	a4,a4,a6
   1d21a:	66a1                	lui	a3,0x8
   1d21c:	ffe68593          	addi	a1,a3,-2 # 7ffe <register_fini-0x80ea>
   1d220:	00e5c963          	blt	a1,a4,1d232 <__multf3+0x46a>
   1d224:	0037d513          	srli	a0,a5,0x3
   1d228:	03d41793          	slli	a5,s0,0x3d
   1d22c:	8d5d                	or	a0,a0,a5
   1d22e:	800d                	srli	s0,s0,0x3
   1d230:	bbb5                	j	1cfac <__multf3+0x1e4>
   1d232:	4789                	li	a5,2
   1d234:	02f98263          	beq	s3,a5,1d258 <__multf3+0x490>
   1d238:	478d                	li	a5,3
   1d23a:	fff68713          	addi	a4,a3,-1
   1d23e:	00f98663          	beq	s3,a5,1d24a <__multf3+0x482>
   1d242:	00099563          	bnez	s3,1d24c <__multf3+0x484>
   1d246:	4501                	li	a0,0
   1d248:	a021                	j	1d250 <__multf3+0x488>
   1d24a:	de75                	beqz	a2,1d246 <__multf3+0x47e>
   1d24c:	557d                	li	a0,-1
   1d24e:	872e                	mv	a4,a1
   1d250:	00596913          	ori	s2,s2,5
   1d254:	842a                	mv	s0,a0
   1d256:	bb99                	j	1cfac <__multf3+0x1e4>
   1d258:	da75                	beqz	a2,1d24c <__multf3+0x484>
   1d25a:	4501                	li	a0,0
   1d25c:	fff68713          	addi	a4,a3,-1
   1d260:	bfc5                	j	1d250 <__multf3+0x488>
   1d262:	4685                	li	a3,1
   1d264:	e731                	bnez	a4,1d2b0 <__multf3+0x4e8>
   1d266:	0077f593          	andi	a1,a5,7
   1d26a:	86a2                	mv	a3,s0
   1d26c:	cd95                	beqz	a1,1d2a8 <__multf3+0x4e0>
   1d26e:	4689                	li	a3,2
   1d270:	00196913          	ori	s2,s2,1
   1d274:	02d98863          	beq	s3,a3,1d2a4 <__multf3+0x4dc>
   1d278:	468d                	li	a3,3
   1d27a:	02d98063          	beq	s3,a3,1d29a <__multf3+0x4d2>
   1d27e:	86a2                	mv	a3,s0
   1d280:	02099463          	bnez	s3,1d2a8 <__multf3+0x4e0>
   1d284:	00f7f593          	andi	a1,a5,15
   1d288:	4511                	li	a0,4
   1d28a:	00a58f63          	beq	a1,a0,1d2a8 <__multf3+0x4e0>
   1d28e:	ffc7b693          	sltiu	a3,a5,-4
   1d292:	0016c693          	xori	a3,a3,1
   1d296:	96a2                	add	a3,a3,s0
   1d298:	a801                	j	1d2a8 <__multf3+0x4e0>
   1d29a:	86a2                	mv	a3,s0
   1d29c:	e611                	bnez	a2,1d2a8 <__multf3+0x4e0>
   1d29e:	ff87b693          	sltiu	a3,a5,-8
   1d2a2:	bfc5                	j	1d292 <__multf3+0x4ca>
   1d2a4:	86a2                	mv	a3,s0
   1d2a6:	fe65                	bnez	a2,1d29e <__multf3+0x4d6>
   1d2a8:	92d1                	srli	a3,a3,0x34
   1d2aa:	0016c693          	xori	a3,a3,1
   1d2ae:	8a85                	andi	a3,a3,1
   1d2b0:	4585                	li	a1,1
   1d2b2:	40e58733          	sub	a4,a1,a4
   1d2b6:	07400593          	li	a1,116
   1d2ba:	0ce5c763          	blt	a1,a4,1d388 <__multf3+0x5c0>
   1d2be:	03f00513          	li	a0,63
   1d2c2:	0007059b          	sext.w	a1,a4
   1d2c6:	04e54b63          	blt	a0,a4,1d31c <__multf3+0x554>
   1d2ca:	04000713          	li	a4,64
   1d2ce:	9f0d                	subw	a4,a4,a1
   1d2d0:	00e41533          	sll	a0,s0,a4
   1d2d4:	00b7d833          	srl	a6,a5,a1
   1d2d8:	00e797b3          	sll	a5,a5,a4
   1d2dc:	01056533          	or	a0,a0,a6
   1d2e0:	00f037b3          	snez	a5,a5
   1d2e4:	8d5d                	or	a0,a0,a5
   1d2e6:	00b45433          	srl	s0,s0,a1
   1d2ea:	00757793          	andi	a5,a0,7
   1d2ee:	c3b5                	beqz	a5,1d352 <__multf3+0x58a>
   1d2f0:	4789                	li	a5,2
   1d2f2:	00196913          	ori	s2,s2,1
   1d2f6:	04f98d63          	beq	s3,a5,1d350 <__multf3+0x588>
   1d2fa:	478d                	li	a5,3
   1d2fc:	04f98663          	beq	s3,a5,1d348 <__multf3+0x580>
   1d300:	04099963          	bnez	s3,1d352 <__multf3+0x58a>
   1d304:	00f57793          	andi	a5,a0,15
   1d308:	4711                	li	a4,4
   1d30a:	04e78463          	beq	a5,a4,1d352 <__multf3+0x58a>
   1d30e:	00450793          	addi	a5,a0,4
   1d312:	00a7b533          	sltu	a0,a5,a0
   1d316:	942a                	add	s0,s0,a0
   1d318:	853e                	mv	a0,a5
   1d31a:	a825                	j	1d352 <__multf3+0x58a>
   1d31c:	fc05851b          	addiw	a0,a1,-64
   1d320:	04000893          	li	a7,64
   1d324:	00a45533          	srl	a0,s0,a0
   1d328:	4801                	li	a6,0
   1d32a:	01170863          	beq	a4,a7,1d33a <__multf3+0x572>
   1d32e:	08000813          	li	a6,128
   1d332:	40b805bb          	subw	a1,a6,a1
   1d336:	00b41833          	sll	a6,s0,a1
   1d33a:	00f867b3          	or	a5,a6,a5
   1d33e:	00f037b3          	snez	a5,a5
   1d342:	8d5d                	or	a0,a0,a5
   1d344:	4401                	li	s0,0
   1d346:	b755                	j	1d2ea <__multf3+0x522>
   1d348:	e609                	bnez	a2,1d352 <__multf3+0x58a>
   1d34a:	00850793          	addi	a5,a0,8
   1d34e:	b7d1                	j	1d312 <__multf3+0x54a>
   1d350:	fe6d                	bnez	a2,1d34a <__multf3+0x582>
   1d352:	00c41793          	slli	a5,s0,0xc
   1d356:	0007dc63          	bgez	a5,1d36e <__multf3+0x5a6>
   1d35a:	00196913          	ori	s2,s2,1
   1d35e:	4401                	li	s0,0
   1d360:	4501                	li	a0,0
   1d362:	4705                	li	a4,1
   1d364:	c40684e3          	beqz	a3,1cfac <__multf3+0x1e4>
   1d368:	00296913          	ori	s2,s2,2
   1d36c:	b181                	j	1cfac <__multf3+0x1e4>
   1d36e:	03d41793          	slli	a5,s0,0x3d
   1d372:	810d                	srli	a0,a0,0x3
   1d374:	8d5d                	or	a0,a0,a5
   1d376:	800d                	srli	s0,s0,0x3
   1d378:	4701                	li	a4,0
   1d37a:	c20689e3          	beqz	a3,1cfac <__multf3+0x1e4>
   1d37e:	00197793          	andi	a5,s2,1
   1d382:	c20785e3          	beqz	a5,1cfac <__multf3+0x1e4>
   1d386:	b7cd                	j	1d368 <__multf3+0x5a0>
   1d388:	0087e533          	or	a0,a5,s0
   1d38c:	cd19                	beqz	a0,1d3aa <__multf3+0x5e2>
   1d38e:	4789                	li	a5,2
   1d390:	00196913          	ori	s2,s2,1
   1d394:	02f98463          	beq	s3,a5,1d3bc <__multf3+0x5f4>
   1d398:	478d                	li	a5,3
   1d39a:	00f98d63          	beq	s3,a5,1d3b4 <__multf3+0x5ec>
   1d39e:	4785                	li	a5,1
   1d3a0:	00099363          	bnez	s3,1d3a6 <__multf3+0x5de>
   1d3a4:	4795                	li	a5,5
   1d3a6:	0037d513          	srli	a0,a5,0x3
   1d3aa:	00296913          	ori	s2,s2,2
   1d3ae:	4401                	li	s0,0
   1d3b0:	4701                	li	a4,0
   1d3b2:	beed                	j	1cfac <__multf3+0x1e4>
   1d3b4:	47a5                	li	a5,9
   1d3b6:	da65                	beqz	a2,1d3a6 <__multf3+0x5de>
   1d3b8:	4785                	li	a5,1
   1d3ba:	b7f5                	j	1d3a6 <__multf3+0x5de>
   1d3bc:	47a5                	li	a5,9
   1d3be:	f665                	bnez	a2,1d3a6 <__multf3+0x5de>
   1d3c0:	bfe5                	j	1d3b8 <__multf3+0x5f0>
   1d3c2:	6721                	lui	a4,0x8
   1d3c4:	4401                	li	s0,0
   1d3c6:	4501                	li	a0,0
   1d3c8:	177d                	addi	a4,a4,-1
   1d3ca:	b6cd                	j	1cfac <__multf3+0x1e4>
   1d3cc:	4405                	li	s0,1
   1d3ce:	6721                	lui	a4,0x8
   1d3d0:	143e                	slli	s0,s0,0x2f
   1d3d2:	4501                	li	a0,0
   1d3d4:	177d                	addi	a4,a4,-1
   1d3d6:	4601                	li	a2,0
   1d3d8:	bed1                	j	1cfac <__multf3+0x1e4>

000000000001d3da <__subtf3>:
   1d3da:	7179                	addi	sp,sp,-48
   1d3dc:	f406                	sd	ra,40(sp)
   1d3de:	f022                	sd	s0,32(sp)
   1d3e0:	ec26                	sd	s1,24(sp)
   1d3e2:	e84a                	sd	s2,16(sp)
   1d3e4:	e44e                	sd	s3,8(sp)
   1d3e6:	e052                	sd	s4,0(sp)
   1d3e8:	002024f3          	frrm	s1
   1d3ec:	577d                	li	a4,-1
   1d3ee:	8341                	srli	a4,a4,0x10
   1d3f0:	6321                	lui	t1,0x8
   1d3f2:	0305d893          	srli	a7,a1,0x30
   1d3f6:	137d                	addi	t1,t1,-1
   1d3f8:	0306de13          	srli	t3,a3,0x30
   1d3fc:	03f5d413          	srli	s0,a1,0x3f
   1d400:	03f6de93          	srli	t4,a3,0x3f
   1d404:	8df9                	and	a1,a1,a4
   1d406:	8ef9                	and	a3,a3,a4
   1d408:	00359793          	slli	a5,a1,0x3
   1d40c:	03d65713          	srli	a4,a2,0x3d
   1d410:	03d55593          	srli	a1,a0,0x3d
   1d414:	0068f8b3          	and	a7,a7,t1
   1d418:	006e7e33          	and	t3,t3,t1
   1d41c:	068e                	slli	a3,a3,0x3
   1d41e:	2481                	sext.w	s1,s1
   1d420:	89c6                	mv	s3,a7
   1d422:	8ddd                	or	a1,a1,a5
   1d424:	050e                	slli	a0,a0,0x3
   1d426:	8872                	mv	a6,t3
   1d428:	8ed9                	or	a3,a3,a4
   1d42a:	060e                	slli	a2,a2,0x3
   1d42c:	006e1563          	bne	t3,t1,1d436 <__subtf3+0x5c>
   1d430:	00c6e7b3          	or	a5,a3,a2
   1d434:	e399                	bnez	a5,1d43a <__subtf3+0x60>
   1d436:	001ece93          	xori	t4,t4,1
   1d43a:	41c887bb          	subw	a5,a7,t3
   1d43e:	6f21                	lui	t5,0x8
   1d440:	0007871b          	sext.w	a4,a5
   1d444:	ffff0313          	addi	t1,t5,-1 # 7fff <register_fini-0x80e9>
   1d448:	368e9263          	bne	t4,s0,1d7ac <__subtf3+0x3d2>
   1d44c:	10e05063          	blez	a4,1d54c <__subtf3+0x172>
   1d450:	080e1063          	bnez	t3,1d4d0 <__subtf3+0xf6>
   1d454:	00c6e733          	or	a4,a3,a2
   1d458:	ef11                	bnez	a4,1d474 <__subtf3+0x9a>
   1d45a:	6a689f63          	bne	a7,t1,1db18 <__subtf3+0x73e>
   1d45e:	00a5e7b3          	or	a5,a1,a0
   1d462:	70078163          	beqz	a5,1db64 <__subtf3+0x78a>
   1d466:	00d59793          	slli	a5,a1,0xd
   1d46a:	8846                	mv	a6,a7
   1d46c:	0407c663          	bltz	a5,1d4b8 <__subtf3+0xde>
   1d470:	47c1                	li	a5,16
   1d472:	a2d5                	j	1d656 <__subtf3+0x27c>
   1d474:	fff7871b          	addiw	a4,a5,-1
   1d478:	e331                	bnez	a4,1d4bc <__subtf3+0xe2>
   1d47a:	962a                	add	a2,a2,a0
   1d47c:	95b6                	add	a1,a1,a3
   1d47e:	00a63533          	sltu	a0,a2,a0
   1d482:	95aa                	add	a1,a1,a0
   1d484:	8532                	mv	a0,a2
   1d486:	00c59793          	slli	a5,a1,0xc
   1d48a:	6807d763          	bgez	a5,1db18 <__subtf3+0x73e>
   1d48e:	67a1                	lui	a5,0x8
   1d490:	00198813          	addi	a6,s3,1
   1d494:	fff78713          	addi	a4,a5,-1 # 7fff <register_fini-0x80e9>
   1d498:	2ee80a63          	beq	a6,a4,1d78c <__subtf3+0x3b2>
   1d49c:	57fd                	li	a5,-1
   1d49e:	17ce                	slli	a5,a5,0x33
   1d4a0:	17fd                	addi	a5,a5,-1
   1d4a2:	8fed                	and	a5,a5,a1
   1d4a4:	00155893          	srli	a7,a0,0x1
   1d4a8:	8905                	andi	a0,a0,1
   1d4aa:	03f79593          	slli	a1,a5,0x3f
   1d4ae:	00a8e533          	or	a0,a7,a0
   1d4b2:	8d4d                	or	a0,a0,a1
   1d4b4:	0017d593          	srli	a1,a5,0x1
   1d4b8:	4701                	li	a4,0
   1d4ba:	a451                	j	1d73e <__subtf3+0x364>
   1d4bc:	00689f63          	bne	a7,t1,1d4da <__subtf3+0x100>
   1d4c0:	00a5e7b3          	or	a5,a1,a0
   1d4c4:	6a078063          	beqz	a5,1db64 <__subtf3+0x78a>
   1d4c8:	00d59793          	slli	a5,a1,0xd
   1d4cc:	8846                	mv	a6,a7
   1d4ce:	a045                	j	1d56e <__subtf3+0x194>
   1d4d0:	fe6888e3          	beq	a7,t1,1d4c0 <__subtf3+0xe6>
   1d4d4:	4785                	li	a5,1
   1d4d6:	17ce                	slli	a5,a5,0x33
   1d4d8:	8edd                	or	a3,a3,a5
   1d4da:	07400793          	li	a5,116
   1d4de:	06e7c363          	blt	a5,a4,1d544 <__subtf3+0x16a>
   1d4e2:	03f00793          	li	a5,63
   1d4e6:	02e7c963          	blt	a5,a4,1d518 <__subtf3+0x13e>
   1d4ea:	04000813          	li	a6,64
   1d4ee:	40e8083b          	subw	a6,a6,a4
   1d4f2:	00e658b3          	srl	a7,a2,a4
   1d4f6:	010697b3          	sll	a5,a3,a6
   1d4fa:	01061633          	sll	a2,a2,a6
   1d4fe:	0117e7b3          	or	a5,a5,a7
   1d502:	00c03633          	snez	a2,a2
   1d506:	8e5d                	or	a2,a2,a5
   1d508:	00e6d733          	srl	a4,a3,a4
   1d50c:	962a                	add	a2,a2,a0
   1d50e:	972e                	add	a4,a4,a1
   1d510:	00a635b3          	sltu	a1,a2,a0
   1d514:	95ba                	add	a1,a1,a4
   1d516:	b7bd                	j	1d484 <__subtf3+0xaa>
   1d518:	fc07079b          	addiw	a5,a4,-64
   1d51c:	04000893          	li	a7,64
   1d520:	00f6d7b3          	srl	a5,a3,a5
   1d524:	4801                	li	a6,0
   1d526:	01170863          	beq	a4,a7,1d536 <__subtf3+0x15c>
   1d52a:	08000813          	li	a6,128
   1d52e:	40e8073b          	subw	a4,a6,a4
   1d532:	00e69833          	sll	a6,a3,a4
   1d536:	00c86633          	or	a2,a6,a2
   1d53a:	00c03633          	snez	a2,a2
   1d53e:	8e5d                	or	a2,a2,a5
   1d540:	4701                	li	a4,0
   1d542:	b7e9                	j	1d50c <__subtf3+0x132>
   1d544:	8e55                	or	a2,a2,a3
   1d546:	00c03633          	snez	a2,a2
   1d54a:	bfdd                	j	1d540 <__subtf3+0x166>
   1d54c:	c379                	beqz	a4,1d612 <__subtf3+0x238>
   1d54e:	08089063          	bnez	a7,1d5ce <__subtf3+0x1f4>
   1d552:	00a5e8b3          	or	a7,a1,a0
   1d556:	02089063          	bnez	a7,1d576 <__subtf3+0x19c>
   1d55a:	5c6e1363          	bne	t3,t1,1db20 <__subtf3+0x746>
   1d55e:	00c6e533          	or	a0,a3,a2
   1d562:	5e050e63          	beqz	a0,1db5e <__subtf3+0x784>
   1d566:	00d69793          	slli	a5,a3,0xd
   1d56a:	85b6                	mv	a1,a3
   1d56c:	8532                	mv	a0,a2
   1d56e:	4701                	li	a4,0
   1d570:	1c07c763          	bltz	a5,1d73e <__subtf3+0x364>
   1d574:	bdf5                	j	1d470 <__subtf3+0x96>
   1d576:	58fd                	li	a7,-1
   1d578:	01171963          	bne	a4,a7,1d58a <__subtf3+0x1b0>
   1d57c:	9532                	add	a0,a0,a2
   1d57e:	95b6                	add	a1,a1,a3
   1d580:	00c53633          	sltu	a2,a0,a2
   1d584:	95b2                	add	a1,a1,a2
   1d586:	89f2                	mv	s3,t3
   1d588:	bdfd                	j	1d486 <__subtf3+0xac>
   1d58a:	fc6e0ae3          	beq	t3,t1,1d55e <__subtf3+0x184>
   1d58e:	fff7c713          	not	a4,a5
   1d592:	2701                	sext.w	a4,a4
   1d594:	07400793          	li	a5,116
   1d598:	06e7c963          	blt	a5,a4,1d60a <__subtf3+0x230>
   1d59c:	03f00793          	li	a5,63
   1d5a0:	02e7cf63          	blt	a5,a4,1d5de <__subtf3+0x204>
   1d5a4:	04000813          	li	a6,64
   1d5a8:	40e8083b          	subw	a6,a6,a4
   1d5ac:	00e558b3          	srl	a7,a0,a4
   1d5b0:	010597b3          	sll	a5,a1,a6
   1d5b4:	01051533          	sll	a0,a0,a6
   1d5b8:	0117e7b3          	or	a5,a5,a7
   1d5bc:	00a03533          	snez	a0,a0
   1d5c0:	8d5d                	or	a0,a0,a5
   1d5c2:	00e5d733          	srl	a4,a1,a4
   1d5c6:	9532                	add	a0,a0,a2
   1d5c8:	00d705b3          	add	a1,a4,a3
   1d5cc:	bf55                	j	1d580 <__subtf3+0x1a6>
   1d5ce:	f86e08e3          	beq	t3,t1,1d55e <__subtf3+0x184>
   1d5d2:	40f0073b          	negw	a4,a5
   1d5d6:	4785                	li	a5,1
   1d5d8:	17ce                	slli	a5,a5,0x33
   1d5da:	8ddd                	or	a1,a1,a5
   1d5dc:	bf65                	j	1d594 <__subtf3+0x1ba>
   1d5de:	fc07079b          	addiw	a5,a4,-64
   1d5e2:	04000893          	li	a7,64
   1d5e6:	00f5d7b3          	srl	a5,a1,a5
   1d5ea:	4801                	li	a6,0
   1d5ec:	01170863          	beq	a4,a7,1d5fc <__subtf3+0x222>
   1d5f0:	08000813          	li	a6,128
   1d5f4:	40e8073b          	subw	a4,a6,a4
   1d5f8:	00e59833          	sll	a6,a1,a4
   1d5fc:	00a86533          	or	a0,a6,a0
   1d600:	00a03533          	snez	a0,a0
   1d604:	8d5d                	or	a0,a0,a5
   1d606:	4701                	li	a4,0
   1d608:	bf7d                	j	1d5c6 <__subtf3+0x1ec>
   1d60a:	8d4d                	or	a0,a0,a1
   1d60c:	00a03533          	snez	a0,a0
   1d610:	bfdd                	j	1d606 <__subtf3+0x22c>
   1d612:	00188813          	addi	a6,a7,1
   1d616:	ffef0793          	addi	a5,t5,-2
   1d61a:	00f87eb3          	and	t4,a6,a5
   1d61e:	100e9263          	bnez	t4,1d722 <__subtf3+0x348>
   1d622:	00a5e833          	or	a6,a1,a0
   1d626:	04089063          	bnez	a7,1d666 <__subtf3+0x28c>
   1d62a:	50080463          	beqz	a6,1db32 <__subtf3+0x758>
   1d62e:	00c6e7b3          	or	a5,a3,a2
   1d632:	32078963          	beqz	a5,1d964 <__subtf3+0x58a>
   1d636:	962a                	add	a2,a2,a0
   1d638:	95b6                	add	a1,a1,a3
   1d63a:	00a63533          	sltu	a0,a2,a0
   1d63e:	95aa                	add	a1,a1,a0
   1d640:	00c59793          	slli	a5,a1,0xc
   1d644:	4e07d863          	bgez	a5,1db34 <__subtf3+0x75a>
   1d648:	57fd                	li	a5,-1
   1d64a:	17ce                	slli	a5,a5,0x33
   1d64c:	17fd                	addi	a5,a5,-1
   1d64e:	8dfd                	and	a1,a1,a5
   1d650:	8532                	mv	a0,a2
   1d652:	4781                	li	a5,0
   1d654:	4805                	li	a6,1
   1d656:	00757693          	andi	a3,a0,7
   1d65a:	10069563          	bnez	a3,1d764 <__subtf3+0x38a>
   1d65e:	cf29                	beqz	a4,1d6b8 <__subtf3+0x2de>
   1d660:	0017f713          	andi	a4,a5,1
   1d664:	a205                	j	1d784 <__subtf3+0x3aa>
   1d666:	02689c63          	bne	a7,t1,1d69e <__subtf3+0x2c4>
   1d66a:	56080263          	beqz	a6,1dbce <__subtf3+0x7f4>
   1d66e:	0325d793          	srli	a5,a1,0x32
   1d672:	8b85                	andi	a5,a5,1
   1d674:	0017b793          	seqz	a5,a5
   1d678:	0792                	slli	a5,a5,0x4
   1d67a:	031e1763          	bne	t3,a7,1d6a8 <__subtf3+0x2ce>
   1d67e:	00c6e8b3          	or	a7,a3,a2
   1d682:	00088763          	beqz	a7,1d690 <__subtf3+0x2b6>
   1d686:	00d69893          	slli	a7,a3,0xd
   1d68a:	0008c363          	bltz	a7,1d690 <__subtf3+0x2b6>
   1d68e:	47c1                	li	a5,16
   1d690:	00081c63          	bnez	a6,1d6a8 <__subtf3+0x2ce>
   1d694:	85b6                	mv	a1,a3
   1d696:	8532                	mv	a0,a2
   1d698:	6821                	lui	a6,0x8
   1d69a:	187d                	addi	a6,a6,-1
   1d69c:	bf6d                	j	1d656 <__subtf3+0x27c>
   1d69e:	4781                	li	a5,0
   1d6a0:	fe6e18e3          	bne	t3,t1,1d690 <__subtf3+0x2b6>
   1d6a4:	4781                	li	a5,0
   1d6a6:	bfe1                	j	1d67e <__subtf3+0x2a4>
   1d6a8:	8e55                	or	a2,a2,a3
   1d6aa:	d67d                	beqz	a2,1d698 <__subtf3+0x2be>
   1d6ac:	4585                	li	a1,1
   1d6ae:	6821                	lui	a6,0x8
   1d6b0:	4401                	li	s0,0
   1d6b2:	15ca                	slli	a1,a1,0x32
   1d6b4:	4501                	li	a0,0
   1d6b6:	187d                	addi	a6,a6,-1
   1d6b8:	00c59713          	slli	a4,a1,0xc
   1d6bc:	00075c63          	bgez	a4,1d6d4 <__subtf3+0x2fa>
   1d6c0:	6721                	lui	a4,0x8
   1d6c2:	0805                	addi	a6,a6,1
   1d6c4:	fff70693          	addi	a3,a4,-1 # 7fff <register_fini-0x80e9>
   1d6c8:	4cd80d63          	beq	a6,a3,1dba2 <__subtf3+0x7c8>
   1d6cc:	577d                	li	a4,-1
   1d6ce:	174e                	slli	a4,a4,0x33
   1d6d0:	177d                	addi	a4,a4,-1
   1d6d2:	8df9                	and	a1,a1,a4
   1d6d4:	6721                	lui	a4,0x8
   1d6d6:	00355613          	srli	a2,a0,0x3
   1d6da:	177d                	addi	a4,a4,-1
   1d6dc:	03d59513          	slli	a0,a1,0x3d
   1d6e0:	8d51                	or	a0,a0,a2
   1d6e2:	818d                	srli	a1,a1,0x3
   1d6e4:	00e81963          	bne	a6,a4,1d6f6 <__subtf3+0x31c>
   1d6e8:	8d4d                	or	a0,a0,a1
   1d6ea:	4581                	li	a1,0
   1d6ec:	c509                	beqz	a0,1d6f6 <__subtf3+0x31c>
   1d6ee:	4585                	li	a1,1
   1d6f0:	15be                	slli	a1,a1,0x2f
   1d6f2:	4501                	li	a0,0
   1d6f4:	4401                	li	s0,0
   1d6f6:	1846                	slli	a6,a6,0x31
   1d6f8:	03185813          	srli	a6,a6,0x31
   1d6fc:	043e                	slli	s0,s0,0xf
   1d6fe:	05c2                	slli	a1,a1,0x10
   1d700:	00886833          	or	a6,a6,s0
   1d704:	1842                	slli	a6,a6,0x30
   1d706:	81c1                	srli	a1,a1,0x10
   1d708:	0105e5b3          	or	a1,a1,a6
   1d70c:	c399                	beqz	a5,1d712 <__subtf3+0x338>
   1d70e:	0017a073          	csrs	fflags,a5
   1d712:	70a2                	ld	ra,40(sp)
   1d714:	7402                	ld	s0,32(sp)
   1d716:	64e2                	ld	s1,24(sp)
   1d718:	6942                	ld	s2,16(sp)
   1d71a:	69a2                	ld	s3,8(sp)
   1d71c:	6a02                	ld	s4,0(sp)
   1d71e:	6145                	addi	sp,sp,48
   1d720:	8082                	ret
   1d722:	02680063          	beq	a6,t1,1d742 <__subtf3+0x368>
   1d726:	962a                	add	a2,a2,a0
   1d728:	96ae                	add	a3,a3,a1
   1d72a:	00a635b3          	sltu	a1,a2,a0
   1d72e:	96ae                	add	a3,a3,a1
   1d730:	03f69593          	slli	a1,a3,0x3f
   1d734:	8205                	srli	a2,a2,0x1
   1d736:	00c5e533          	or	a0,a1,a2
   1d73a:	0016d593          	srli	a1,a3,0x1
   1d73e:	4781                	li	a5,0
   1d740:	bf19                	j	1d656 <__subtf3+0x27c>
   1d742:	c489                	beqz	s1,1d74c <__subtf3+0x372>
   1d744:	468d                	li	a3,3
   1d746:	00d49763          	bne	s1,a3,1d754 <__subtf3+0x37a>
   1d74a:	e809                	bnez	s0,1d75c <__subtf3+0x382>
   1d74c:	4581                	li	a1,0
   1d74e:	4501                	li	a0,0
   1d750:	4795                	li	a5,5
   1d752:	b79d                	j	1d6b8 <__subtf3+0x2de>
   1d754:	4689                	li	a3,2
   1d756:	00d49363          	bne	s1,a3,1d75c <__subtf3+0x382>
   1d75a:	f86d                	bnez	s0,1d74c <__subtf3+0x372>
   1d75c:	55fd                	li	a1,-1
   1d75e:	557d                	li	a0,-1
   1d760:	883e                	mv	a6,a5
   1d762:	4795                	li	a5,5
   1d764:	4689                	li	a3,2
   1d766:	0017e793          	ori	a5,a5,1
   1d76a:	42d48963          	beq	s1,a3,1db9c <__subtf3+0x7c2>
   1d76e:	468d                	li	a3,3
   1d770:	40d48d63          	beq	s1,a3,1db8a <__subtf3+0x7b0>
   1d774:	e881                	bnez	s1,1d784 <__subtf3+0x3aa>
   1d776:	00f57693          	andi	a3,a0,15
   1d77a:	4611                	li	a2,4
   1d77c:	00450893          	addi	a7,a0,4
   1d780:	40c69963          	bne	a3,a2,1db92 <__subtf3+0x7b8>
   1d784:	db15                	beqz	a4,1d6b8 <__subtf3+0x2de>
   1d786:	0027e793          	ori	a5,a5,2
   1d78a:	b73d                	j	1d6b8 <__subtf3+0x2de>
   1d78c:	d0e1                	beqz	s1,1d74c <__subtf3+0x372>
   1d78e:	470d                	li	a4,3
   1d790:	00e49963          	bne	s1,a4,1d7a2 <__subtf3+0x3c8>
   1d794:	dc45                	beqz	s0,1d74c <__subtf3+0x372>
   1d796:	55fd                	li	a1,-1
   1d798:	557d                	li	a0,-1
   1d79a:	ffe78813          	addi	a6,a5,-2
   1d79e:	4701                	li	a4,0
   1d7a0:	b7c9                	j	1d762 <__subtf3+0x388>
   1d7a2:	4709                	li	a4,2
   1d7a4:	fee499e3          	bne	s1,a4,1d796 <__subtf3+0x3bc>
   1d7a8:	f055                	bnez	s0,1d74c <__subtf3+0x372>
   1d7aa:	b7f5                	j	1d796 <__subtf3+0x3bc>
   1d7ac:	0ce05063          	blez	a4,1d86c <__subtf3+0x492>
   1d7b0:	060e1e63          	bnez	t3,1d82c <__subtf3+0x452>
   1d7b4:	00c6e733          	or	a4,a3,a2
   1d7b8:	ca0701e3          	beqz	a4,1d45a <__subtf3+0x80>
   1d7bc:	fff7871b          	addiw	a4,a5,-1
   1d7c0:	e315                	bnez	a4,1d7e4 <__subtf3+0x40a>
   1d7c2:	40c50633          	sub	a2,a0,a2
   1d7c6:	8d95                	sub	a1,a1,a3
   1d7c8:	00c53533          	sltu	a0,a0,a2
   1d7cc:	8d89                	sub	a1,a1,a0
   1d7ce:	8532                	mv	a0,a2
   1d7d0:	00c59793          	slli	a5,a1,0xc
   1d7d4:	3407d263          	bgez	a5,1db18 <__subtf3+0x73e>
   1d7d8:	00d59913          	slli	s2,a1,0xd
   1d7dc:	00d95913          	srli	s2,s2,0xd
   1d7e0:	8a2a                	mv	s4,a0
   1d7e2:	acb5                	j	1da5e <__subtf3+0x684>
   1d7e4:	cc688ee3          	beq	a7,t1,1d4c0 <__subtf3+0xe6>
   1d7e8:	07400793          	li	a5,116
   1d7ec:	06e7cc63          	blt	a5,a4,1d864 <__subtf3+0x48a>
   1d7f0:	03f00793          	li	a5,63
   1d7f4:	04e7c263          	blt	a5,a4,1d838 <__subtf3+0x45e>
   1d7f8:	04000813          	li	a6,64
   1d7fc:	40e8083b          	subw	a6,a6,a4
   1d800:	00e658b3          	srl	a7,a2,a4
   1d804:	010697b3          	sll	a5,a3,a6
   1d808:	01061633          	sll	a2,a2,a6
   1d80c:	0117e7b3          	or	a5,a5,a7
   1d810:	00c03633          	snez	a2,a2
   1d814:	8e5d                	or	a2,a2,a5
   1d816:	00e6d733          	srl	a4,a3,a4
   1d81a:	40c50633          	sub	a2,a0,a2
   1d81e:	40e58733          	sub	a4,a1,a4
   1d822:	00c535b3          	sltu	a1,a0,a2
   1d826:	40b705b3          	sub	a1,a4,a1
   1d82a:	b755                	j	1d7ce <__subtf3+0x3f4>
   1d82c:	c8688ae3          	beq	a7,t1,1d4c0 <__subtf3+0xe6>
   1d830:	4785                	li	a5,1
   1d832:	17ce                	slli	a5,a5,0x33
   1d834:	8edd                	or	a3,a3,a5
   1d836:	bf4d                	j	1d7e8 <__subtf3+0x40e>
   1d838:	fc07079b          	addiw	a5,a4,-64
   1d83c:	04000893          	li	a7,64
   1d840:	00f6d7b3          	srl	a5,a3,a5
   1d844:	4801                	li	a6,0
   1d846:	01170863          	beq	a4,a7,1d856 <__subtf3+0x47c>
   1d84a:	08000813          	li	a6,128
   1d84e:	40e8073b          	subw	a4,a6,a4
   1d852:	00e69833          	sll	a6,a3,a4
   1d856:	00c86633          	or	a2,a6,a2
   1d85a:	00c03633          	snez	a2,a2
   1d85e:	8e5d                	or	a2,a2,a5
   1d860:	4701                	li	a4,0
   1d862:	bf65                	j	1d81a <__subtf3+0x440>
   1d864:	8e55                	or	a2,a2,a3
   1d866:	00c03633          	snez	a2,a2
   1d86a:	bfdd                	j	1d860 <__subtf3+0x486>
   1d86c:	c769                	beqz	a4,1d936 <__subtf3+0x55c>
   1d86e:	08089263          	bnez	a7,1d8f2 <__subtf3+0x518>
   1d872:	00a5e8b3          	or	a7,a1,a0
   1d876:	00089e63          	bnez	a7,1d892 <__subtf3+0x4b8>
   1d87a:	2a6e1763          	bne	t3,t1,1db28 <__subtf3+0x74e>
   1d87e:	00c6e533          	or	a0,a3,a2
   1d882:	2e050563          	beqz	a0,1db6c <__subtf3+0x792>
   1d886:	00d69793          	slli	a5,a3,0xd
   1d88a:	85b6                	mv	a1,a3
   1d88c:	8532                	mv	a0,a2
   1d88e:	8476                	mv	s0,t4
   1d890:	b9f9                	j	1d56e <__subtf3+0x194>
   1d892:	58fd                	li	a7,-1
   1d894:	01171c63          	bne	a4,a7,1d8ac <__subtf3+0x4d2>
   1d898:	40a60533          	sub	a0,a2,a0
   1d89c:	40b685b3          	sub	a1,a3,a1
   1d8a0:	00a63633          	sltu	a2,a2,a0
   1d8a4:	8d91                	sub	a1,a1,a2
   1d8a6:	89f2                	mv	s3,t3
   1d8a8:	8476                	mv	s0,t4
   1d8aa:	b71d                	j	1d7d0 <__subtf3+0x3f6>
   1d8ac:	fc6e09e3          	beq	t3,t1,1d87e <__subtf3+0x4a4>
   1d8b0:	fff7c713          	not	a4,a5
   1d8b4:	2701                	sext.w	a4,a4
   1d8b6:	07400793          	li	a5,116
   1d8ba:	06e7ca63          	blt	a5,a4,1d92e <__subtf3+0x554>
   1d8be:	03f00793          	li	a5,63
   1d8c2:	04e7c063          	blt	a5,a4,1d902 <__subtf3+0x528>
   1d8c6:	04000813          	li	a6,64
   1d8ca:	40e8083b          	subw	a6,a6,a4
   1d8ce:	00e558b3          	srl	a7,a0,a4
   1d8d2:	010597b3          	sll	a5,a1,a6
   1d8d6:	01051533          	sll	a0,a0,a6
   1d8da:	0117e7b3          	or	a5,a5,a7
   1d8de:	00a03533          	snez	a0,a0
   1d8e2:	8d5d                	or	a0,a0,a5
   1d8e4:	00e5d733          	srl	a4,a1,a4
   1d8e8:	40a60533          	sub	a0,a2,a0
   1d8ec:	40e685b3          	sub	a1,a3,a4
   1d8f0:	bf45                	j	1d8a0 <__subtf3+0x4c6>
   1d8f2:	f86e06e3          	beq	t3,t1,1d87e <__subtf3+0x4a4>
   1d8f6:	40f0073b          	negw	a4,a5
   1d8fa:	4785                	li	a5,1
   1d8fc:	17ce                	slli	a5,a5,0x33
   1d8fe:	8ddd                	or	a1,a1,a5
   1d900:	bf5d                	j	1d8b6 <__subtf3+0x4dc>
   1d902:	fc07079b          	addiw	a5,a4,-64
   1d906:	04000893          	li	a7,64
   1d90a:	00f5d7b3          	srl	a5,a1,a5
   1d90e:	4801                	li	a6,0
   1d910:	01170863          	beq	a4,a7,1d920 <__subtf3+0x546>
   1d914:	08000813          	li	a6,128
   1d918:	40e8073b          	subw	a4,a6,a4
   1d91c:	00e59833          	sll	a6,a1,a4
   1d920:	00a86533          	or	a0,a6,a0
   1d924:	00a03533          	snez	a0,a0
   1d928:	8d5d                	or	a0,a0,a5
   1d92a:	4701                	li	a4,0
   1d92c:	bf75                	j	1d8e8 <__subtf3+0x50e>
   1d92e:	8d4d                	or	a0,a0,a1
   1d930:	00a03533          	snez	a0,a0
   1d934:	bfdd                	j	1d92a <__subtf3+0x550>
   1d936:	00188813          	addi	a6,a7,1
   1d93a:	ffef0793          	addi	a5,t5,-2
   1d93e:	00f877b3          	and	a5,a6,a5
   1d942:	ebed                	bnez	a5,1da34 <__subtf3+0x65a>
   1d944:	00a5ef33          	or	t5,a1,a0
   1d948:	00c6e833          	or	a6,a3,a2
   1d94c:	0a089163          	bnez	a7,1d9ee <__subtf3+0x614>
   1d950:	040f1e63          	bnez	t5,1d9ac <__subtf3+0x5d2>
   1d954:	1e081263          	bnez	a6,1db38 <__subtf3+0x75e>
   1d958:	ffe48413          	addi	s0,s1,-2
   1d95c:	00143413          	seqz	s0,s0
   1d960:	4581                	li	a1,0
   1d962:	4501                	li	a0,0
   1d964:	00b567b3          	or	a5,a0,a1
   1d968:	20078d63          	beqz	a5,1db82 <__subtf3+0x7a8>
   1d96c:	00151693          	slli	a3,a0,0x1
   1d970:	03f55793          	srli	a5,a0,0x3f
   1d974:	00159713          	slli	a4,a1,0x1
   1d978:	0076f613          	andi	a2,a3,7
   1d97c:	973e                	add	a4,a4,a5
   1d97e:	4781                	li	a5,0
   1d980:	c205                	beqz	a2,1d9a0 <__subtf3+0x5c6>
   1d982:	4789                	li	a5,2
   1d984:	1cf48963          	beq	s1,a5,1db56 <__subtf3+0x77c>
   1d988:	478d                	li	a5,3
   1d98a:	1af48d63          	beq	s1,a5,1db44 <__subtf3+0x76a>
   1d98e:	4785                	li	a5,1
   1d990:	e881                	bnez	s1,1d9a0 <__subtf3+0x5c6>
   1d992:	00f6f613          	andi	a2,a3,15
   1d996:	4811                	li	a6,4
   1d998:	ffc6b693          	sltiu	a3,a3,-4
   1d99c:	1b061963          	bne	a2,a6,1db4e <__subtf3+0x774>
   1d9a0:	9351                	srli	a4,a4,0x34
   1d9a2:	00174713          	xori	a4,a4,1
   1d9a6:	8b05                	andi	a4,a4,1
   1d9a8:	4801                	li	a6,0
   1d9aa:	b175                	j	1d656 <__subtf3+0x27c>
   1d9ac:	fa080ce3          	beqz	a6,1d964 <__subtf3+0x58a>
   1d9b0:	40c50733          	sub	a4,a0,a2
   1d9b4:	00e53833          	sltu	a6,a0,a4
   1d9b8:	40d587b3          	sub	a5,a1,a3
   1d9bc:	410787b3          	sub	a5,a5,a6
   1d9c0:	00c79813          	slli	a6,a5,0xc
   1d9c4:	00085b63          	bgez	a6,1d9da <__subtf3+0x600>
   1d9c8:	40a60533          	sub	a0,a2,a0
   1d9cc:	40b685b3          	sub	a1,a3,a1
   1d9d0:	00a63633          	sltu	a2,a2,a0
   1d9d4:	8d91                	sub	a1,a1,a2
   1d9d6:	8476                	mv	s0,t4
   1d9d8:	b771                	j	1d964 <__subtf3+0x58a>
   1d9da:	00f76533          	or	a0,a4,a5
   1d9de:	16051063          	bnez	a0,1db3e <__subtf3+0x764>
   1d9e2:	ffe48413          	addi	s0,s1,-2
   1d9e6:	00143413          	seqz	s0,s0
   1d9ea:	4581                	li	a1,0
   1d9ec:	bfa5                	j	1d964 <__subtf3+0x58a>
   1d9ee:	02689b63          	bne	a7,t1,1da24 <__subtf3+0x64a>
   1d9f2:	1c0f0a63          	beqz	t5,1dbc6 <__subtf3+0x7ec>
   1d9f6:	0325d793          	srli	a5,a1,0x32
   1d9fa:	8b85                	andi	a5,a5,1
   1d9fc:	0017b793          	seqz	a5,a5
   1da00:	0792                	slli	a5,a5,0x4
   1da02:	031e1663          	bne	t3,a7,1da2e <__subtf3+0x654>
   1da06:	00080763          	beqz	a6,1da14 <__subtf3+0x63a>
   1da0a:	00d69893          	slli	a7,a3,0xd
   1da0e:	0008c363          	bltz	a7,1da14 <__subtf3+0x63a>
   1da12:	47c1                	li	a5,16
   1da14:	000f1d63          	bnez	t5,1da2e <__subtf3+0x654>
   1da18:	14080d63          	beqz	a6,1db72 <__subtf3+0x798>
   1da1c:	85b6                	mv	a1,a3
   1da1e:	8532                	mv	a0,a2
   1da20:	8476                	mv	s0,t4
   1da22:	b99d                	j	1d698 <__subtf3+0x2be>
   1da24:	4781                	li	a5,0
   1da26:	fe6e17e3          	bne	t3,t1,1da14 <__subtf3+0x63a>
   1da2a:	4781                	li	a5,0
   1da2c:	bfe9                	j	1da06 <__subtf3+0x62c>
   1da2e:	c60805e3          	beqz	a6,1d698 <__subtf3+0x2be>
   1da32:	b9ad                	j	1d6ac <__subtf3+0x2d2>
   1da34:	40c50a33          	sub	s4,a0,a2
   1da38:	40d58933          	sub	s2,a1,a3
   1da3c:	01453733          	sltu	a4,a0,s4
   1da40:	40e90933          	sub	s2,s2,a4
   1da44:	00c91793          	slli	a5,s2,0xc
   1da48:	0607dd63          	bgez	a5,1dac2 <__subtf3+0x6e8>
   1da4c:	40a60a33          	sub	s4,a2,a0
   1da50:	40b685b3          	sub	a1,a3,a1
   1da54:	01463633          	sltu	a2,a2,s4
   1da58:	40c58933          	sub	s2,a1,a2
   1da5c:	8476                	mv	s0,t4
   1da5e:	06090663          	beqz	s2,1daca <__subtf3+0x6f0>
   1da62:	854a                	mv	a0,s2
   1da64:	556000ef          	jal	ra,1dfba <__clzdi2>
   1da68:	2501                	sext.w	a0,a0
   1da6a:	ff45071b          	addiw	a4,a0,-12
   1da6e:	03f00693          	li	a3,63
   1da72:	87ba                	mv	a5,a4
   1da74:	06e6c163          	blt	a3,a4,1dad6 <__subtf3+0x6fc>
   1da78:	04000593          	li	a1,64
   1da7c:	9d99                	subw	a1,a1,a4
   1da7e:	00e91933          	sll	s2,s2,a4
   1da82:	00ba55b3          	srl	a1,s4,a1
   1da86:	0125e5b3          	or	a1,a1,s2
   1da8a:	00ea1533          	sll	a0,s4,a4
   1da8e:	07374f63          	blt	a4,s3,1db0c <__subtf3+0x732>
   1da92:	413789bb          	subw	s3,a5,s3
   1da96:	0019871b          	addiw	a4,s3,1
   1da9a:	03f00793          	li	a5,63
   1da9e:	04e7c263          	blt	a5,a4,1dae2 <__subtf3+0x708>
   1daa2:	04000793          	li	a5,64
   1daa6:	9f99                	subw	a5,a5,a4
   1daa8:	00f596b3          	sll	a3,a1,a5
   1daac:	00e55633          	srl	a2,a0,a4
   1dab0:	00f51533          	sll	a0,a0,a5
   1dab4:	8ed1                	or	a3,a3,a2
   1dab6:	00a03533          	snez	a0,a0
   1daba:	8d55                	or	a0,a0,a3
   1dabc:	00e5d5b3          	srl	a1,a1,a4
   1dac0:	b555                	j	1d964 <__subtf3+0x58a>
   1dac2:	012a6533          	or	a0,s4,s2
   1dac6:	fd41                	bnez	a0,1da5e <__subtf3+0x684>
   1dac8:	bf29                	j	1d9e2 <__subtf3+0x608>
   1daca:	8552                	mv	a0,s4
   1dacc:	4ee000ef          	jal	ra,1dfba <__clzdi2>
   1dad0:	0405051b          	addiw	a0,a0,64
   1dad4:	bf59                	j	1da6a <__subtf3+0x690>
   1dad6:	fb45059b          	addiw	a1,a0,-76
   1dada:	00ba15b3          	sll	a1,s4,a1
   1dade:	4501                	li	a0,0
   1dae0:	b77d                	j	1da8e <__subtf3+0x6b4>
   1dae2:	fc19899b          	addiw	s3,s3,-63
   1dae6:	04000613          	li	a2,64
   1daea:	0135d9b3          	srl	s3,a1,s3
   1daee:	4781                	li	a5,0
   1daf0:	00c70763          	beq	a4,a2,1dafe <__subtf3+0x724>
   1daf4:	08000793          	li	a5,128
   1daf8:	9f99                	subw	a5,a5,a4
   1dafa:	00f597b3          	sll	a5,a1,a5
   1dafe:	00f565b3          	or	a1,a0,a5
   1db02:	00b035b3          	snez	a1,a1
   1db06:	00b9e533          	or	a0,s3,a1
   1db0a:	b5c5                	j	1d9ea <__subtf3+0x610>
   1db0c:	57fd                	li	a5,-1
   1db0e:	17ce                	slli	a5,a5,0x33
   1db10:	17fd                	addi	a5,a5,-1
   1db12:	40e989b3          	sub	s3,s3,a4
   1db16:	8dfd                	and	a1,a1,a5
   1db18:	e40986e3          	beqz	s3,1d964 <__subtf3+0x58a>
   1db1c:	884e                	mv	a6,s3
   1db1e:	ba69                	j	1d4b8 <__subtf3+0xde>
   1db20:	85b6                	mv	a1,a3
   1db22:	8532                	mv	a0,a2
   1db24:	89f2                	mv	s3,t3
   1db26:	bfcd                	j	1db18 <__subtf3+0x73e>
   1db28:	85b6                	mv	a1,a3
   1db2a:	8532                	mv	a0,a2
   1db2c:	89f2                	mv	s3,t3
   1db2e:	8476                	mv	s0,t4
   1db30:	b7e5                	j	1db18 <__subtf3+0x73e>
   1db32:	85b6                	mv	a1,a3
   1db34:	8532                	mv	a0,a2
   1db36:	b53d                	j	1d964 <__subtf3+0x58a>
   1db38:	85b6                	mv	a1,a3
   1db3a:	8532                	mv	a0,a2
   1db3c:	bd69                	j	1d9d6 <__subtf3+0x5fc>
   1db3e:	85be                	mv	a1,a5
   1db40:	853a                	mv	a0,a4
   1db42:	b50d                	j	1d964 <__subtf3+0x58a>
   1db44:	4785                	li	a5,1
   1db46:	e4041de3          	bnez	s0,1d9a0 <__subtf3+0x5c6>
   1db4a:	ff86b693          	sltiu	a3,a3,-8
   1db4e:	0016c693          	xori	a3,a3,1
   1db52:	9736                	add	a4,a4,a3
   1db54:	b5b1                	j	1d9a0 <__subtf3+0x5c6>
   1db56:	4785                	li	a5,1
   1db58:	e40404e3          	beqz	s0,1d9a0 <__subtf3+0x5c6>
   1db5c:	b7fd                	j	1db4a <__subtf3+0x770>
   1db5e:	4581                	li	a1,0
   1db60:	4781                	li	a5,0
   1db62:	be99                	j	1d6b8 <__subtf3+0x2de>
   1db64:	4581                	li	a1,0
   1db66:	4501                	li	a0,0
   1db68:	8846                	mv	a6,a7
   1db6a:	bfdd                	j	1db60 <__subtf3+0x786>
   1db6c:	4581                	li	a1,0
   1db6e:	8476                	mv	s0,t4
   1db70:	bfc5                	j	1db60 <__subtf3+0x786>
   1db72:	4585                	li	a1,1
   1db74:	6821                	lui	a6,0x8
   1db76:	4501                	li	a0,0
   1db78:	4401                	li	s0,0
   1db7a:	15ca                	slli	a1,a1,0x32
   1db7c:	187d                	addi	a6,a6,-1
   1db7e:	47c1                	li	a5,16
   1db80:	be25                	j	1d6b8 <__subtf3+0x2de>
   1db82:	4581                	li	a1,0
   1db84:	4501                	li	a0,0
   1db86:	4801                	li	a6,0
   1db88:	bfe1                	j	1db60 <__subtf3+0x786>
   1db8a:	be041de3          	bnez	s0,1d784 <__subtf3+0x3aa>
   1db8e:	00850893          	addi	a7,a0,8
   1db92:	00a8b533          	sltu	a0,a7,a0
   1db96:	95aa                	add	a1,a1,a0
   1db98:	8546                	mv	a0,a7
   1db9a:	b6ed                	j	1d784 <__subtf3+0x3aa>
   1db9c:	be0404e3          	beqz	s0,1d784 <__subtf3+0x3aa>
   1dba0:	b7fd                	j	1db8e <__subtf3+0x7b4>
   1dba2:	4501                	li	a0,0
   1dba4:	cc89                	beqz	s1,1dbbe <__subtf3+0x7e4>
   1dba6:	468d                	li	a3,3
   1dba8:	00d49763          	bne	s1,a3,1dbb6 <__subtf3+0x7dc>
   1dbac:	c809                	beqz	s0,1dbbe <__subtf3+0x7e4>
   1dbae:	557d                	li	a0,-1
   1dbb0:	ffe70813          	addi	a6,a4,-2 # 7ffe <register_fini-0x80ea>
   1dbb4:	a029                	j	1dbbe <__subtf3+0x7e4>
   1dbb6:	4689                	li	a3,2
   1dbb8:	fed49be3          	bne	s1,a3,1dbae <__subtf3+0x7d4>
   1dbbc:	d86d                	beqz	s0,1dbae <__subtf3+0x7d4>
   1dbbe:	0057e793          	ori	a5,a5,5
   1dbc2:	85aa                	mv	a1,a0
   1dbc4:	be01                	j	1d6d4 <__subtf3+0x2fa>
   1dbc6:	4781                	li	a5,0
   1dbc8:	e51e18e3          	bne	t3,a7,1da18 <__subtf3+0x63e>
   1dbcc:	bdb9                	j	1da2a <__subtf3+0x650>
   1dbce:	4781                	li	a5,0
   1dbd0:	ad1e12e3          	bne	t3,a7,1d694 <__subtf3+0x2ba>
   1dbd4:	bcc1                	j	1d6a4 <__subtf3+0x2ca>

000000000001dbd6 <__fixtfsi>:
   1dbd6:	882a                	mv	a6,a0
   1dbd8:	002027f3          	frrm	a5
   1dbdc:	6611                	lui	a2,0x4
   1dbde:	00159693          	slli	a3,a1,0x1
   1dbe2:	01059793          	slli	a5,a1,0x10
   1dbe6:	92c5                	srli	a3,a3,0x31
   1dbe8:	ffe60713          	addi	a4,a2,-2 # 3ffe <register_fini-0xc0ea>
   1dbec:	83c1                	srli	a5,a5,0x10
   1dbee:	91fd                	srli	a1,a1,0x3f
   1dbf0:	00d74763          	blt	a4,a3,1dbfe <__fixtfsi+0x28>
   1dbf4:	e6b5                	bnez	a3,1dc60 <__fixtfsi+0x8a>
   1dbf6:	8fc9                	or	a5,a5,a0
   1dbf8:	4501                	li	a0,0
   1dbfa:	e3ad                	bnez	a5,1dc5c <__fixtfsi+0x86>
   1dbfc:	8082                	ret
   1dbfe:	01d60713          	addi	a4,a2,29
   1dc02:	02d75663          	bge	a4,a3,1dc2e <__fixtfsi+0x58>
   1dc06:	80000737          	lui	a4,0x80000
   1dc0a:	fff74713          	not	a4,a4
   1dc0e:	00b7053b          	addw	a0,a4,a1
   1dc12:	c9a9                	beqz	a1,1dc64 <__fixtfsi+0x8e>
   1dc14:	01e60713          	addi	a4,a2,30
   1dc18:	4641                	li	a2,16
   1dc1a:	04e69663          	bne	a3,a4,1dc66 <__fixtfsi+0x90>
   1dc1e:	0117d713          	srli	a4,a5,0x11
   1dc22:	e331                	bnez	a4,1dc66 <__fixtfsi+0x90>
   1dc24:	17be                	slli	a5,a5,0x2f
   1dc26:	0107e7b3          	or	a5,a5,a6
   1dc2a:	eb8d                	bnez	a5,1dc5c <__fixtfsi+0x86>
   1dc2c:	8082                	ret
   1dc2e:	4505                	li	a0,1
   1dc30:	1542                	slli	a0,a0,0x30
   1dc32:	8fc9                	or	a5,a5,a0
   1dc34:	7771                	lui	a4,0xffffc
   1dc36:	6511                	lui	a0,0x4
   1dc38:	02f5051b          	addiw	a0,a0,47
   1dc3c:	2745                	addiw	a4,a4,17
   1dc3e:	9f35                	addw	a4,a4,a3
   1dc40:	40d506bb          	subw	a3,a0,a3
   1dc44:	00e79733          	sll	a4,a5,a4
   1dc48:	00d7d7b3          	srl	a5,a5,a3
   1dc4c:	01076733          	or	a4,a4,a6
   1dc50:	0007851b          	sext.w	a0,a5
   1dc54:	c199                	beqz	a1,1dc5a <__fixtfsi+0x84>
   1dc56:	40a0053b          	negw	a0,a0
   1dc5a:	cb01                	beqz	a4,1dc6a <__fixtfsi+0x94>
   1dc5c:	4605                	li	a2,1
   1dc5e:	a021                	j	1dc66 <__fixtfsi+0x90>
   1dc60:	4501                	li	a0,0
   1dc62:	bfed                	j	1dc5c <__fixtfsi+0x86>
   1dc64:	4641                	li	a2,16
   1dc66:	00162073          	csrs	fflags,a2
   1dc6a:	8082                	ret

000000000001dc6c <__floatsitf>:
   1dc6c:	1101                	addi	sp,sp,-32
   1dc6e:	ec06                	sd	ra,24(sp)
   1dc70:	e822                	sd	s0,16(sp)
   1dc72:	e426                	sd	s1,8(sp)
   1dc74:	c531                	beqz	a0,1dcc0 <__floatsitf+0x54>
   1dc76:	0005079b          	sext.w	a5,a0
   1dc7a:	03f55493          	srli	s1,a0,0x3f
   1dc7e:	00055463          	bgez	a0,1dc86 <__floatsitf+0x1a>
   1dc82:	40f007bb          	negw	a5,a5
   1dc86:	02079413          	slli	s0,a5,0x20
   1dc8a:	9001                	srli	s0,s0,0x20
   1dc8c:	8522                	mv	a0,s0
   1dc8e:	32c000ef          	jal	ra,1dfba <__clzdi2>
   1dc92:	6691                	lui	a3,0x4
   1dc94:	03e6879b          	addiw	a5,a3,62
   1dc98:	40a7873b          	subw	a4,a5,a0
   1dc9c:	02f6879b          	addiw	a5,a3,47
   1dca0:	9f99                	subw	a5,a5,a4
   1dca2:	00f417b3          	sll	a5,s0,a5
   1dca6:	60e2                	ld	ra,24(sp)
   1dca8:	6442                	ld	s0,16(sp)
   1dcaa:	00f49593          	slli	a1,s1,0xf
   1dcae:	07c2                	slli	a5,a5,0x10
   1dcb0:	8dd9                	or	a1,a1,a4
   1dcb2:	15c2                	slli	a1,a1,0x30
   1dcb4:	83c1                	srli	a5,a5,0x10
   1dcb6:	64a2                	ld	s1,8(sp)
   1dcb8:	4501                	li	a0,0
   1dcba:	8ddd                	or	a1,a1,a5
   1dcbc:	6105                	addi	sp,sp,32
   1dcbe:	8082                	ret
   1dcc0:	4781                	li	a5,0
   1dcc2:	4701                	li	a4,0
   1dcc4:	4481                	li	s1,0
   1dcc6:	b7c5                	j	1dca6 <__floatsitf+0x3a>

000000000001dcc8 <__extenddftf2>:
   1dcc8:	1101                	addi	sp,sp,-32
   1dcca:	e20507d3          	fmv.x.d	a5,fa0
   1dcce:	ec06                	sd	ra,24(sp)
   1dcd0:	e822                	sd	s0,16(sp)
   1dcd2:	e426                	sd	s1,8(sp)
   1dcd4:	00202773          	frrm	a4
   1dcd8:	0347d513          	srli	a0,a5,0x34
   1dcdc:	7ff57513          	andi	a0,a0,2047
   1dce0:	00c79413          	slli	s0,a5,0xc
   1dce4:	03f7d493          	srli	s1,a5,0x3f
   1dce8:	00150793          	addi	a5,a0,1 # 4001 <register_fini-0xc0e7>
   1dcec:	7fe7f793          	andi	a5,a5,2046
   1dcf0:	8031                	srli	s0,s0,0xc
   1dcf2:	cb91                	beqz	a5,1dd06 <__extenddftf2+0x3e>
   1dcf4:	6791                	lui	a5,0x4
   1dcf6:	c0078793          	addi	a5,a5,-1024 # 3c00 <register_fini-0xc4e8>
   1dcfa:	00445593          	srli	a1,s0,0x4
   1dcfe:	953e                	add	a0,a0,a5
   1dd00:	1472                	slli	s0,s0,0x3c
   1dd02:	4781                	li	a5,0
   1dd04:	a8b9                	j	1dd62 <__extenddftf2+0x9a>
   1dd06:	ed1d                	bnez	a0,1dd44 <__extenddftf2+0x7c>
   1dd08:	4581                	li	a1,0
   1dd0a:	dc65                	beqz	s0,1dd02 <__extenddftf2+0x3a>
   1dd0c:	8522                	mv	a0,s0
   1dd0e:	2ac000ef          	jal	ra,1dfba <__clzdi2>
   1dd12:	0005071b          	sext.w	a4,a0
   1dd16:	47b9                	li	a5,14
   1dd18:	02e7c063          	blt	a5,a4,1dd38 <__extenddftf2+0x70>
   1dd1c:	45bd                	li	a1,15
   1dd1e:	9d89                	subw	a1,a1,a0
   1dd20:	0315079b          	addiw	a5,a0,49
   1dd24:	00b455b3          	srl	a1,s0,a1
   1dd28:	00f41433          	sll	s0,s0,a5
   1dd2c:	6791                	lui	a5,0x4
   1dd2e:	c0c7879b          	addiw	a5,a5,-1012
   1dd32:	40a7853b          	subw	a0,a5,a0
   1dd36:	b7f1                	j	1dd02 <__extenddftf2+0x3a>
   1dd38:	ff15059b          	addiw	a1,a0,-15
   1dd3c:	00b415b3          	sll	a1,s0,a1
   1dd40:	4401                	li	s0,0
   1dd42:	b7ed                	j	1dd2c <__extenddftf2+0x64>
   1dd44:	cc15                	beqz	s0,1dd80 <__extenddftf2+0xb8>
   1dd46:	4705                	li	a4,1
   1dd48:	03371793          	slli	a5,a4,0x33
   1dd4c:	8fe1                	and	a5,a5,s0
   1dd4e:	00445593          	srli	a1,s0,0x4
   1dd52:	0017b793          	seqz	a5,a5
   1dd56:	173e                	slli	a4,a4,0x2f
   1dd58:	6521                	lui	a0,0x8
   1dd5a:	0792                	slli	a5,a5,0x4
   1dd5c:	8dd9                	or	a1,a1,a4
   1dd5e:	1472                	slli	s0,s0,0x3c
   1dd60:	157d                	addi	a0,a0,-1
   1dd62:	04be                	slli	s1,s1,0xf
   1dd64:	05c2                	slli	a1,a1,0x10
   1dd66:	8d45                	or	a0,a0,s1
   1dd68:	1542                	slli	a0,a0,0x30
   1dd6a:	81c1                	srli	a1,a1,0x10
   1dd6c:	8dc9                	or	a1,a1,a0
   1dd6e:	c399                	beqz	a5,1dd74 <__extenddftf2+0xac>
   1dd70:	0017a073          	csrs	fflags,a5
   1dd74:	60e2                	ld	ra,24(sp)
   1dd76:	8522                	mv	a0,s0
   1dd78:	6442                	ld	s0,16(sp)
   1dd7a:	64a2                	ld	s1,8(sp)
   1dd7c:	6105                	addi	sp,sp,32
   1dd7e:	8082                	ret
   1dd80:	6521                	lui	a0,0x8
   1dd82:	4581                	li	a1,0
   1dd84:	157d                	addi	a0,a0,-1
   1dd86:	bfb5                	j	1dd02 <__extenddftf2+0x3a>

000000000001dd88 <__trunctfdf2>:
   1dd88:	00202873          	frrm	a6
   1dd8c:	68a1                	lui	a7,0x8
   1dd8e:	fff88e13          	addi	t3,a7,-1 # 7fff <register_fini-0x80e9>
   1dd92:	01059713          	slli	a4,a1,0x10
   1dd96:	0305d613          	srli	a2,a1,0x30
   1dd9a:	00d75793          	srli	a5,a4,0xd
   1dd9e:	01c67633          	and	a2,a2,t3
   1dda2:	03d55713          	srli	a4,a0,0x3d
   1dda6:	8f5d                	or	a4,a4,a5
   1dda8:	18f9                	addi	a7,a7,-2
   1ddaa:	00160793          	addi	a5,a2,1
   1ddae:	0117f8b3          	and	a7,a5,a7
   1ddb2:	2801                	sext.w	a6,a6
   1ddb4:	03f5d693          	srli	a3,a1,0x3f
   1ddb8:	00351e93          	slli	t4,a0,0x3
   1ddbc:	16088f63          	beqz	a7,1df3a <__trunctfdf2+0x1b2>
   1ddc0:	78f1                	lui	a7,0xffffc
   1ddc2:	40088893          	addi	a7,a7,1024 # ffffffffffffc400 <__BSS_END__+0xffffffffffee56d0>
   1ddc6:	9646                	add	a2,a2,a7
   1ddc8:	7fe00793          	li	a5,2046
   1ddcc:	08c7de63          	bge	a5,a2,1de68 <__trunctfdf2+0xe0>
   1ddd0:	04080363          	beqz	a6,1de16 <__trunctfdf2+0x8e>
   1ddd4:	478d                	li	a5,3
   1ddd6:	02f81c63          	bne	a6,a5,1de0e <__trunctfdf2+0x86>
   1ddda:	ce95                	beqz	a3,1de16 <__trunctfdf2+0x8e>
   1dddc:	57fd                	li	a5,-1
   1ddde:	7fe00613          	li	a2,2046
   1dde2:	4701                	li	a4,0
   1dde4:	4315                	li	t1,5
   1dde6:	4589                	li	a1,2
   1dde8:	00136313          	ori	t1,t1,1
   1ddec:	1ab80263          	beq	a6,a1,1df90 <__trunctfdf2+0x208>
   1ddf0:	458d                	li	a1,3
   1ddf2:	18b80b63          	beq	a6,a1,1df88 <__trunctfdf2+0x200>
   1ddf6:	00081863          	bnez	a6,1de06 <__trunctfdf2+0x7e>
   1ddfa:	00f7f513          	andi	a0,a5,15
   1ddfe:	4591                	li	a1,4
   1de00:	00b50363          	beq	a0,a1,1de06 <__trunctfdf2+0x7e>
   1de04:	0791                	addi	a5,a5,4
   1de06:	cf01                	beqz	a4,1de1e <__trunctfdf2+0x96>
   1de08:	00236313          	ori	t1,t1,2
   1de0c:	a809                	j	1de1e <__trunctfdf2+0x96>
   1de0e:	4789                	li	a5,2
   1de10:	fcf816e3          	bne	a6,a5,1dddc <__trunctfdf2+0x54>
   1de14:	d6e1                	beqz	a3,1dddc <__trunctfdf2+0x54>
   1de16:	4781                	li	a5,0
   1de18:	7ff00613          	li	a2,2047
   1de1c:	4315                	li	t1,5
   1de1e:	00879713          	slli	a4,a5,0x8
   1de22:	00075b63          	bgez	a4,1de38 <__trunctfdf2+0xb0>
   1de26:	0605                	addi	a2,a2,1
   1de28:	7ff00713          	li	a4,2047
   1de2c:	16e60563          	beq	a2,a4,1df96 <__trunctfdf2+0x20e>
   1de30:	557d                	li	a0,-1
   1de32:	155e                	slli	a0,a0,0x37
   1de34:	157d                	addi	a0,a0,-1
   1de36:	8fe9                	and	a5,a5,a0
   1de38:	7ff00713          	li	a4,2047
   1de3c:	838d                	srli	a5,a5,0x3
   1de3e:	00e61663          	bne	a2,a4,1de4a <__trunctfdf2+0xc2>
   1de42:	c781                	beqz	a5,1de4a <__trunctfdf2+0xc2>
   1de44:	4785                	li	a5,1
   1de46:	17ce                	slli	a5,a5,0x33
   1de48:	4681                	li	a3,0
   1de4a:	7ff67713          	andi	a4,a2,2047
   1de4e:	07b2                	slli	a5,a5,0xc
   1de50:	1752                	slli	a4,a4,0x34
   1de52:	83b1                	srli	a5,a5,0xc
   1de54:	8fd9                	or	a5,a5,a4
   1de56:	16fe                	slli	a3,a3,0x3f
   1de58:	8fd5                	or	a5,a5,a3
   1de5a:	00030463          	beqz	t1,1de62 <__trunctfdf2+0xda>
   1de5e:	00132073          	csrs	fflags,t1
   1de62:	f2078553          	fmv.d.x	fa0,a5
   1de66:	8082                	ret
   1de68:	0ac04563          	bgtz	a2,1df12 <__trunctfdf2+0x18a>
   1de6c:	fcc00793          	li	a5,-52
   1de70:	10f64063          	blt	a2,a5,1df70 <__trunctfdf2+0x1e8>
   1de74:	4785                	li	a5,1
   1de76:	17ce                	slli	a5,a5,0x33
   1de78:	03d00e13          	li	t3,61
   1de7c:	8f5d                	or	a4,a4,a5
   1de7e:	40ce0e33          	sub	t3,t3,a2
   1de82:	03f00793          	li	a5,63
   1de86:	0006089b          	sext.w	a7,a2
   1de8a:	05c7cf63          	blt	a5,t3,1dee8 <__trunctfdf2+0x160>
   1de8e:	0038859b          	addiw	a1,a7,3
   1de92:	03d00613          	li	a2,61
   1de96:	4116063b          	subw	a2,a2,a7
   1de9a:	00be97b3          	sll	a5,t4,a1
   1de9e:	00ced633          	srl	a2,t4,a2
   1dea2:	00f037b3          	snez	a5,a5
   1dea6:	8fd1                	or	a5,a5,a2
   1dea8:	00b71733          	sll	a4,a4,a1
   1deac:	8fd9                	or	a5,a5,a4
   1deae:	4601                	li	a2,0
   1deb0:	cbf1                	beqz	a5,1df84 <__trunctfdf2+0x1fc>
   1deb2:	00179713          	slli	a4,a5,0x1
   1deb6:	00777613          	andi	a2,a4,7
   1deba:	4301                	li	t1,0
   1debc:	c205                	beqz	a2,1dedc <__trunctfdf2+0x154>
   1debe:	4609                	li	a2,2
   1dec0:	0ac80d63          	beq	a6,a2,1df7a <__trunctfdf2+0x1f2>
   1dec4:	460d                	li	a2,3
   1dec6:	4305                	li	t1,1
   1dec8:	0ac80663          	beq	a6,a2,1df74 <__trunctfdf2+0x1ec>
   1decc:	00081863          	bnez	a6,1dedc <__trunctfdf2+0x154>
   1ded0:	00f77613          	andi	a2,a4,15
   1ded4:	4591                	li	a1,4
   1ded6:	00b60363          	beq	a2,a1,1dedc <__trunctfdf2+0x154>
   1deda:	0711                	addi	a4,a4,4
   1dedc:	9361                	srli	a4,a4,0x38
   1dede:	00174713          	xori	a4,a4,1
   1dee2:	8b05                	andi	a4,a4,1
   1dee4:	4601                	li	a2,0
   1dee6:	a089                	j	1df28 <__trunctfdf2+0x1a0>
   1dee8:	5375                	li	t1,-3
   1deea:	4113033b          	subw	t1,t1,a7
   1deee:	04000793          	li	a5,64
   1def2:	00675333          	srl	t1,a4,t1
   1def6:	4581                	li	a1,0
   1def8:	00fe0663          	beq	t3,a5,1df04 <__trunctfdf2+0x17c>
   1defc:	0438861b          	addiw	a2,a7,67
   1df00:	00c715b3          	sll	a1,a4,a2
   1df04:	01d5e5b3          	or	a1,a1,t4
   1df08:	00b035b3          	snez	a1,a1
   1df0c:	00b367b3          	or	a5,t1,a1
   1df10:	bf79                	j	1deae <__trunctfdf2+0x126>
   1df12:	00751793          	slli	a5,a0,0x7
   1df16:	00f037b3          	snez	a5,a5
   1df1a:	03ced593          	srli	a1,t4,0x3c
   1df1e:	0712                	slli	a4,a4,0x4
   1df20:	8fcd                	or	a5,a5,a1
   1df22:	8fd9                	or	a5,a5,a4
   1df24:	4301                	li	t1,0
   1df26:	4701                	li	a4,0
   1df28:	0077f593          	andi	a1,a5,7
   1df2c:	ea059de3          	bnez	a1,1dde6 <__trunctfdf2+0x5e>
   1df30:	ee0707e3          	beqz	a4,1de1e <__trunctfdf2+0x96>
   1df34:	00137713          	andi	a4,t1,1
   1df38:	b5f9                	j	1de06 <__trunctfdf2+0x7e>
   1df3a:	01d767b3          	or	a5,a4,t4
   1df3e:	e601                	bnez	a2,1df46 <__trunctfdf2+0x1be>
   1df40:	00f037b3          	snez	a5,a5
   1df44:	b7ad                	j	1deae <__trunctfdf2+0x126>
   1df46:	cf8d                	beqz	a5,1df80 <__trunctfdf2+0x1f8>
   1df48:	4301                	li	t1,0
   1df4a:	01c61763          	bne	a2,t3,1df58 <__trunctfdf2+0x1d0>
   1df4e:	03275313          	srli	t1,a4,0x32
   1df52:	00133313          	seqz	t1,t1
   1df56:	0312                	slli	t1,t1,0x4
   1df58:	03ced793          	srli	a5,t4,0x3c
   1df5c:	0712                	slli	a4,a4,0x4
   1df5e:	8f5d                	or	a4,a4,a5
   1df60:	4785                	li	a5,1
   1df62:	9b61                	andi	a4,a4,-8
   1df64:	17da                	slli	a5,a5,0x36
   1df66:	8fd9                	or	a5,a5,a4
   1df68:	7ff00613          	li	a2,2047
   1df6c:	4701                	li	a4,0
   1df6e:	bf6d                	j	1df28 <__trunctfdf2+0x1a0>
   1df70:	4785                	li	a5,1
   1df72:	b781                	j	1deb2 <__trunctfdf2+0x12a>
   1df74:	f6a5                	bnez	a3,1dedc <__trunctfdf2+0x154>
   1df76:	0721                	addi	a4,a4,8
   1df78:	b795                	j	1dedc <__trunctfdf2+0x154>
   1df7a:	4305                	li	t1,1
   1df7c:	d2a5                	beqz	a3,1dedc <__trunctfdf2+0x154>
   1df7e:	bfe5                	j	1df76 <__trunctfdf2+0x1ee>
   1df80:	7ff00613          	li	a2,2047
   1df84:	4301                	li	t1,0
   1df86:	bd61                	j	1de1e <__trunctfdf2+0x96>
   1df88:	e6069fe3          	bnez	a3,1de06 <__trunctfdf2+0x7e>
   1df8c:	07a1                	addi	a5,a5,8
   1df8e:	bda5                	j	1de06 <__trunctfdf2+0x7e>
   1df90:	e6068be3          	beqz	a3,1de06 <__trunctfdf2+0x7e>
   1df94:	bfe5                	j	1df8c <__trunctfdf2+0x204>
   1df96:	4781                	li	a5,0
   1df98:	00080e63          	beqz	a6,1dfb4 <__trunctfdf2+0x22c>
   1df9c:	470d                	li	a4,3
   1df9e:	00e81763          	bne	a6,a4,1dfac <__trunctfdf2+0x224>
   1dfa2:	ca89                	beqz	a3,1dfb4 <__trunctfdf2+0x22c>
   1dfa4:	57fd                	li	a5,-1
   1dfa6:	7fe00613          	li	a2,2046
   1dfaa:	a029                	j	1dfb4 <__trunctfdf2+0x22c>
   1dfac:	4709                	li	a4,2
   1dfae:	fee81be3          	bne	a6,a4,1dfa4 <__trunctfdf2+0x21c>
   1dfb2:	daed                	beqz	a3,1dfa4 <__trunctfdf2+0x21c>
   1dfb4:	00536313          	ori	t1,t1,5
   1dfb8:	b541                	j	1de38 <__trunctfdf2+0xb0>

000000000001dfba <__clzdi2>:
   1dfba:	03800793          	li	a5,56
   1dfbe:	00f55733          	srl	a4,a0,a5
   1dfc2:	0ff77713          	zext.b	a4,a4
   1dfc6:	e319                	bnez	a4,1dfcc <__clzdi2+0x12>
   1dfc8:	17e1                	addi	a5,a5,-8
   1dfca:	fbf5                	bnez	a5,1dfbe <__clzdi2+0x4>
   1dfcc:	04000713          	li	a4,64
   1dfd0:	8f1d                	sub	a4,a4,a5
   1dfd2:	00f55533          	srl	a0,a0,a5
   1dfd6:	00001797          	auipc	a5,0x1
   1dfda:	f7278793          	addi	a5,a5,-142 # 1ef48 <__clz_tab>
   1dfde:	953e                	add	a0,a0,a5
   1dfe0:	00054503          	lbu	a0,0(a0) # 8000 <register_fini-0x80e8>
   1dfe4:	40a7053b          	subw	a0,a4,a0
   1dfe8:	8082                	ret
